ARM GAS  C:\Users\ADMINI~1\AppData\Local\Temp\ccm0G0A3.s 			page 1


   1              		.cpu cortex-m0
   2              		.fpu softvfp
   3              		.eabi_attribute 20, 1
   4              		.eabi_attribute 21, 1
   5              		.eabi_attribute 23, 3
   6              		.eabi_attribute 24, 1
   7              		.eabi_attribute 25, 1
   8              		.eabi_attribute 26, 1
   9              		.eabi_attribute 30, 6
  10              		.eabi_attribute 34, 0
  11              		.eabi_attribute 18, 4
  12              		.code	16
  13              		.file	"application.c"
  14              		.text
  15              	.Ltext0:
  16              		.cfi_sections	.debug_frame
  17              		.comm	BondList,29,4
  18              		.global	NotifyValue
  19              		.data
  20              		.align	2
  21              		.type	NotifyValue, %object
  22              		.size	NotifyValue, 2
  23              	NotifyValue:
  24 0000 01       		.byte	1
  25 0001 00       		.byte	0
  26              		.global	WakeUp
  27              		.bss
  28              		.type	WakeUp, %object
  29              		.size	WakeUp, 1
  30              	WakeUp:
  31 0000 00       		.space	1
  32              		.global	DeviceCounts
  33              		.type	DeviceCounts, %object
  34              		.size	DeviceCounts, 1
  35              	DeviceCounts:
  36 0001 00       		.space	1
  37              		.global	DeviceNum
  38              		.data
  39              		.type	DeviceNum, %object
  40              		.size	DeviceNum, 1
  41              	DeviceNum:
  42 0002 05       		.byte	5
  43              		.global	BondNum
  44              		.type	BondNum, %object
  45              		.size	BondNum, 1
  46              	BondNum:
  47 0003 04       		.byte	4
  48              		.global	ReConnect
  49              		.bss
  50              		.type	ReConnect, %object
  51              		.size	ReConnect, 1
  52              	ReConnect:
  53 0002 00       		.space	1
  54              		.global	Device
  55              		.data
  56              		.align	2
  57              		.type	Device, %object
ARM GAS  C:\Users\ADMINI~1\AppData\Local\Temp\ccm0G0A3.s 			page 2


  58              		.size	Device, 28
  59              	Device:
  60 0004 CB       		.byte	-53
  61 0005 83       		.byte	-125
  62 0006 6D       		.byte	109
  63 0007 50       		.byte	80
  64 0008 A0       		.byte	-96
  65 0009 00       		.byte	0
  66 000a 00       		.byte	0
  67 000b A5       		.byte	-91
  68 000c 83       		.byte	-125
  69 000d 6D       		.byte	109
  70 000e 50       		.byte	80
  71 000f A0       		.byte	-96
  72 0010 00       		.byte	0
  73 0011 00       		.byte	0
  74 0012 2F       		.byte	47
  75 0013 84       		.byte	-124
  76 0014 6D       		.byte	109
  77 0015 50       		.byte	80
  78 0016 A0       		.byte	-96
  79 0017 00       		.byte	0
  80 0018 00       		.byte	0
  81 0019 25       		.byte	37
  82 001a 84       		.byte	-124
  83 001b 6D       		.byte	109
  84 001c 50       		.byte	80
  85 001d A0       		.byte	-96
  86 001e 00       		.byte	0
  87 001f 00       		.byte	0
  88              		.global	TestDevice
  89              		.align	2
  90              		.type	TestDevice, %object
  91              		.size	TestDevice, 7
  92              	TestDevice:
  93 0020 8F       		.byte	-113
  94 0021 AA       		.byte	-86
  95 0022 1C       		.byte	28
  96 0023 50       		.byte	80
  97 0024 A0       		.byte	-96
  98 0025 00       		.byte	0
  99 0026 00       		.byte	0
 100              		.global	Device1
 101 0027 00       		.align	2
 102              		.type	Device1, %object
 103              		.size	Device1, 7
 104              	Device1:
 105 0028 CB       		.byte	-53
 106 0029 83       		.byte	-125
 107 002a 6D       		.byte	109
 108 002b 50       		.byte	80
 109 002c A0       		.byte	-96
 110 002d 00       		.byte	0
 111 002e 00       		.byte	0
 112              		.global	Device2
 113 002f 00       		.align	2
 114              		.type	Device2, %object
ARM GAS  C:\Users\ADMINI~1\AppData\Local\Temp\ccm0G0A3.s 			page 3


 115              		.size	Device2, 7
 116              	Device2:
 117 0030 A5       		.byte	-91
 118 0031 83       		.byte	-125
 119 0032 6D       		.byte	109
 120 0033 50       		.byte	80
 121 0034 A0       		.byte	-96
 122 0035 00       		.byte	0
 123 0036 00       		.byte	0
 124              		.global	Device3
 125 0037 00       		.align	2
 126              		.type	Device3, %object
 127              		.size	Device3, 7
 128              	Device3:
 129 0038 2F       		.byte	47
 130 0039 84       		.byte	-124
 131 003a 6D       		.byte	109
 132 003b 50       		.byte	80
 133 003c A0       		.byte	-96
 134 003d 00       		.byte	0
 135 003e 00       		.byte	0
 136              		.global	Device4
 137 003f 00       		.align	2
 138              		.type	Device4, %object
 139              		.size	Device4, 7
 140              	Device4:
 141 0040 25       		.byte	37
 142 0041 84       		.byte	-124
 143 0042 6D       		.byte	109
 144 0043 50       		.byte	80
 145 0044 A0       		.byte	-96
 146 0045 00       		.byte	0
 147 0046 00       		.byte	0
 148              		.global	Device5
 149 0047 00       		.align	2
 150              		.type	Device5, %object
 151              		.size	Device5, 7
 152              	Device5:
 153 0048 D1       		.byte	-47
 154 0049 83       		.byte	-125
 155 004a 6D       		.byte	109
 156 004b 50       		.byte	80
 157 004c A0       		.byte	-96
 158 004d 00       		.byte	0
 159 004e 00       		.byte	0
 160              		.global	WriteCmd
 161 004f 00       		.align	2
 162              		.type	WriteCmd, %object
 163              		.size	WriteCmd, 12
 164              	WriteCmd:
 165 0050 00000000 		.word	NotifyValue
 166 0054 0200     		.short	2
 167 0056 0000     		.short	0
 168 0058 1100     		.short	17
 169 005a 0000     		.space	2
 170              		.global	THROUGH_STAUS
 171              		.bss
ARM GAS  C:\Users\ADMINI~1\AppData\Local\Temp\ccm0G0A3.s 			page 4


 172              		.type	THROUGH_STAUS, %object
 173              		.size	THROUGH_STAUS, 1
 174              	THROUGH_STAUS:
 175 0003 00       		.space	1
 176              		.global	CommandList
 177              		.section	.rodata
 178              		.align	2
 179              	.LC0:
 180 0000 41542B53 		.ascii	"AT+SWT=1\000"
 180      57543D31 
 180      00
 181 0009 000000   		.align	2
 182              	.LC1:
 183 000c 41542B53 		.ascii	"AT+SWT=0\000"
 183      57543D30 
 183      00
 184 0015 000000   		.align	2
 185              	.LC2:
 186 0018 41542B4F 		.ascii	"AT+ON_OFF=1\000"
 186      4E5F4F46 
 186      463D3100 
 187              		.align	2
 188              	.LC3:
 189 0024 41542B4F 		.ascii	"AT+ON_OFF=0\000"
 189      4E5F4F46 
 189      463D3000 
 190              		.data
 191              		.align	2
 192              		.type	CommandList, %object
 193              		.size	CommandList, 16
 194              	CommandList:
 195 005c 00000000 		.word	.LC0
 196 0060 0C000000 		.word	.LC1
 197 0064 18000000 		.word	.LC2
 198 0068 24000000 		.word	.LC3
 199              		.global	CommandListLen
 200              		.type	CommandListLen, %object
 201              		.size	CommandListLen, 1
 202              	CommandListLen:
 203 006c 04       		.byte	4
 204              		.global	Buffer
 205              		.bss
 206              		.align	2
 207              		.type	Buffer, %object
 208              		.size	Buffer, 23
 209              	Buffer:
 210 0004 00000000 		.space	23
 210      00000000 
 210      00000000 
 210      00000000 
 210      00000000 
 211              		.global	RX_ISOVER
 212              		.type	RX_ISOVER, %object
 213              		.size	RX_ISOVER, 1
 214              	RX_ISOVER:
 215 001b 00       		.space	1
 216              		.comm	LOWPOWER,1,1
ARM GAS  C:\Users\ADMINI~1\AppData\Local\Temp\ccm0G0A3.s 			page 5


 217              		.global	ALL_ON_OFF
 218              		.type	ALL_ON_OFF, %object
 219              		.size	ALL_ON_OFF, 1
 220              	ALL_ON_OFF:
 221 001c 00       		.space	1
 222              		.global	ButtonStatus
 223              		.data
 224              		.type	ButtonStatus, %object
 225              		.size	ButtonStatus, 1
 226              	ButtonStatus:
 227 006d 05       		.byte	5
 228              		.global	DisonnectedStaus
 229              		.bss
 230              		.type	DisonnectedStaus, %object
 231              		.size	DisonnectedStaus, 1
 232              	DisonnectedStaus:
 233 001d 00       		.space	1
 234              		.comm	ButtonType,1,1
 235              		.global	Button
 236 001e 0000     		.data
 237 006e 0000     		.align	2
 238              		.type	Button, %object
 239              		.size	Button, 5
 240              	Button:
 241 0070 01       		.byte	1
 242 0071 01       		.byte	1
 243 0072 01       		.byte	1
 244 0073 01       		.byte	1
 245 0074 01       		.byte	1
 246 0075 000000   		.section	.rodata
 247              		.align	2
 248              	.LC5:
 249 0030 424C4520 		.ascii	"BLE is Connectted!\015\000"
 249      69732043 
 249      6F6E6E65 
 249      63747465 
 249      64210D00 
 250              		.align	2
 251              	.LC10:
 252 0044 44697343 		.ascii	"DisConnectted Resason is %02X!\015\012\000"
 252      6F6E6E65 
 252      63747465 
 252      64205265 
 252      7361736F 
 253 0065 000000   		.align	2
 254              	.LC18:
 255 0068 52656365 		.ascii	"Recevice From Server!\015\000"
 255      76696365 
 255      2046726F 
 255      6D205365 
 255      72766572 
 256 007f 00       		.align	2
 257              	.LC20:
 258 0080 426F6E64 		.ascii	"Bond is Compelete!\015\000"
 258      20697320 
 258      436F6D70 
 258      656C6574 
ARM GAS  C:\Users\ADMINI~1\AppData\Local\Temp\ccm0G0A3.s 			page 6


 258      65210D00 
 259              		.section	.text.StackEventHandler,"ax",%progbits
 260              		.align	2
 261              		.global	StackEventHandler
 262              		.code	16
 263              		.thumb_func
 264              		.type	StackEventHandler, %function
 265              	StackEventHandler:
 266              	.LFB37:
 267              		.file 1 ".\\application.c"
   1:.\application.c **** /* ========================================
   2:.\application.c ****  * Êñá‰ª∂Ôºöapplication.c
   3:.\application.c ****  * ‰ΩúËÄÖÔºöHelon
   4:.\application.c ****  * Êó•ÊúüÔºö2016-04-23
   5:.\application.c ****  * ÁâàÊú¨ÔºöVer1.0
   6:.\application.c ****  * ÊèèËø∞ÔºöËøô‰∏™Êñá‰ª∂ÂåÖÊã¨‰∫ÜÊâÄÊúâÂú®Â∫îÁî®Â±Ç‰∏ä‰ΩøÁî®ÁöÑÂáΩÊï∞ÂÆö‰πâ
   7:.\application.c ****  * ========================================
   8:.\application.c **** */
   9:.\application.c **** 
  10:.\application.c **** /* ****************************************
  11:.\application.c ****  * Â§¥Êñá‰ª∂ÂåÖÂê´
  12:.\application.c ****  * ****************************************
  13:.\application.c **** */
  14:.\application.c **** #include <project.h> 
  15:.\application.c **** #include "application.h"
  16:.\application.c **** #include <malloc.h>
  17:.\application.c **** #include "print.h"
  18:.\application.c **** /* ****************************************
  19:.\application.c ****  * ÂèòÈáèÂ£∞ÊòéÂÆö‰πâ
  20:.\application.c ****  * ****************************************
  21:.\application.c **** */
  22:.\application.c **** CYBLE_GAP_BONDED_DEV_ADDR_LIST_T BondList;//‰øùÂ≠òÁªëÂÆöÁöÑ‰ø°ÊÅØ
  23:.\application.c **** uint8_t NotifyValue[]={0x01,0x00};
  24:.\application.c **** uint8_t WakeUp=FALSE;
  25:.\application.c **** uint8_t DeviceCounts=0;
  26:.\application.c **** uint8_t DeviceNum=INVALID;
  27:.\application.c **** uint8_t BondNum=BONDNUM;
  28:.\application.c **** uint8_t ReConnect=0;
  29:.\application.c **** //uint8 testAddr[]={0x8F,0xAA,0x1C,0x50,0xA0,0x00};
  30:.\application.c **** //uint8_t addrtype=0x00;
  31:.\application.c **** CYBLE_GAP_BD_ADDR_T Device[]={
  32:.\application.c ****     {
  33:.\application.c ****         {0xCB,0x83,0x6D,0x50,0xA0,0x00},
  34:.\application.c ****         0x00
  35:.\application.c ****     },//ËÆæÂ§á1
  36:.\application.c ****     {
  37:.\application.c ****         {0xA5,0x83,0x6D,0x50,0xA0,0x00},
  38:.\application.c ****         0x00
  39:.\application.c ****     },//ËÆæÂ§á2
  40:.\application.c ****     {
  41:.\application.c ****         {0x2F,0x84,0x6D,0x50,0xA0,0x00},
  42:.\application.c ****         0x00
  43:.\application.c ****     },//ËÆæÂ§á3
  44:.\application.c ****     {
  45:.\application.c ****         {0x25,0x84,0x6D,0x50,0xA0,0x00},
  46:.\application.c ****         0x00
  47:.\application.c ****     }//ËÆæÂ§á4
ARM GAS  C:\Users\ADMINI~1\AppData\Local\Temp\ccm0G0A3.s 			page 7


  48:.\application.c **** };
  49:.\application.c **** CYBLE_GAP_BD_ADDR_T TestDevice=
  50:.\application.c **** {
  51:.\application.c ****     {0x8F,0xAA,0x1C,0x50,0xA0,0x00},
  52:.\application.c ****     0x00
  53:.\application.c **** 
  54:.\application.c **** };
  55:.\application.c **** CYBLE_GAP_BD_ADDR_T Device1=
  56:.\application.c **** {
  57:.\application.c ****     {0xCB,0x83,0x6D,0x50,0xA0,0x00},
  58:.\application.c ****     0x00
  59:.\application.c **** 
  60:.\application.c **** };
  61:.\application.c **** 
  62:.\application.c **** CYBLE_GAP_BD_ADDR_T Device2=
  63:.\application.c **** {
  64:.\application.c ****     {0xA5,0x83,0x6D,0x50,0xA0,0x00},
  65:.\application.c ****     0x00
  66:.\application.c **** 
  67:.\application.c **** };
  68:.\application.c **** 
  69:.\application.c **** CYBLE_GAP_BD_ADDR_T Device3=
  70:.\application.c **** {
  71:.\application.c ****     {0x2F,0x84,0x6D,0x50,0xA0,0x00},
  72:.\application.c ****     0x00
  73:.\application.c **** 
  74:.\application.c **** };
  75:.\application.c **** 
  76:.\application.c **** CYBLE_GAP_BD_ADDR_T Device4=
  77:.\application.c **** {
  78:.\application.c ****     {0x25,0x84,0x6D,0x50,0xA0,0x00},
  79:.\application.c ****     0x00
  80:.\application.c **** 
  81:.\application.c **** };
  82:.\application.c **** 
  83:.\application.c **** CYBLE_GAP_BD_ADDR_T Device5=
  84:.\application.c **** {
  85:.\application.c ****     {0xD1,0x83,0x6D,0x50,0xA0,0x00},
  86:.\application.c ****     0x00
  87:.\application.c **** 
  88:.\application.c **** };
  89:.\application.c **** CYBLE_GATTC_WRITE_CMD_REQ_T WriteCmd=
  90:.\application.c **** {
  91:.\application.c ****     {
  92:.\application.c ****         NotifyValue,
  93:.\application.c ****         2,
  94:.\application.c ****         0
  95:.\application.c ****     },
  96:.\application.c ****     CYBLE_TROUGHPUT_SERVICE_TX_CLIENT_CHARACTERISTIC_CONFIGURATION_DESC_HANDLE
  97:.\application.c **** };//ÂàùÂßãÂåñÊâìÂºÄÈÄè‰º†ÈÄöÈÅìÁöÑÊï∞ÊçÆ
  98:.\application.c **** uint8_t THROUGH_STAUS=FALSE;
  99:.\application.c **** char* CommandList[]={"AT+SWT=1","AT+SWT=0","AT+ON_OFF=1","AT+ON_OFF=0"};//ÊéßÂà∂ÂëΩ‰ª§ÂàóË°®
 100:.\application.c **** //char* ReceviceCmdList[]={"AT+ON","AT+OFF"};
 101:.\application.c **** uint8_t CommandListLen=sizeof(CommandList)/sizeof(CommandList[0]);//ÊéßÂà∂ÂëΩ‰ª§ÂàóË°®ÁöÑÂëΩ‰ª§‰∏™Ê
 102:.\application.c **** uint8_t Buffer[BUFFERLEN]={0};//‰∏¥Êó∂Â≠òÊîæ‰ªéÊú∫ÈÄè‰º†Áªô‰∏ªÊú∫ÁöÑÊï∞ÊçÆ
 103:.\application.c **** uint8_t RX_ISOVER=FALSE;
 104:.\application.c **** uint8_t LOWPOWER;
ARM GAS  C:\Users\ADMINI~1\AppData\Local\Temp\ccm0G0A3.s 			page 8


 105:.\application.c **** uint8_t ALL_ON_OFF=FALSE;
 106:.\application.c **** uint8_t ButtonStatus=BUTTON_UP;
 107:.\application.c **** uint8_t DisonnectedStaus=FALSE;
 108:.\application.c **** //static uint8_t Switch_On_Off=SWTICH_OFF;
 109:.\application.c **** uint8_t ButtonType;
 110:.\application.c **** struct BT Button=
 111:.\application.c **** {
 112:.\application.c ****     SWTICH_OFF,
 113:.\application.c ****     SWTICH_OFF,
 114:.\application.c ****     SWTICH_OFF,
 115:.\application.c ****     SWTICH_OFF,
 116:.\application.c ****     SWTICH_OFF
 117:.\application.c **** };//ÂàùÂßãÂåñÊâÄÊúâÊåâÈîÆÈÉΩÊòØÊùæÂºÄÁöÑÁä∂ÊÄÅ
 118:.\application.c **** /* ****************************************
 119:.\application.c ****  * ÂêÑÂäüËÉΩÂáΩÊï∞Âú∞ÂÖ∑‰ΩìÂÆûÁé∞
 120:.\application.c ****  * ****************************************
 121:.\application.c **** */
 122:.\application.c **** 
 123:.\application.c **** 
 124:.\application.c **** /******************************************
 125:.\application.c ****   * @ÂáΩÊï∞ÂêçÔºöStackEventHandler
 126:.\application.c ****   * @ËæìÂÖ•Ôºö  eventCode---Ë°®Á§∫‰∏çÂêåÁöÑ‰∫ã‰ª∂
 127:.\application.c ****              eventParam---Ë°®Á§∫‰∏çÂêåÁöÑ‰∫ã‰ª∂ÊâÄÊê∫Â∏¶ÁöÑ‰∏çÂêåÂèÇÊï∞
 128:.\application.c ****   * @ËøîÂõûÔºö  NULL            
 129:.\application.c ****   * @ÊèèËø∞Ôºö  Â§ÑÁêÜBLEÂçèËÆÆÊ†à‰∫ßÁîüÁöÑ‰∏çÂêå‰∫ã‰ª∂
 130:.\application.c ****   *****************************************
 131:.\application.c **** */
 132:.\application.c **** void StackEventHandler(uint32 eventCode, void *eventParam)
 133:.\application.c **** {
 268              		.loc 1 133 0
 269              		.cfi_startproc
 270 0000 90B5     		push	{r4, r7, lr}
 271              		.cfi_def_cfa_offset 12
 272              		.cfi_offset 4, -12
 273              		.cfi_offset 7, -8
 274              		.cfi_offset 14, -4
 275 0002 8DB0     		sub	sp, sp, #52
 276              		.cfi_def_cfa_offset 64
 277 0004 00AF     		add	r7, sp, #0
 278              		.cfi_def_cfa_register 7
 279 0006 7860     		str	r0, [r7, #4]
 280 0008 3960     		str	r1, [r7]
 134:.\application.c ****     eventParam = eventParam;//Èò≤Ê≠¢ÁºñËØëÊó∂Âá∫Áé∞Ë≠¶Âëä 
 135:.\application.c **** //    CYBLE_API_RESULT_T API_RESULT;
 136:.\application.c ****     CYBLE_GATTC_HANDLE_VALUE_NTF_PARAM_T ReceviceNotifyValue;//Ëøô‰∏™ÊòØÂ≠òÊîæÊé•Êî∂‰ªéÊú∫ÂèëÈÄÅËøá
 137:.\application.c ****     CYBLE_GAPC_ADV_REPORT_T ScanResult;
 138:.\application.c ****     uint8_t i;
 139:.\application.c ****     switch(eventCode)
 281              		.loc 1 139 0
 282 000a 7B68     		ldr	r3, [r7, #4]
 283 000c 272B     		cmp	r3, #39
 284 000e 1AD0     		beq	.L3
 285 0010 08D8     		bhi	.L4
 286 0012 202B     		cmp	r3, #32
 287 0014 00D1     		bne	.LCB21
 288 0016 ADE0     		b	.L5	@long jump
 289              	.LCB21:
ARM GAS  C:\Users\ADMINI~1\AppData\Local\Temp\ccm0G0A3.s 			page 9


 290 0018 242B     		cmp	r3, #36
 291 001a 00D1     		bne	.LCB23
 292 001c B2E0     		b	.L6	@long jump
 293              	.LCB23:
 294 001e 012B     		cmp	r3, #1
 295 0020 0DD0     		beq	.L7
 140:.\application.c ****     {
 141:.\application.c ****         case CYBLE_EVT_STACK_ON://ËìùÁâôÂàùÂßãÂåñÂÆåÊàê    
 142:.\application.c ****               #ifdef PRINT
 143:.\application.c **** //                printf("BLE is Ready!\r\n");
 144:.\application.c **** //                while((UART_SpiUartGetTxBufferSize() + UART_GET_TX_FIFO_SR_VALID) != 0);//Á≠âÂæÖ‰
 145:.\application.c ****               #endif
 146:.\application.c ****             LOWPOWER=TURE;//‰∏äÁîµÂÆåÊàê‰πãÂêéÁ´ãÈ©¨ËøõÂÖ•Áù°Áú†Áä∂ÊÄÅ
 147:.\application.c ****         break;
 148:.\application.c ****         case CYBLE_EVT_GAP_DEVICE_CONNECTED://ËìùÁâôËøûÊé•ÊàêÂäü                
 149:.\application.c ****               #ifdef PRINT
 150:.\application.c ****                 printf("BLE is Connectted!\r\n");
 151:.\application.c **** //                while((UART_SpiUartGetTxBufferSize() + UART_GET_TX_FIFO_SR_VALID) != 0);//Á≠âÂæÖ‰
 152:.\application.c ****               #endif
 153:.\application.c **** //            CyBle_GapAuthReq(cyBle_connHandle.bdHandle,&cyBle_authInfo);//‰∏ªÊú∫‰∏ÄÊó¶Âª∫Á´ãËøûÊé
 154:.\application.c ****             WriteCmd.attrHandle = CYBLE_TROUGHPUT_SERVICE_TX_CLIENT_CHARACTERISTIC_CONFIGURATION_DE
 155:.\application.c ****             WriteCmd.value.val = NotifyValue;
 156:.\application.c ****             WriteCmd.value.len = 2;
 157:.\application.c ****             CyBle_GattcWriteWithoutResponse(cyBle_connHandle, &WriteCmd);//ÊâìÂºÄÈÄè‰º†ÈÄöÈÅì      
 158:.\application.c ****         break;
 159:.\application.c ****         case CYBLE_EVT_GAP_DEVICE_DISCONNECTED://ËìùÁâôÊñ≠ÂºÄÊàêÂäü
 160:.\application.c ****               #ifdef PRINT
 161:.\application.c ****                 printf("DisConnectted Resason is %02X!\r\n",*((uint8 *)eventParam));
 162:.\application.c ****                 while((UART_SpiUartGetTxBufferSize() + UART_GET_TX_FIFO_SR_VALID) != 0);//Á≠âÂæÖ‰∏≤
 163:.\application.c ****               #endif
 164:.\application.c ****             if(*((uint8 *)eventParam) != 0x16)//Â¶ÇÊûú‰∏çÊòØÊ≠£Â∏∏Êñ≠ÂºÄËøûÊé•ÔºåÂàôÈáçËøûËøôÊ¨°Ëøû
 165:.\application.c ****             {                
 166:.\application.c ****                 ReConnect++;
 167:.\application.c ****                 if(ReConnect > RECONNTNUM)//Â¶ÇÊûúÈáçËøû‰∫Ü5Ê¨°ÈÉΩÊ≤°ÊúâËøûÊé•ÊàêÂäüÔºåÈÇ£‰πà‰∏ç‰ºö
 168:.\application.c ****                 {
 169:.\application.c ****                     ReConnect = 0;                    
 170:.\application.c ****                 }
 171:.\application.c ****                 else//Â¶ÇÊûúÈáçËøûÊ¨°Êï∞Ê≤°ÊúâÂ§ß‰∫é5ÔºåÈÇ£‰πàÁªßÁª≠ÈáçËøûÁõ¥Ëá≥ÈáçËøûÂà∞5Ê¨°Êâç‰∏ç
 172:.\application.c ****                 {
 173:.\application.c ****                     DeviceCounts--;
 174:.\application.c ****                 }
 175:.\application.c ****                 CyDelay(150);//Á≠âÂæÖ150msÊòØ‰∏∫‰∫ÜÈáçËøûÊó∂Êõ¥ÂÆπÊòìÈáçÊñ∞Âª∫Á´ãËøûÊé•
 176:.\application.c ****             }
 177:.\application.c ****             else//Â¶ÇÊûúÊòØÊ≠£Â∏∏Êñ≠ÂºÄËøûÊé•ÔºåÂàô‰∏çÁî®ÈáçËøû
 178:.\application.c ****             {
 179:.\application.c ****                 ReConnect = 0;
 180:.\application.c ****             }
 181:.\application.c ****             DisonnectedStaus = TURE;
 182:.\application.c ****             if(FALSE == ALL_ON_OFF)
 183:.\application.c ****                 LOWPOWER=TURE;//Êñ≠ÂºÄ‰πãÂêéÔºå‰∏ªÊú∫È©¨‰∏äËøõÂÖ•‰ΩéÂäüËÄó
 184:.\application.c **** //            CyBle_GappStartAdvertisement(CYBLE_ADVERTISING_FAST);//Êñ≠ÂºÄËøûÊé•‰πãÂêé‰πüÁ´ãÈ©¨Âèë
 185:.\application.c **** //            THROUGH_STAUS=FALSE;
 186:.\application.c ****         break;
 187:.\application.c ****         case CYBLE_EVT_GATTS_WRITE_CMD_REQ://Â§ÑÁêÜ‰∏ªÊú∫ÂèëËµ∑ÁöÑÂÜôÂëΩ‰ª§ËØ∑Ê±Ç
 188:.\application.c **** //            WriteCmd = *((CYBLE_GATTS_WRITE_CMD_REQ_PARAM_T *)eventParam);
 189:.\application.c **** //            if(WriteCmd.handleValPair.attrHandle == CYBLE_TROUGHPUT_SERVICE_TX_CLIENT_CHARACTERIS
 190:.\application.c **** //            {
ARM GAS  C:\Users\ADMINI~1\AppData\Local\Temp\ccm0G0A3.s 			page 10


 191:.\application.c **** //                if(WriteCmd.handleValPair.value.val[0] == 0x01)
 192:.\application.c **** //                {
 193:.\application.c **** //                    THROUGH_STAUS=TURE;//‰ΩøËÉΩÈÄè‰º†ÈÄöÈÅìÊàêÂäü,‰ªéÊú∫ÂèØ‰ª•Áªô‰∏ªÊú∫ÈÄè‰º†Êï∞Ê
 194:.\application.c **** ////                    ServiceToClient((uint8_t*)"Helon Test",sizeof("Helon Test"));
 195:.\application.c **** //                }
 196:.\application.c **** //                else
 197:.\application.c **** //                {
 198:.\application.c **** //                    THROUGH_STAUS=FALSE;//ÂÖ≥Èó≠ÈÄè‰º†ÈÄöÈÅì
 199:.\application.c **** //                }
 200:.\application.c **** //            }
 201:.\application.c **** //            else if(WriteCmd.handleValPair.attrHandle == CYBLE_TROUGHPUT_SERVICE_RX_CHAR_HANDLE)/
 202:.\application.c **** //            {
 203:.\application.c **** //                for(i=0;i<WriteCmd.handleValPair.value.len;i++)
 204:.\application.c **** //                {
 205:.\application.c **** //                    Buffer[i] = WriteCmd.handleValPair.value.val[i];//Â≠òÊîæ‰∏ªÊú∫ÈÄè‰º†Áªô‰ªéÊú∫
 206:.\application.c **** //                }
 207:.\application.c **** //                RX_ISOVER=TURE;
 208:.\application.c **** //            }
 209:.\application.c ****         break;
 210:.\application.c ****         case CYBLE_EVT_GATTS_WRITE_REQ://Â§ÑÁêÜ‰∏ªÊú∫ÂèëËµ∑ÁöÑÂÜôËØ∑Ê±Ç
 211:.\application.c **** //            WriteValue = *((CYBLE_GATTS_WRITE_REQ_PARAM_T *)eventParam);
 212:.\application.c **** //            WriteValue = WriteValue;
 213:.\application.c **** ////            if(WriteValue.handleValPair.attrHandle == CYBLE_TROUGHPUT_SERVICE_TX_CLIENT_CHARACT
 214:.\application.c **** ////            {
 215:.\application.c **** ////                if(WriteValue.handleValPair.value.val[0] == 0x01)
 216:.\application.c **** ////                {
 217:.\application.c **** ////                    THROUGH_STAUS=TURE;//‰ΩøËÉΩÈÄè‰º†ÈÄöÈÅìÊàêÂäü,‰ªéÊú∫ÂèØ‰ª•Áªô‰∏ªÊú∫ÈÄè‰º†Êï
 218:.\application.c **** //////                    ServiceToClient((uint8_t*)"Helon Test",sizeof("Helon Test"));
 219:.\application.c **** ////                }
 220:.\application.c **** ////                else
 221:.\application.c **** ////                {
 222:.\application.c **** ////                    THROUGH_STAUS=FALSE;//ÂÖ≥Èó≠ÈÄè‰º†ÈÄöÈÅì
 223:.\application.c **** ////                }
 224:.\application.c **** ////            }
 225:.\application.c **** //            CyBle_GattsWriteRsp(cyBle_connHandle);//ÂÜôÂìçÂ∫î
 226:.\application.c ****         break; 
 227:.\application.c ****         case CYBLE_EVT_GATTC_HANDLE_VALUE_NTF:
 228:.\application.c ****             ReceviceNotifyValue = *((CYBLE_GATTC_HANDLE_VALUE_NTF_PARAM_T *)eventParam);
 229:.\application.c ****             if(ReceviceNotifyValue.handleValPair.attrHandle == CYBLE_TROUGHPUT_SERVICE_TX_CHAR_HAND
 230:.\application.c ****             {
 231:.\application.c ****                 for(i=0;i<ReceviceNotifyValue.handleValPair.value.len;i++)
 232:.\application.c ****                 {
 233:.\application.c ****                     Buffer[i] = ReceviceNotifyValue.handleValPair.value.val[i];
 234:.\application.c ****                 } 
 235:.\application.c ****                 RX_ISOVER=TURE;
 236:.\application.c ****                 #ifdef PRINT
 237:.\application.c ****                     printf("Recevice From Server!\r\n");
 238:.\application.c ****     //                while((UART_SpiUartGetTxBufferSize() + UART_GET_TX_FIFO_SR_VALID) != 0);//Á≠â
 239:.\application.c ****                 #endif    
 240:.\application.c ****                 
 241:.\application.c ****             }
 242:.\application.c ****                             
 243:.\application.c ****         break;
 244:.\application.c ****         case CYBLE_EVT_GAPC_SCAN_PROGRESS_RESULT:
 245:.\application.c ****             ScanResult = *((CYBLE_GAPC_ADV_REPORT_T *)eventParam);            
 246:.\application.c ****         break;     
 247:.\application.c ****         case CYBLE_EVT_GAP_AUTH_COMPLETE:
ARM GAS  C:\Users\ADMINI~1\AppData\Local\Temp\ccm0G0A3.s 			page 11


 248:.\application.c ****             #ifdef PRINT
 249:.\application.c ****                     printf("Bond is Compelete!\r\n");
 250:.\application.c ****                     while((UART_SpiUartGetTxBufferSize() + UART_GET_TX_FIFO_SR_VALID) != 0);//Á≠âÂæ
 251:.\application.c ****                 #endif 
 252:.\application.c ****         break;
 253:.\application.c ****         default:
 254:.\application.c ****         break;
 296              		.loc 1 254 0
 297 0022 C7E0     		b	.L1
 298              	.L4:
 139:.\application.c ****     {
 299              		.loc 1 139 0
 300 0024 4C2B     		cmp	r3, #76
 301 0026 00D1     		bne	.LCB31
 302 0028 C1E0     		b	.L28	@long jump
 303              	.LCB31:
 304 002a 02D8     		bhi	.L9
 305 002c 282B     		cmp	r3, #40
 306 002e 27D0     		beq	.L10
 307              		.loc 1 254 0
 308 0030 C0E0     		b	.L1
 309              	.L9:
 139:.\application.c ****     {
 310              		.loc 1 139 0
 311 0032 4E2B     		cmp	r3, #78
 312 0034 00D1     		bne	.LCB41
 313 0036 BCE0     		b	.L29	@long jump
 314              	.LCB41:
 315 0038 522B     		cmp	r3, #82
 316 003a 64D0     		beq	.L12
 317              		.loc 1 254 0
 318 003c BAE0     		b	.L1
 319              	.L7:
 146:.\application.c ****         break;
 320              		.loc 1 146 0
 321 003e 5F4B     		ldr	r3, .L30
 322 0040 0122     		mov	r2, #1
 323 0042 1A70     		strb	r2, [r3]
 147:.\application.c ****         case CYBLE_EVT_GAP_DEVICE_CONNECTED://ËìùÁâôËøûÊé•ÊàêÂäü                
 324              		.loc 1 147 0
 325 0044 B6E0     		b	.L1
 326              	.L3:
 150:.\application.c **** //                while((UART_SpiUartGetTxBufferSize() + UART_GET_TX_FIFO_SR_VALID) != 0);//Á≠âÂæÖ‰
 327              		.loc 1 150 0
 328 0046 5E4B     		ldr	r3, .L30+4
 329 0048 181C     		mov	r0, r3
 330 004a FFF7FEFF 		bl	puts
 154:.\application.c ****             WriteCmd.value.val = NotifyValue;
 331              		.loc 1 154 0
 332 004e 5D4B     		ldr	r3, .L30+8
 333 0050 1122     		mov	r2, #17
 334 0052 1A81     		strh	r2, [r3, #8]
 155:.\application.c ****             WriteCmd.value.len = 2;
 335              		.loc 1 155 0
 336 0054 5B4B     		ldr	r3, .L30+8
 337 0056 5C4A     		ldr	r2, .L30+12
 338 0058 1A60     		str	r2, [r3]
ARM GAS  C:\Users\ADMINI~1\AppData\Local\Temp\ccm0G0A3.s 			page 12


 156:.\application.c ****             CyBle_GattcWriteWithoutResponse(cyBle_connHandle, &WriteCmd);//ÊâìÂºÄÈÄè‰º†ÈÄöÈÅì      
 339              		.loc 1 156 0
 340 005a 5A4B     		ldr	r3, .L30+8
 341 005c 0222     		mov	r2, #2
 342 005e 9A80     		strh	r2, [r3, #4]
 157:.\application.c ****         break;
 343              		.loc 1 157 0
 344 0060 5A4B     		ldr	r3, .L30+16
 345 0062 5849     		ldr	r1, .L30+8
 346 0064 1A78     		ldrb	r2, [r3]
 347 0066 5B78     		ldrb	r3, [r3, #1]
 348 0068 1B02     		lsl	r3, r3, #8
 349 006a 1A43     		orr	r2, r3
 350 006c 0023     		mov	r3, #0
 351 006e 1204     		lsl	r2, r2, #16
 352 0070 120C     		lsr	r2, r2, #16
 353 0072 1B0C     		lsr	r3, r3, #16
 354 0074 1B04     		lsl	r3, r3, #16
 355 0076 1343     		orr	r3, r2
 356 0078 181C     		mov	r0, r3
 357 007a FFF7FEFF 		bl	CyBle_GattcWriteWithoutResponse
 158:.\application.c ****         case CYBLE_EVT_GAP_DEVICE_DISCONNECTED://ËìùÁâôÊñ≠ÂºÄÊàêÂäü
 358              		.loc 1 158 0
 359 007e 99E0     		b	.L1
 360              	.L10:
 161:.\application.c ****                 while((UART_SpiUartGetTxBufferSize() + UART_GET_TX_FIFO_SR_VALID) != 0);//Á≠âÂæÖ‰∏≤
 361              		.loc 1 161 0
 362 0080 3B68     		ldr	r3, [r7]
 363 0082 1B78     		ldrb	r3, [r3]
 364 0084 1A1C     		mov	r2, r3
 365 0086 524B     		ldr	r3, .L30+20
 366 0088 181C     		mov	r0, r3
 367 008a 111C     		mov	r1, r2
 368 008c FFF7FEFF 		bl	printf
 162:.\application.c ****               #endif
 369              		.loc 1 162 0
 370 0090 C046     		mov	r8, r8
 371              	.L16:
 162:.\application.c ****               #endif
 372              		.loc 1 162 0 is_stmt 0 discriminator 5
 373 0092 FFF7FEFF 		bl	UART_SpiUartGetTxBufferSize
 374 0096 011C     		mov	r1, r0
 375 0098 4E4B     		ldr	r3, .L30+24
 376 009a 1A68     		ldr	r2, [r3]
 377 009c 8023     		mov	r3, #128
 378 009e 1B02     		lsl	r3, r3, #8
 379 00a0 1340     		and	r3, r2
 380 00a2 01D0     		beq	.L14
 162:.\application.c ****               #endif
 381              		.loc 1 162 0 discriminator 1
 382 00a4 0123     		mov	r3, #1
 383 00a6 00E0     		b	.L15
 384              	.L14:
 162:.\application.c ****               #endif
 385              		.loc 1 162 0 discriminator 2
 386 00a8 0023     		mov	r3, #0
 387              	.L15:
ARM GAS  C:\Users\ADMINI~1\AppData\Local\Temp\ccm0G0A3.s 			page 13


 162:.\application.c ****               #endif
 388              		.loc 1 162 0 discriminator 4
 389 00aa CB18     		add	r3, r1, r3
 390 00ac 002B     		cmp	r3, #0
 391 00ae F0D1     		bne	.L16
 164:.\application.c ****             {                
 392              		.loc 1 164 0 is_stmt 1
 393 00b0 3B68     		ldr	r3, [r7]
 394 00b2 1B78     		ldrb	r3, [r3]
 395 00b4 162B     		cmp	r3, #22
 396 00b6 17D0     		beq	.L17
 166:.\application.c ****                 if(ReConnect > RECONNTNUM)//Â¶ÇÊûúÈáçËøû‰∫Ü5Ê¨°ÈÉΩÊ≤°ÊúâËøûÊé•ÊàêÂäüÔºåÈÇ£‰πà‰∏ç‰ºö
 397              		.loc 1 166 0
 398 00b8 474B     		ldr	r3, .L30+28
 399 00ba 1B78     		ldrb	r3, [r3]
 400 00bc 0133     		add	r3, r3, #1
 401 00be DAB2     		uxtb	r2, r3
 402 00c0 454B     		ldr	r3, .L30+28
 403 00c2 1A70     		strb	r2, [r3]
 167:.\application.c ****                 {
 404              		.loc 1 167 0
 405 00c4 444B     		ldr	r3, .L30+28
 406 00c6 1B78     		ldrb	r3, [r3]
 407 00c8 052B     		cmp	r3, #5
 408 00ca 03D9     		bls	.L18
 169:.\application.c ****                 }
 409              		.loc 1 169 0
 410 00cc 424B     		ldr	r3, .L30+28
 411 00ce 0022     		mov	r2, #0
 412 00d0 1A70     		strb	r2, [r3]
 413 00d2 05E0     		b	.L19
 414              	.L18:
 173:.\application.c ****                 }
 415              		.loc 1 173 0
 416 00d4 414B     		ldr	r3, .L30+32
 417 00d6 1B78     		ldrb	r3, [r3]
 418 00d8 013B     		sub	r3, r3, #1
 419 00da DAB2     		uxtb	r2, r3
 420 00dc 3F4B     		ldr	r3, .L30+32
 421 00de 1A70     		strb	r2, [r3]
 422              	.L19:
 175:.\application.c ****             }
 423              		.loc 1 175 0
 424 00e0 9620     		mov	r0, #150
 425 00e2 FFF7FEFF 		bl	CyDelay
 426 00e6 02E0     		b	.L20
 427              	.L17:
 179:.\application.c ****             }
 428              		.loc 1 179 0
 429 00e8 3B4B     		ldr	r3, .L30+28
 430 00ea 0022     		mov	r2, #0
 431 00ec 1A70     		strb	r2, [r3]
 432              	.L20:
 181:.\application.c ****             if(FALSE == ALL_ON_OFF)
 433              		.loc 1 181 0
 434 00ee 3C4B     		ldr	r3, .L30+36
 435 00f0 0122     		mov	r2, #1
ARM GAS  C:\Users\ADMINI~1\AppData\Local\Temp\ccm0G0A3.s 			page 14


 436 00f2 1A70     		strb	r2, [r3]
 182:.\application.c ****                 LOWPOWER=TURE;//Êñ≠ÂºÄ‰πãÂêéÔºå‰∏ªÊú∫È©¨‰∏äËøõÂÖ•‰ΩéÂäüËÄó
 437              		.loc 1 182 0
 438 00f4 3B4B     		ldr	r3, .L30+40
 439 00f6 1B78     		ldrb	r3, [r3]
 440 00f8 002B     		cmp	r3, #0
 441 00fa 03D1     		bne	.L21
 183:.\application.c **** //            CyBle_GappStartAdvertisement(CYBLE_ADVERTISING_FAST);//Êñ≠ÂºÄËøûÊé•‰πãÂêé‰πüÁ´ãÈ©¨Âèë
 442              		.loc 1 183 0
 443 00fc 2F4B     		ldr	r3, .L30
 444 00fe 0122     		mov	r2, #1
 445 0100 1A70     		strb	r2, [r3]
 186:.\application.c ****         case CYBLE_EVT_GATTS_WRITE_CMD_REQ://Â§ÑÁêÜ‰∏ªÊú∫ÂèëËµ∑ÁöÑÂÜôÂëΩ‰ª§ËØ∑Ê±Ç
 446              		.loc 1 186 0
 447 0102 57E0     		b	.L1
 448              	.L21:
 449 0104 56E0     		b	.L1
 450              	.L12:
 228:.\application.c ****             if(ReceviceNotifyValue.handleValPair.attrHandle == CYBLE_TROUGHPUT_SERVICE_TX_CHAR_HAND
 451              		.loc 1 228 0
 452 0106 1C23     		mov	r3, #28
 453 0108 FB18     		add	r3, r7, r3
 454 010a 3A68     		ldr	r2, [r7]
 455 010c 13CA     		ldmia	r2!, {r0, r1, r4}
 456 010e 13C3     		stmia	r3!, {r0, r1, r4}
 457 0110 1268     		ldr	r2, [r2]
 458 0112 1A60     		str	r2, [r3]
 229:.\application.c ****             {
 459              		.loc 1 229 0
 460 0114 1C23     		mov	r3, #28
 461 0116 FB18     		add	r3, r7, r3
 462 0118 9B89     		ldrh	r3, [r3, #12]
 463 011a 102B     		cmp	r3, #16
 464 011c 29D1     		bne	.L22
 231:.\application.c ****                 {
 465              		.loc 1 231 0
 466 011e 2F23     		mov	r3, #47
 467 0120 FB18     		add	r3, r7, r3
 468 0122 0022     		mov	r2, #0
 469 0124 1A70     		strb	r2, [r3]
 470 0126 13E0     		b	.L23
 471              	.L24:
 233:.\application.c ****                 } 
 472              		.loc 1 233 0 discriminator 3
 473 0128 2F23     		mov	r3, #47
 474 012a FB18     		add	r3, r7, r3
 475 012c 1A78     		ldrb	r2, [r3]
 476 012e 1C23     		mov	r3, #28
 477 0130 FB18     		add	r3, r7, r3
 478 0132 5968     		ldr	r1, [r3, #4]
 479 0134 2F23     		mov	r3, #47
 480 0136 FB18     		add	r3, r7, r3
 481 0138 1B78     		ldrb	r3, [r3]
 482 013a CB18     		add	r3, r1, r3
 483 013c 1978     		ldrb	r1, [r3]
 484 013e 2A4B     		ldr	r3, .L30+44
 485 0140 9954     		strb	r1, [r3, r2]
ARM GAS  C:\Users\ADMINI~1\AppData\Local\Temp\ccm0G0A3.s 			page 15


 231:.\application.c ****                 {
 486              		.loc 1 231 0 discriminator 3
 487 0142 2F23     		mov	r3, #47
 488 0144 FB18     		add	r3, r7, r3
 489 0146 1A78     		ldrb	r2, [r3]
 490 0148 2F23     		mov	r3, #47
 491 014a FB18     		add	r3, r7, r3
 492 014c 0132     		add	r2, r2, #1
 493 014e 1A70     		strb	r2, [r3]
 494              	.L23:
 231:.\application.c ****                 {
 495              		.loc 1 231 0 is_stmt 0 discriminator 1
 496 0150 2F23     		mov	r3, #47
 497 0152 FB18     		add	r3, r7, r3
 498 0154 1B78     		ldrb	r3, [r3]
 499 0156 9AB2     		uxth	r2, r3
 500 0158 1C23     		mov	r3, #28
 501 015a FB18     		add	r3, r7, r3
 502 015c 1B89     		ldrh	r3, [r3, #8]
 503 015e 9A42     		cmp	r2, r3
 504 0160 E2D3     		bcc	.L24
 235:.\application.c ****                 #ifdef PRINT
 505              		.loc 1 235 0 is_stmt 1
 506 0162 224B     		ldr	r3, .L30+48
 507 0164 0122     		mov	r2, #1
 508 0166 1A70     		strb	r2, [r3]
 237:.\application.c ****     //                while((UART_SpiUartGetTxBufferSize() + UART_GET_TX_FIFO_SR_VALID) != 0);//Á≠â
 509              		.loc 1 237 0
 510 0168 214B     		ldr	r3, .L30+52
 511 016a 181C     		mov	r0, r3
 512 016c FFF7FEFF 		bl	puts
 243:.\application.c ****         case CYBLE_EVT_GAPC_SCAN_PROGRESS_RESULT:
 513              		.loc 1 243 0
 514 0170 20E0     		b	.L1
 515              	.L22:
 243:.\application.c ****         case CYBLE_EVT_GAPC_SCAN_PROGRESS_RESULT:
 516              		.loc 1 243 0 is_stmt 0 discriminator 4
 517 0172 1FE0     		b	.L1
 518              	.L5:
 245:.\application.c ****         break;     
 519              		.loc 1 245 0 is_stmt 1
 520 0174 0823     		mov	r3, #8
 521 0176 FB18     		add	r3, r7, r3
 522 0178 3A68     		ldr	r2, [r7]
 523 017a 13CA     		ldmia	r2!, {r0, r1, r4}
 524 017c 13C3     		stmia	r3!, {r0, r1, r4}
 525 017e 03CA     		ldmia	r2!, {r0, r1}
 526 0180 03C3     		stmia	r3!, {r0, r1}
 246:.\application.c ****         case CYBLE_EVT_GAP_AUTH_COMPLETE:
 527              		.loc 1 246 0
 528 0182 17E0     		b	.L1
 529              	.L6:
 249:.\application.c ****                     while((UART_SpiUartGetTxBufferSize() + UART_GET_TX_FIFO_SR_VALID) != 0);//Á≠âÂæ
 530              		.loc 1 249 0
 531 0184 1B4B     		ldr	r3, .L30+56
 532 0186 181C     		mov	r0, r3
 533 0188 FFF7FEFF 		bl	puts
ARM GAS  C:\Users\ADMINI~1\AppData\Local\Temp\ccm0G0A3.s 			page 16


 250:.\application.c ****                 #endif 
 534              		.loc 1 250 0
 535 018c C046     		mov	r8, r8
 536              	.L27:
 250:.\application.c ****                 #endif 
 537              		.loc 1 250 0 is_stmt 0 discriminator 5
 538 018e FFF7FEFF 		bl	UART_SpiUartGetTxBufferSize
 539 0192 011C     		mov	r1, r0
 540 0194 0F4B     		ldr	r3, .L30+24
 541 0196 1A68     		ldr	r2, [r3]
 542 0198 8023     		mov	r3, #128
 543 019a 1B02     		lsl	r3, r3, #8
 544 019c 1340     		and	r3, r2
 545 019e 01D0     		beq	.L25
 250:.\application.c ****                 #endif 
 546              		.loc 1 250 0 discriminator 1
 547 01a0 0123     		mov	r3, #1
 548 01a2 00E0     		b	.L26
 549              	.L25:
 250:.\application.c ****                 #endif 
 550              		.loc 1 250 0 discriminator 2
 551 01a4 0023     		mov	r3, #0
 552              	.L26:
 250:.\application.c ****                 #endif 
 553              		.loc 1 250 0 discriminator 4
 554 01a6 CB18     		add	r3, r1, r3
 555 01a8 002B     		cmp	r3, #0
 556 01aa F0D1     		bne	.L27
 252:.\application.c ****         default:
 557              		.loc 1 252 0 is_stmt 1 discriminator 5
 558 01ac 02E0     		b	.L1
 559              	.L28:
 226:.\application.c ****         case CYBLE_EVT_GATTC_HANDLE_VALUE_NTF:
 560              		.loc 1 226 0
 561 01ae C046     		mov	r8, r8
 562 01b0 00E0     		b	.L1
 563              	.L29:
 209:.\application.c ****         case CYBLE_EVT_GATTS_WRITE_REQ://Â§ÑÁêÜ‰∏ªÊú∫ÂèëËµ∑ÁöÑÂÜôËØ∑Ê±Ç
 564              		.loc 1 209 0
 565 01b2 C046     		mov	r8, r8
 566              	.L1:
 255:.\application.c ****             
 256:.\application.c ****     }
 257:.\application.c **** }
 567              		.loc 1 257 0
 568 01b4 BD46     		mov	sp, r7
 569 01b6 0DB0     		add	sp, sp, #52
 570              		@ sp needed
 571 01b8 90BD     		pop	{r4, r7, pc}
 572              	.L31:
 573 01ba C046     		.align	2
 574              	.L30:
 575 01bc 00000000 		.word	LOWPOWER
 576 01c0 30000000 		.word	.LC5
 577 01c4 00000000 		.word	WriteCmd
 578 01c8 00000000 		.word	NotifyValue
 579 01cc 00000000 		.word	cyBle_connHandle
ARM GAS  C:\Users\ADMINI~1\AppData\Local\Temp\ccm0G0A3.s 			page 17


 580 01d0 44000000 		.word	.LC10
 581 01d4 08022440 		.word	1076101640
 582 01d8 00000000 		.word	ReConnect
 583 01dc 00000000 		.word	DeviceCounts
 584 01e0 00000000 		.word	DisonnectedStaus
 585 01e4 00000000 		.word	ALL_ON_OFF
 586 01e8 00000000 		.word	Buffer
 587 01ec 00000000 		.word	RX_ISOVER
 588 01f0 68000000 		.word	.LC18
 589 01f4 80000000 		.word	.LC20
 590              		.cfi_endproc
 591              	.LFE37:
 592              		.size	StackEventHandler, .-StackEventHandler
 593              		.section	.text.General_discovery_mode_Init,"ax",%progbits
 594              		.align	2
 595              		.global	General_discovery_mode_Init
 596              		.code	16
 597              		.thumb_func
 598              		.type	General_discovery_mode_Init, %function
 599              	General_discovery_mode_Init:
 600              	.LFB38:
 258:.\application.c **** 
 259:.\application.c **** /******************************************
 260:.\application.c ****   * @ÂáΩÊï∞ÂêçÔºöGeneral_discovery_mode_Init
 261:.\application.c ****   * @ËæìÂÖ•Ôºö  NULL             
 262:.\application.c ****   * @ËøîÂõûÔºö  NULL            
 263:.\application.c ****   * @ÊèèËø∞Ôºö  ÈÄöÁî®ÂèëÁé∞ÁöÑÂπøÊí≠Ê®°ÂºèÂàùÂßãÂåñ
 264:.\application.c ****   *****************************************
 265:.\application.c **** */
 266:.\application.c **** void General_discovery_mode_Init(void)
 267:.\application.c **** {
 601              		.loc 1 267 0
 602              		.cfi_startproc
 603 0000 80B5     		push	{r7, lr}
 604              		.cfi_def_cfa_offset 8
 605              		.cfi_offset 7, -8
 606              		.cfi_offset 14, -4
 607 0002 00AF     		add	r7, sp, #0
 608              		.cfi_def_cfa_register 7
 268:.\application.c ****     
 269:.\application.c **** }
 609              		.loc 1 269 0
 610 0004 BD46     		mov	sp, r7
 611              		@ sp needed
 612 0006 80BD     		pop	{r7, pc}
 613              		.cfi_endproc
 614              	.LFE38:
 615              		.size	General_discovery_mode_Init, .-General_discovery_mode_Init
 616              		.section	.text.Limited_discovery_mode_Init,"ax",%progbits
 617              		.align	2
 618              		.global	Limited_discovery_mode_Init
 619              		.code	16
 620              		.thumb_func
 621              		.type	Limited_discovery_mode_Init, %function
 622              	Limited_discovery_mode_Init:
 623              	.LFB39:
 270:.\application.c **** 
ARM GAS  C:\Users\ADMINI~1\AppData\Local\Temp\ccm0G0A3.s 			page 18


 271:.\application.c **** /******************************************
 272:.\application.c ****   * @ÂáΩÊï∞ÂêçÔºöLimited_discovery_mode_Init
 273:.\application.c ****   * @ËæìÂÖ•Ôºö  NULL             
 274:.\application.c ****   * @ËøîÂõûÔºö  NULL            
 275:.\application.c ****   * @ÊèèËø∞Ôºö  ÈôêÂà∂ÂèëÁé∞ÁöÑÂπøÊí≠Ê®°ÂºèÂàùÂßãÂåñ
 276:.\application.c ****   *****************************************
 277:.\application.c **** */
 278:.\application.c **** void Limited_discovery_mode_Init(void)
 279:.\application.c **** {
 624              		.loc 1 279 0
 625              		.cfi_startproc
 626 0000 80B5     		push	{r7, lr}
 627              		.cfi_def_cfa_offset 8
 628              		.cfi_offset 7, -8
 629              		.cfi_offset 14, -4
 630 0002 00AF     		add	r7, sp, #0
 631              		.cfi_def_cfa_register 7
 280:.\application.c ****     
 281:.\application.c **** }
 632              		.loc 1 281 0
 633 0004 BD46     		mov	sp, r7
 634              		@ sp needed
 635 0006 80BD     		pop	{r7, pc}
 636              		.cfi_endproc
 637              	.LFE39:
 638              		.size	Limited_discovery_mode_Init, .-Limited_discovery_mode_Init
 639              		.section	.text.Discovery_mode_Init,"ax",%progbits
 640              		.align	2
 641              		.global	Discovery_mode_Init
 642              		.code	16
 643              		.thumb_func
 644              		.type	Discovery_mode_Init, %function
 645              	Discovery_mode_Init:
 646              	.LFB40:
 282:.\application.c **** 
 283:.\application.c **** /******************************************
 284:.\application.c ****   * @ÂáΩÊï∞ÂêçÔºöDiscovery_mode_Init
 285:.\application.c ****   * @ËæìÂÖ•Ôºö  NULL             
 286:.\application.c ****   * @ËøîÂõûÔºö  NULL            
 287:.\application.c ****   * @ÊèèËø∞Ôºö  ÂèëÁé∞Ê®°ÂùóÁöÑÂàùÂßãÂåñ
 288:.\application.c ****   *****************************************
 289:.\application.c **** */
 290:.\application.c **** void Discovery_mode_Init(void)
 291:.\application.c **** {
 647              		.loc 1 291 0
 648              		.cfi_startproc
 649 0000 80B5     		push	{r7, lr}
 650              		.cfi_def_cfa_offset 8
 651              		.cfi_offset 7, -8
 652              		.cfi_offset 14, -4
 653 0002 00AF     		add	r7, sp, #0
 654              		.cfi_def_cfa_register 7
 292:.\application.c **** //    cyBle_discoveryModeInfo.advTo=0x00;//ÂπøÊí≠Ê≤°ÊúâË∂ÖÊó∂
 293:.\application.c **** //    CyBle_GapGetBondedDevicesList(&BondList);//Ëé∑ÂèñÁªëÂÆöËÆæÂ§áÁöÑ‰ø°ÊÅØ
 294:.\application.c ****     
 295:.\application.c **** }
 655              		.loc 1 295 0
ARM GAS  C:\Users\ADMINI~1\AppData\Local\Temp\ccm0G0A3.s 			page 19


 656 0004 BD46     		mov	sp, r7
 657              		@ sp needed
 658 0006 80BD     		pop	{r7, pc}
 659              		.cfi_endproc
 660              	.LFE40:
 661              		.size	Discovery_mode_Init, .-Discovery_mode_Init
 662              		.section	.text.ServiceToClient,"ax",%progbits
 663              		.align	2
 664              		.global	ServiceToClient
 665              		.code	16
 666              		.thumb_func
 667              		.type	ServiceToClient, %function
 668              	ServiceToClient:
 669              	.LFB41:
 296:.\application.c **** 
 297:.\application.c **** /******************************************
 298:.\application.c ****   * @ÂáΩÊï∞ÂêçÔºöServiceToClient
 299:.\application.c ****   * @ËæìÂÖ•Ôºö  TxData---ÊåáÂêëÈúÄË¶ÅÈÄè‰º†ÁöÑÊï∞ÊçÆÁöÑÈ¶ñ‰ΩçÂú∞ÂùÄ 
 300:.\application.c ****              Len---ÊâÄÂèëÈÄÅÁöÑÊï∞ÊçÆÈïøÂ∫¶
 301:.\application.c ****   * @ËøîÂõûÔºö  NULL            
 302:.\application.c ****   * @ÊèèËø∞Ôºö  ‰ªéÊú∫Áªô‰∏ªÊú∫ÈÄè‰º†Êï∞ÊçÆ
 303:.\application.c ****   *****************************************
 304:.\application.c **** */
 305:.\application.c **** void ServiceToClient(char* TxData,uint16_t Len)
 306:.\application.c **** {   
 670              		.loc 1 306 0
 671              		.cfi_startproc
 672 0000 80B5     		push	{r7, lr}
 673              		.cfi_def_cfa_offset 8
 674              		.cfi_offset 7, -8
 675              		.cfi_offset 14, -4
 676 0002 82B0     		sub	sp, sp, #8
 677              		.cfi_def_cfa_offset 16
 678 0004 00AF     		add	r7, sp, #0
 679              		.cfi_def_cfa_register 7
 680 0006 7860     		str	r0, [r7, #4]
 681 0008 0A1C     		mov	r2, r1
 682 000a BB1C     		add	r3, r7, #2
 683 000c 1A80     		strh	r2, [r3]
 307:.\application.c ****     TxData = TxData;
 308:.\application.c ****     Len = Len;
 684              		.loc 1 308 0
 685 000e BB1C     		add	r3, r7, #2
 686 0010 BA1C     		add	r2, r7, #2
 687 0012 1288     		ldrh	r2, [r2]
 688 0014 1A80     		strh	r2, [r3]
 309:.\application.c **** //    CYBLE_API_RESULT_T API_RESULT;
 310:.\application.c **** //    if(THROUGH_STAUS)//Â¶ÇÊûú‰∏ªÊú∫ÊâìÂºÄ‰ªéÊú∫ÁöÑÈÄè‰º†ÈÄöÈÅì,‰ªéÊú∫ÂàôÈ©¨‰∏äÁªô‰∏ªÊú∫ÂèëÈÄÅÈÄè‰
 311:.\application.c **** //    {
 312:.\application.c **** //        CYBLE_GATTS_HANDLE_VALUE_NTF_T ServiceToClientData;//‰∏¥Êó∂Â≠òÊîæË¶ÅÂèëÈÄÅÁªô‰∏ªÊú∫ÁöÑ‰ø°
 313:.\application.c **** //        ServiceToClientData.value.val=(uint8_t*)TxData;//ÂèëÈÄÅÊï∞ÊçÆÁöÑÈ¶ñÂú∞ÂùÄ
 314:.\application.c **** //        ServiceToClientData.value.len=Len-1;//ÊâÄË¶ÅÂèëÈÄÅÁöÑÊï∞ÊçÆÁöÑÈïøÂ∫¶
 315:.\application.c **** //        ServiceToClientData.attrHandle=CYBLE_TROUGHPUT_SERVICE_TX_CHAR_HANDLE;//ÊâÄË¶ÅÂèëÈÄÅÊï∞Êç
 316:.\application.c **** //        while(CyBle_GattGetBusStatus()!=CYBLE_STACK_STATE_FREE);//Á≠âÂæÖËìùÁâôÁ©∫Èó≤Êó∂ÊâçÂèëÈÄÅÊ
 317:.\application.c **** //        do
 318:.\application.c **** //        {
 319:.\application.c **** //            API_RESULT=CyBle_GattsNotification(cyBle_connHandle,&ServiceToClientData);//ÂèëÈÄÅÊï∞
ARM GAS  C:\Users\ADMINI~1\AppData\Local\Temp\ccm0G0A3.s 			page 20


 320:.\application.c **** //            CyBle_ProcessEvents();
 321:.\application.c **** //        }
 322:.\application.c **** //        while((API_RESULT != CYBLE_ERROR_OK)&&(CYBLE_STATE_CONNECTED == cyBle_state));        
 323:.\application.c **** ////        API_RESULT=API_RESULT+0;
 324:.\application.c **** //    }
 325:.\application.c **** }
 689              		.loc 1 325 0
 690 0016 BD46     		mov	sp, r7
 691 0018 02B0     		add	sp, sp, #8
 692              		@ sp needed
 693 001a 80BD     		pop	{r7, pc}
 694              		.cfi_endproc
 695              	.LFE41:
 696              		.size	ServiceToClient, .-ServiceToClient
 697              		.section	.text.ClientData_Handler,"ax",%progbits
 698              		.align	2
 699              		.global	ClientData_Handler
 700              		.code	16
 701              		.thumb_func
 702              		.type	ClientData_Handler, %function
 703              	ClientData_Handler:
 704              	.LFB42:
 326:.\application.c **** 
 327:.\application.c **** /******************************************
 328:.\application.c ****   * @ÂáΩÊï∞ÂêçÔºöClientData_Handler
 329:.\application.c ****   * @ËæìÂÖ•Ôºö  RxData---ÊåáÂêëÊé•Êî∂Âà∞‰∏ªÊú∫ÈÄè‰º†Êï∞ÊçÆÁöÑÈ¶ñÂú∞ÂùÄ              
 330:.\application.c ****   * @ËøîÂõûÔºö  NULL            
 331:.\application.c ****   * @ÊèèËø∞Ôºö  Â§ÑÁêÜ‰∏ªÊú∫ÈÄè‰º†Áªô‰ªéÊú∫ÁöÑÊï∞ÊçÆ
 332:.\application.c ****   *****************************************
 333:.\application.c **** */
 334:.\application.c **** void ClientData_Handler(const char* RxData)
 335:.\application.c **** {
 705              		.loc 1 335 0
 706              		.cfi_startproc
 707 0000 80B5     		push	{r7, lr}
 708              		.cfi_def_cfa_offset 8
 709              		.cfi_offset 7, -8
 710              		.cfi_offset 14, -4
 711 0002 82B0     		sub	sp, sp, #8
 712              		.cfi_def_cfa_offset 16
 713 0004 00AF     		add	r7, sp, #0
 714              		.cfi_def_cfa_register 7
 715 0006 7860     		str	r0, [r7, #4]
 336:.\application.c ****     RxData = RxData;
 337:.\application.c **** //    uint8_t Location,Index;       
 338:.\application.c **** //    //Ëé∑ÂèñATÂëΩ‰ª§Á≠âÂè∑ÁöÑ‰ΩçÁΩÆÔºåÂ¶Ç‚ÄúAT+RESET=1‚Äù‰∏≠‚Äú=‚ÄùÂè∑ÁöÑ‰ΩçÁΩÆÊòØ8,‰ªé0ÂºÄÂßãÁÆó
 339:.\application.c **** //    Location=strchr((char*)RxData,'=')-RxData;
 340:.\application.c **** //    //Âä®ÊÄÅÂàÜÈÖçÂ†ÜÁ©∫Èó¥
 341:.\application.c **** //    char* String=malloc(sizeof(char)*Location);
 342:.\application.c **** //    //‰øùÂ≠òATÂëΩ‰ª§Á≠âÂè∑ÂâçÁöÑÊï∞ÊçÆ.
 343:.\application.c **** //    strncpy(String,RxData,Location); 
 344:.\application.c **** //    //ÂåπÈÖçATÂëΩ‰ª§ÂàóË°®‰∏≠ATÂëΩ‰ª§ÁöÑ‰ΩçÁΩÆ
 345:.\application.c **** //    for(Index=0;Index<CommandListLen;Index++)
 346:.\application.c **** //    {
 347:.\application.c **** //        if(strncmp((char*)String,CommandList[Index],Location)==0)
 348:.\application.c **** //        {
 349:.\application.c **** //            break;
ARM GAS  C:\Users\ADMINI~1\AppData\Local\Temp\ccm0G0A3.s 			page 21


 350:.\application.c **** //        }
 351:.\application.c **** //    }    
 352:.\application.c **** //    free(String);//ÈáäÊîæ‰πãÂâçÂàÜÈÖçÁöÑÂ†ÜÁ©∫Èó¥      
 353:.\application.c **** //    switch(Index)//ÊâßË°åÁõ∏Â∫îÁöÑÂëΩ‰ª§
 354:.\application.c **** //    {
 355:.\application.c **** //        case SWT:
 356:.\application.c **** //            if(RxData[Location+1]-0x30)//ÊéßÂà∂ÂºÄÂÖ≥‰∏∫ÂºÄ
 357:.\application.c **** //            {
 358:.\application.c **** //                BLUE_LED_Write(ON);
 359:.\application.c **** //                ServiceToClient("AT+ON",sizeof("AT+ON"));
 360:.\application.c **** //            }
 361:.\application.c **** //            else if(0 == RxData[Location+1]-0x30)//ÊéßÂà∂ÂºÄÂÖ≥‰∏∫ÂÖ≥
 362:.\application.c **** //            {
 363:.\application.c **** //                BLUE_LED_Write(OFF);
 364:.\application.c **** //                ServiceToClient("AT+OFF",sizeof("AT+OFF"));
 365:.\application.c **** //            }
 366:.\application.c **** //        break;
 367:.\application.c **** //        default:
 368:.\application.c **** //        break;
 369:.\application.c **** //    }
 370:.\application.c **** }
 716              		.loc 1 370 0
 717 0008 BD46     		mov	sp, r7
 718 000a 02B0     		add	sp, sp, #8
 719              		@ sp needed
 720 000c 80BD     		pop	{r7, pc}
 721              		.cfi_endproc
 722              	.LFE42:
 723              		.size	ClientData_Handler, .-ClientData_Handler
 724 000e C046     		.section	.rodata
 725              		.align	2
 726              	.LC31:
 727 0094 44697343 		.ascii	"DisConnect Req is OK\015\000"
 727      6F6E6E65 
 727      63742052 
 727      65712069 
 727      73204F4B 
 728              		.section	.text.ServerData_Handler,"ax",%progbits
 729              		.align	2
 730              		.global	ServerData_Handler
 731              		.code	16
 732              		.thumb_func
 733              		.type	ServerData_Handler, %function
 734              	ServerData_Handler:
 735              	.LFB43:
 371:.\application.c **** 
 372:.\application.c **** /******************************************
 373:.\application.c ****   * @ÂáΩÊï∞ÂêçÔºöClientData_Handler
 374:.\application.c ****   * @ËæìÂÖ•Ôºö  RxData---ÊåáÂêëÊé•Êî∂Âà∞ÁöÑ‰ªéÊú∫ÈÄè‰º†Êï∞ÊçÆÁöÑÈ¶ñÂú∞ÂùÄ              
 375:.\application.c ****   * @ËøîÂõûÔºö  NULL            
 376:.\application.c ****   * @ÊèèËø∞Ôºö  Â§ÑÁêÜ‰∏ªÊú∫ÈÄè‰º†Áªô‰ªéÊú∫ÁöÑÊï∞ÊçÆ
 377:.\application.c ****   *****************************************
 378:.\application.c **** */
 379:.\application.c **** void  ServerData_Handler(const char* RxData)
 380:.\application.c **** {
 736              		.loc 1 380 0
 737              		.cfi_startproc
ARM GAS  C:\Users\ADMINI~1\AppData\Local\Temp\ccm0G0A3.s 			page 22


 738 0000 90B5     		push	{r4, r7, lr}
 739              		.cfi_def_cfa_offset 12
 740              		.cfi_offset 4, -12
 741              		.cfi_offset 7, -8
 742              		.cfi_offset 14, -4
 743 0002 87B0     		sub	sp, sp, #28
 744              		.cfi_def_cfa_offset 40
 745 0004 00AF     		add	r7, sp, #0
 746              		.cfi_def_cfa_register 7
 747 0006 7860     		str	r0, [r7, #4]
 381:.\application.c **** //    RxData = RxData;
 382:.\application.c ****     uint8_t Location,Index;       
 383:.\application.c ****     CYBLE_API_RESULT_T API_RESULT;    
 384:.\application.c ****     //Ëé∑ÂèñATÂëΩ‰ª§Á≠âÂè∑ÁöÑ‰ΩçÁΩÆÔºåÂ¶Ç‚ÄúAT+RESET=1‚Äù‰∏≠‚Äú=‚ÄùÂè∑ÁöÑ‰ΩçÁΩÆÊòØ8,‰ªé0ÂºÄÂßãÁÆóËµ
 385:.\application.c ****     Location=strchr((char*)RxData,'=')-RxData;
 748              		.loc 1 385 0
 749 0008 7B68     		ldr	r3, [r7, #4]
 750 000a 181C     		mov	r0, r3
 751 000c 3D21     		mov	r1, #61
 752 000e FFF7FEFF 		bl	strchr
 753 0012 031C     		mov	r3, r0
 754 0014 1A1C     		mov	r2, r3
 755 0016 7B68     		ldr	r3, [r7, #4]
 756 0018 D21A     		sub	r2, r2, r3
 757 001a 1623     		mov	r3, #22
 758 001c FB18     		add	r3, r7, r3
 759 001e 1A70     		strb	r2, [r3]
 386:.\application.c ****     //Âä®ÊÄÅÂàÜÈÖçÂ†ÜÁ©∫Èó¥
 387:.\application.c ****     char* String=malloc(sizeof(char)*Location);
 760              		.loc 1 387 0
 761 0020 1623     		mov	r3, #22
 762 0022 FB18     		add	r3, r7, r3
 763 0024 1B78     		ldrb	r3, [r3]
 764 0026 181C     		mov	r0, r3
 765 0028 FFF7FEFF 		bl	malloc
 766 002c 031C     		mov	r3, r0
 767 002e 3B61     		str	r3, [r7, #16]
 388:.\application.c ****     //‰øùÂ≠òATÂëΩ‰ª§Á≠âÂè∑ÂâçÁöÑÊï∞ÊçÆ.
 389:.\application.c ****     strncpy(String,RxData,Location); 
 768              		.loc 1 389 0
 769 0030 1623     		mov	r3, #22
 770 0032 FB18     		add	r3, r7, r3
 771 0034 1B78     		ldrb	r3, [r3]
 772 0036 3969     		ldr	r1, [r7, #16]
 773 0038 7A68     		ldr	r2, [r7, #4]
 774 003a 081C     		mov	r0, r1
 775 003c 111C     		mov	r1, r2
 776 003e 1A1C     		mov	r2, r3
 777 0040 FFF7FEFF 		bl	strncpy
 390:.\application.c ****     //ÂåπÈÖçATÂëΩ‰ª§ÂàóË°®‰∏≠ATÂëΩ‰ª§ÁöÑ‰ΩçÁΩÆ
 391:.\application.c ****     for(Index=0;Index<CommandListLen;Index++)
 778              		.loc 1 391 0
 779 0044 1723     		mov	r3, #23
 780 0046 FB18     		add	r3, r7, r3
 781 0048 0022     		mov	r2, #0
 782 004a 1A70     		strb	r2, [r3]
 783 004c 18E0     		b	.L38
ARM GAS  C:\Users\ADMINI~1\AppData\Local\Temp\ccm0G0A3.s 			page 23


 784              	.L41:
 392:.\application.c ****     {
 393:.\application.c ****         if(strncmp((char*)String,CommandList[Index],Location)==0)
 785              		.loc 1 393 0
 786 004e 1723     		mov	r3, #23
 787 0050 FB18     		add	r3, r7, r3
 788 0052 1A78     		ldrb	r2, [r3]
 789 0054 AC4B     		ldr	r3, .L80
 790 0056 9200     		lsl	r2, r2, #2
 791 0058 D258     		ldr	r2, [r2, r3]
 792 005a 1623     		mov	r3, #22
 793 005c FB18     		add	r3, r7, r3
 794 005e 1B78     		ldrb	r3, [r3]
 795 0060 3969     		ldr	r1, [r7, #16]
 796 0062 081C     		mov	r0, r1
 797 0064 111C     		mov	r1, r2
 798 0066 1A1C     		mov	r2, r3
 799 0068 FFF7FEFF 		bl	strncmp
 800 006c 031E     		sub	r3, r0, #0
 801 006e 00D1     		bne	.L39
 394:.\application.c ****         {
 395:.\application.c ****             break;
 802              		.loc 1 395 0
 803 0070 0DE0     		b	.L40
 804              	.L39:
 391:.\application.c ****     {
 805              		.loc 1 391 0 discriminator 2
 806 0072 1723     		mov	r3, #23
 807 0074 FB18     		add	r3, r7, r3
 808 0076 1A78     		ldrb	r2, [r3]
 809 0078 1723     		mov	r3, #23
 810 007a FB18     		add	r3, r7, r3
 811 007c 0132     		add	r2, r2, #1
 812 007e 1A70     		strb	r2, [r3]
 813              	.L38:
 391:.\application.c ****     {
 814              		.loc 1 391 0 is_stmt 0 discriminator 1
 815 0080 A24B     		ldr	r3, .L80+4
 816 0082 1B78     		ldrb	r3, [r3]
 817 0084 1722     		mov	r2, #23
 818 0086 BA18     		add	r2, r7, r2
 819 0088 1278     		ldrb	r2, [r2]
 820 008a 9A42     		cmp	r2, r3
 821 008c DFD3     		bcc	.L41
 822              	.L40:
 396:.\application.c ****         }
 397:.\application.c ****     }    
 398:.\application.c ****     free(String);//ÈáäÊîæ‰πãÂâçÂàÜÈÖçÁöÑÂ†ÜÁ©∫Èó¥      
 823              		.loc 1 398 0 is_stmt 1
 824 008e 3B69     		ldr	r3, [r7, #16]
 825 0090 181C     		mov	r0, r3
 826 0092 FFF7FEFF 		bl	free
 399:.\application.c ****     switch(Index)//ÊâßË°åÁõ∏Â∫îÁöÑÂëΩ‰ª§
 827              		.loc 1 399 0
 828 0096 1723     		mov	r3, #23
 829 0098 FB18     		add	r3, r7, r3
 830 009a 1B78     		ldrb	r3, [r3]
ARM GAS  C:\Users\ADMINI~1\AppData\Local\Temp\ccm0G0A3.s 			page 24


 831 009c 012B     		cmp	r3, #1
 832 009e 00D1     		bne	.LCB515
 833 00a0 2EE1     		b	.L77	@long jump
 834              	.LCB515:
 835 00a2 022B     		cmp	r3, #2
 836 00a4 00D1     		bne	.LCB517
 837 00a6 10E1     		b	.L44	@long jump
 838              	.LCB517:
 839 00a8 002B     		cmp	r3, #0
 840 00aa 00D0     		beq	.L45
 400:.\application.c ****     {
 401:.\application.c ****         case SWT:
 402:.\application.c ****             if(RxData[Location+1]-0x30)//ÊéßÂà∂ÂºÄÂÖ≥‰∏∫ÂºÄ
 403:.\application.c ****             {
 404:.\application.c ****                 switch(ButtonType)
 405:.\application.c ****                 {
 406:.\application.c ****                     case BUTTON1:
 407:.\application.c ****                         Button.Button1_On_Off=SWTICH_ON;
 408:.\application.c ****                     break;
 409:.\application.c ****                     case BUTTON2:
 410:.\application.c ****                         Button.Button2_On_Off=SWTICH_ON;
 411:.\application.c ****                     break;
 412:.\application.c ****                     case BUTTON3:
 413:.\application.c ****                         Button.Button3_On_Off=SWTICH_ON;
 414:.\application.c ****                     break;
 415:.\application.c ****                     case BUTTON4:
 416:.\application.c ****                         Button.Button4_On_Off=SWTICH_ON;
 417:.\application.c ****                     break;
 418:.\application.c ****                     case BUTTON5:
 419:.\application.c ****                         if((Button.Button5_On_Off^1) == SWTICH_ON)//Â¶ÇÊûúËÆæÂ§áËøîÂõûÁöÑÊòØÊâìÂºÄÂ
 420:.\application.c ****                         {
 421:.\application.c ****                             CyBle_GapDisconnect(cyBle_connHandle.bdHandle);//Êé•Êî∂Âà∞‰ªéÊú∫ÁöÑÁä∂Ê
 422:.\application.c ****                             ALL_ON_OFF = TURE;
 423:.\application.c ****                             return ;
 424:.\application.c ****                         }
 425:.\application.c ****                         else
 426:.\application.c ****                         {
 427:.\application.c ****                             WriteCmd.attrHandle = CYBLE_TROUGHPUT_SERVICE_RX_CHAR_HANDLE;//‰ªéÊú∫Êé
 428:.\application.c ****                             WriteCmd.value.len=8;//ÂèëÈÄÅÁöÑÊï∞ÊçÆÈïøÂ∫¶‰∏∫8‰∏™Â≠óËäÇ
 429:.\application.c ****                             WriteCmd.value.val = (uint8_t *)CommandList[Button.Button5_On_Off^1];//
 430:.\application.c ****                             API_RESULT=CyBle_GattcWriteWithoutResponse(cyBle_connHandle, &WriteCmd)
 431:.\application.c ****                             if(API_RESULT == CYBLE_ERROR_OK)//ÊéßÂà∂ÂëΩ‰ª§ÂèëÈÄÅÊàêÂäüÔºåÂàôÊñ≠ÂºÄË
 432:.\application.c ****                             {
 433:.\application.c **** //                                CyDelay(10);
 434:.\application.c **** //                                CyBle_GapDisconnect(cyBle_connHandle.bdHandle);//Êé•Êî∂Âà∞‰ªéÊú∫Á
 435:.\application.c **** //                                ALL_ON_OFF = TURE;
 436:.\application.c ****                                 return ;
 437:.\application.c ****                             }                            
 438:.\application.c ****                         }
 439:.\application.c ****                     break;
 440:.\application.c ****                     default:
 441:.\application.c ****                     break;
 442:.\application.c ****                 }
 443:.\application.c ****             }
 444:.\application.c ****             else if(0 == RxData[Location+1]-0x30)//ÊéßÂà∂ÂºÄÂÖ≥‰∏∫ÂÖ≥
 445:.\application.c ****             {
 446:.\application.c ****                 switch(ButtonType)
ARM GAS  C:\Users\ADMINI~1\AppData\Local\Temp\ccm0G0A3.s 			page 25


 447:.\application.c ****                 {
 448:.\application.c ****                     case BUTTON1:
 449:.\application.c ****                         Button.Button1_On_Off=SWTICH_OFF;
 450:.\application.c ****                     break;
 451:.\application.c ****                     case BUTTON2:
 452:.\application.c ****                         Button.Button2_On_Off=SWTICH_OFF;
 453:.\application.c ****                     break;
 454:.\application.c ****                     case BUTTON3:
 455:.\application.c ****                         Button.Button3_On_Off=SWTICH_OFF;
 456:.\application.c ****                     break;
 457:.\application.c ****                     case BUTTON4:
 458:.\application.c ****                         Button.Button4_On_Off=SWTICH_OFF;
 459:.\application.c ****                     break;
 460:.\application.c ****                     case BUTTON5:
 461:.\application.c ****                         if((Button.Button5_On_Off^1) == SWTICH_OFF)//Â¶ÇÊûúËÆæÂ§áËøîÂõûÁöÑÊòØÂÖ≥Èó≠
 462:.\application.c ****                         {
 463:.\application.c ****                             CyBle_GapDisconnect(cyBle_connHandle.bdHandle);//Êé•Êî∂Âà∞‰ªéÊú∫ÁöÑÁä∂Ê
 464:.\application.c ****                             ALL_ON_OFF = TURE;
 465:.\application.c ****                             return ;
 466:.\application.c ****                         }
 467:.\application.c ****                         else
 468:.\application.c ****                         {
 469:.\application.c ****                             WriteCmd.attrHandle = CYBLE_TROUGHPUT_SERVICE_RX_CHAR_HANDLE;//‰ªéÊú∫Êé
 470:.\application.c ****                             WriteCmd.value.len=8;//ÂèëÈÄÅÁöÑÊï∞ÊçÆÈïøÂ∫¶‰∏∫8‰∏™Â≠óËäÇ
 471:.\application.c ****                             WriteCmd.value.val = (uint8_t *)CommandList[Button.Button5_On_Off^1];//
 472:.\application.c ****                             API_RESULT=CyBle_GattcWriteWithoutResponse(cyBle_connHandle, &WriteCmd)
 473:.\application.c ****                             if(API_RESULT == CYBLE_ERROR_OK)//ÊéßÂà∂ÂëΩ‰ª§ÂèëÈÄÅÊàêÂäüÔºåÂàôÊñ≠ÂºÄË
 474:.\application.c ****                             {
 475:.\application.c **** //                                CyBle_GapDisconnect(cyBle_connHandle.bdHandle);//Êé•Êî∂Âà∞‰ªéÊú∫Á
 476:.\application.c **** //                                ALL_ON_OFF = TURE;
 477:.\application.c ****                                 return ;
 478:.\application.c ****                             }                            
 479:.\application.c ****                         }
 480:.\application.c ****                     break;
 481:.\application.c ****                     default:
 482:.\application.c ****                     break;
 483:.\application.c ****                 }
 484:.\application.c ****             }
 485:.\application.c ****             WriteCmd.attrHandle = CYBLE_TROUGHPUT_SERVICE_RX_CHAR_HANDLE;//‰ªéÊú∫Êé•Êî∂Â±ûÊÄßÁöÑÂè•
 486:.\application.c ****             WriteCmd.value.len=8;//ÂèëÈÄÅÁöÑÊï∞ÊçÆÈïøÂ∫¶‰∏∫8‰∏™Â≠óËäÇ
 487:.\application.c ****             switch(ButtonType)
 488:.\application.c ****             {
 489:.\application.c ****                 case BUTTON1:
 490:.\application.c ****                     WriteCmd.value.val = (uint8_t *)CommandList[Button.Button1_On_Off^1];//ÈúÄË¶ÅÂè
 491:.\application.c ****                 break;
 492:.\application.c ****                 case BUTTON2:
 493:.\application.c ****                     WriteCmd.value.val = (uint8_t *)CommandList[Button.Button2_On_Off^1];//ÈúÄË¶ÅÂè
 494:.\application.c ****                 break;
 495:.\application.c ****                 case BUTTON3:
 496:.\application.c ****                     WriteCmd.value.val = (uint8_t *)CommandList[Button.Button3_On_Off^1];//ÈúÄË¶ÅÂè
 497:.\application.c ****                 break;
 498:.\application.c ****                 case BUTTON4:
 499:.\application.c ****                     WriteCmd.value.val = (uint8_t *)CommandList[Button.Button4_On_Off^1];//ÈúÄË¶ÅÂè
 500:.\application.c ****                 break;
 501:.\application.c ****                 default:
 502:.\application.c ****                 break;
 503:.\application.c ****             }
ARM GAS  C:\Users\ADMINI~1\AppData\Local\Temp\ccm0G0A3.s 			page 26


 504:.\application.c ****             API_RESULT=CyBle_GattcWriteWithoutResponse(cyBle_connHandle, &WriteCmd);//ÂºÄÂßãÂèëÈÄÅ
 505:.\application.c ****             if(API_RESULT == CYBLE_ERROR_OK)//ÊéßÂà∂ÂëΩ‰ª§ÂèëÈÄÅÊàêÂäüÔºåÂàôÊñ≠ÂºÄËøûÊé•
 506:.\application.c ****             {
 507:.\application.c **** //                CyBle_GapDisconnect(cyBle_connHandle.bdHandle);//Êé•Êî∂Âà∞‰ªéÊú∫ÁöÑÁä∂ÊÄÅËøîÂõûÈ©
 508:.\application.c ****             }                         
 509:.\application.c ****         break;
 510:.\application.c ****         case NTF:
 511:.\application.c **** //            if(RxData[Location+1]-0x30)//ÈÄöÈÅìÊâìÂºÄ
 512:.\application.c **** //            {
 513:.\application.c **** //                
 514:.\application.c **** //            }
 515:.\application.c ****         break;
 516:.\application.c ****         case ON_OFF:            
 517:.\application.c ****             API_RESULT=CyBle_GapDisconnect(cyBle_connHandle.bdHandle);//Êé•Êî∂Âà∞‰ªéÊú∫ÁöÑÁä∂ÊÄÅËøî
 518:.\application.c ****             if(API_RESULT == CYBLE_ERROR_OK)//ÊéßÂà∂ÂëΩ‰ª§ÂèëÈÄÅÊàêÂäüÔºåÂàôÊñ≠ÂºÄËøûÊé•
 519:.\application.c ****             {
 520:.\application.c ****                 #ifdef PRINT
 521:.\application.c ****                     printf("DisConnect Req is OK\r\n");
 522:.\application.c ****                 #endif
 523:.\application.c ****             }
 524:.\application.c ****             if(ButtonType == BUTTON5)
 525:.\application.c ****             {
 526:.\application.c ****                 ALL_ON_OFF = TURE;
 527:.\application.c ****             }
 528:.\application.c ****         break;        
 529:.\application.c ****         default:
 530:.\application.c ****         break;
 841              		.loc 1 530 0
 842 00ac 29E1     		b	.L37
 843              	.L45:
 402:.\application.c ****             {
 844              		.loc 1 402 0
 845 00ae 1623     		mov	r3, #22
 846 00b0 FB18     		add	r3, r7, r3
 847 00b2 1B78     		ldrb	r3, [r3]
 848 00b4 0133     		add	r3, r3, #1
 849 00b6 7A68     		ldr	r2, [r7, #4]
 850 00b8 D318     		add	r3, r2, r3
 851 00ba 1B78     		ldrb	r3, [r3]
 852 00bc 302B     		cmp	r3, #48
 853 00be 52D0     		beq	.L46
 404:.\application.c ****                 {
 854              		.loc 1 404 0
 855 00c0 934B     		ldr	r3, .L80+8
 856 00c2 1B78     		ldrb	r3, [r3]
 857 00c4 042B     		cmp	r3, #4
 858 00c6 4CD8     		bhi	.L78
 859 00c8 9A00     		lsl	r2, r3, #2
 860 00ca 924B     		ldr	r3, .L80+12
 861 00cc D318     		add	r3, r2, r3
 862 00ce 1B68     		ldr	r3, [r3]
 863 00d0 9F46     		mov	pc, r3
 864              		.section	.rodata
 865 00aa 0000     		.align	2
 866              	.L49:
 867 00ac D2000000 		.word	.L48
 868 00b0 DA000000 		.word	.L50
ARM GAS  C:\Users\ADMINI~1\AppData\Local\Temp\ccm0G0A3.s 			page 27


 869 00b4 E2000000 		.word	.L51
 870 00b8 EA000000 		.word	.L52
 871 00bc F2000000 		.word	.L53
 872              		.section	.text.ServerData_Handler
 873              	.L48:
 407:.\application.c ****                     break;
 874              		.loc 1 407 0
 875 00d2 914B     		ldr	r3, .L80+16
 876 00d4 0022     		mov	r2, #0
 877 00d6 1A70     		strb	r2, [r3]
 408:.\application.c ****                     case BUTTON2:
 878              		.loc 1 408 0
 879 00d8 44E0     		b	.L54
 880              	.L50:
 410:.\application.c ****                     break;
 881              		.loc 1 410 0
 882 00da 8F4B     		ldr	r3, .L80+16
 883 00dc 0022     		mov	r2, #0
 884 00de 5A70     		strb	r2, [r3, #1]
 411:.\application.c ****                     case BUTTON3:
 885              		.loc 1 411 0
 886 00e0 40E0     		b	.L54
 887              	.L51:
 413:.\application.c ****                     break;
 888              		.loc 1 413 0
 889 00e2 8D4B     		ldr	r3, .L80+16
 890 00e4 0022     		mov	r2, #0
 891 00e6 9A70     		strb	r2, [r3, #2]
 414:.\application.c ****                     case BUTTON4:
 892              		.loc 1 414 0
 893 00e8 3CE0     		b	.L54
 894              	.L52:
 416:.\application.c ****                     break;
 895              		.loc 1 416 0
 896 00ea 8B4B     		ldr	r3, .L80+16
 897 00ec 0022     		mov	r2, #0
 898 00ee DA70     		strb	r2, [r3, #3]
 417:.\application.c ****                     case BUTTON5:
 899              		.loc 1 417 0
 900 00f0 38E0     		b	.L54
 901              	.L53:
 419:.\application.c ****                         {
 902              		.loc 1 419 0
 903 00f2 894B     		ldr	r3, .L80+16
 904 00f4 1B79     		ldrb	r3, [r3, #4]
 905 00f6 012B     		cmp	r3, #1
 906 00f8 08D1     		bne	.L55
 421:.\application.c ****                             ALL_ON_OFF = TURE;
 907              		.loc 1 421 0
 908 00fa 884B     		ldr	r3, .L80+20
 909 00fc 1B78     		ldrb	r3, [r3]
 910 00fe 181C     		mov	r0, r3
 911 0100 FFF7FEFF 		bl	CyBle_GapDisconnect
 422:.\application.c ****                             return ;
 912              		.loc 1 422 0
 913 0104 864B     		ldr	r3, .L80+24
 914 0106 0122     		mov	r2, #1
ARM GAS  C:\Users\ADMINI~1\AppData\Local\Temp\ccm0G0A3.s 			page 28


 915 0108 1A70     		strb	r2, [r3]
 423:.\application.c ****                         }
 916              		.loc 1 423 0
 917 010a FAE0     		b	.L37
 918              	.L55:
 427:.\application.c ****                             WriteCmd.value.len=8;//ÂèëÈÄÅÁöÑÊï∞ÊçÆÈïøÂ∫¶‰∏∫8‰∏™Â≠óËäÇ
 919              		.loc 1 427 0
 920 010c 854B     		ldr	r3, .L80+28
 921 010e 1322     		mov	r2, #19
 922 0110 1A81     		strh	r2, [r3, #8]
 428:.\application.c ****                             WriteCmd.value.val = (uint8_t *)CommandList[Button.Button5_On_Off^1];//
 923              		.loc 1 428 0
 924 0112 844B     		ldr	r3, .L80+28
 925 0114 0822     		mov	r2, #8
 926 0116 9A80     		strh	r2, [r3, #4]
 429:.\application.c ****                             API_RESULT=CyBle_GattcWriteWithoutResponse(cyBle_connHandle, &WriteCmd)
 927              		.loc 1 429 0
 928 0118 7F4B     		ldr	r3, .L80+16
 929 011a 1B79     		ldrb	r3, [r3, #4]
 930 011c 0122     		mov	r2, #1
 931 011e 5340     		eor	r3, r2
 932 0120 DBB2     		uxtb	r3, r3
 933 0122 1A1C     		mov	r2, r3
 934 0124 784B     		ldr	r3, .L80
 935 0126 9200     		lsl	r2, r2, #2
 936 0128 D258     		ldr	r2, [r2, r3]
 937 012a 7E4B     		ldr	r3, .L80+28
 938 012c 1A60     		str	r2, [r3]
 430:.\application.c ****                             if(API_RESULT == CYBLE_ERROR_OK)//ÊéßÂà∂ÂëΩ‰ª§ÂèëÈÄÅÊàêÂäüÔºåÂàôÊñ≠ÂºÄË
 939              		.loc 1 430 0
 940 012e 0E23     		mov	r3, #14
 941 0130 FC18     		add	r4, r7, r3
 942 0132 7A4B     		ldr	r3, .L80+20
 943 0134 7B49     		ldr	r1, .L80+28
 944 0136 1A78     		ldrb	r2, [r3]
 945 0138 5B78     		ldrb	r3, [r3, #1]
 946 013a 1B02     		lsl	r3, r3, #8
 947 013c 1A43     		orr	r2, r3
 948 013e 0023     		mov	r3, #0
 949 0140 1204     		lsl	r2, r2, #16
 950 0142 120C     		lsr	r2, r2, #16
 951 0144 1B0C     		lsr	r3, r3, #16
 952 0146 1B04     		lsl	r3, r3, #16
 953 0148 1343     		orr	r3, r2
 954 014a 181C     		mov	r0, r3
 955 014c FFF7FEFF 		bl	CyBle_GattcWriteWithoutResponse
 956 0150 031C     		mov	r3, r0
 957 0152 2380     		strh	r3, [r4]
 431:.\application.c ****                             {
 958              		.loc 1 431 0
 959 0154 0E23     		mov	r3, #14
 960 0156 FB18     		add	r3, r7, r3
 961 0158 1B88     		ldrh	r3, [r3]
 962 015a 002B     		cmp	r3, #0
 963 015c 00D1     		bne	.L57
 436:.\application.c ****                             }                            
 964              		.loc 1 436 0
ARM GAS  C:\Users\ADMINI~1\AppData\Local\Temp\ccm0G0A3.s 			page 29


 965 015e D0E0     		b	.L37
 966              	.L57:
 439:.\application.c ****                     default:
 967              		.loc 1 439 0
 968 0160 00E0     		b	.L54
 969              	.L78:
 441:.\application.c ****                 }
 970              		.loc 1 441 0
 971 0162 C046     		mov	r8, r8
 972              	.L54:
 973 0164 5AE0     		b	.L58
 974              	.L46:
 444:.\application.c ****             {
 975              		.loc 1 444 0
 976 0166 1623     		mov	r3, #22
 977 0168 FB18     		add	r3, r7, r3
 978 016a 1B78     		ldrb	r3, [r3]
 979 016c 0133     		add	r3, r3, #1
 980 016e 7A68     		ldr	r2, [r7, #4]
 981 0170 D318     		add	r3, r2, r3
 982 0172 1B78     		ldrb	r3, [r3]
 983 0174 302B     		cmp	r3, #48
 984 0176 51D1     		bne	.L58
 446:.\application.c ****                 {
 985              		.loc 1 446 0
 986 0178 654B     		ldr	r3, .L80+8
 987 017a 1B78     		ldrb	r3, [r3]
 988 017c 042B     		cmp	r3, #4
 989 017e 4CD8     		bhi	.L79
 990 0180 9A00     		lsl	r2, r3, #2
 991 0182 694B     		ldr	r3, .L80+32
 992 0184 D318     		add	r3, r2, r3
 993 0186 1B68     		ldr	r3, [r3]
 994 0188 9F46     		mov	pc, r3
 995              		.section	.rodata
 996              		.align	2
 997              	.L61:
 998 00c0 8A010000 		.word	.L60
 999 00c4 92010000 		.word	.L62
 1000 00c8 9A010000 		.word	.L63
 1001 00cc A2010000 		.word	.L64
 1002 00d0 AA010000 		.word	.L65
 1003              		.section	.text.ServerData_Handler
 1004              	.L60:
 449:.\application.c ****                     break;
 1005              		.loc 1 449 0
 1006 018a 634B     		ldr	r3, .L80+16
 1007 018c 0122     		mov	r2, #1
 1008 018e 1A70     		strb	r2, [r3]
 450:.\application.c ****                     case BUTTON2:
 1009              		.loc 1 450 0
 1010 0190 44E0     		b	.L58
 1011              	.L62:
 452:.\application.c ****                     break;
 1012              		.loc 1 452 0
 1013 0192 614B     		ldr	r3, .L80+16
 1014 0194 0122     		mov	r2, #1
ARM GAS  C:\Users\ADMINI~1\AppData\Local\Temp\ccm0G0A3.s 			page 30


 1015 0196 5A70     		strb	r2, [r3, #1]
 453:.\application.c ****                     case BUTTON3:
 1016              		.loc 1 453 0
 1017 0198 40E0     		b	.L58
 1018              	.L63:
 455:.\application.c ****                     break;
 1019              		.loc 1 455 0
 1020 019a 5F4B     		ldr	r3, .L80+16
 1021 019c 0122     		mov	r2, #1
 1022 019e 9A70     		strb	r2, [r3, #2]
 456:.\application.c ****                     case BUTTON4:
 1023              		.loc 1 456 0
 1024 01a0 3CE0     		b	.L58
 1025              	.L64:
 458:.\application.c ****                     break;
 1026              		.loc 1 458 0
 1027 01a2 5D4B     		ldr	r3, .L80+16
 1028 01a4 0122     		mov	r2, #1
 1029 01a6 DA70     		strb	r2, [r3, #3]
 459:.\application.c ****                     case BUTTON5:
 1030              		.loc 1 459 0
 1031 01a8 38E0     		b	.L58
 1032              	.L65:
 461:.\application.c ****                         {
 1033              		.loc 1 461 0
 1034 01aa 5B4B     		ldr	r3, .L80+16
 1035 01ac 1B79     		ldrb	r3, [r3, #4]
 1036 01ae 002B     		cmp	r3, #0
 1037 01b0 08D1     		bne	.L66
 463:.\application.c ****                             ALL_ON_OFF = TURE;
 1038              		.loc 1 463 0
 1039 01b2 5A4B     		ldr	r3, .L80+20
 1040 01b4 1B78     		ldrb	r3, [r3]
 1041 01b6 181C     		mov	r0, r3
 1042 01b8 FFF7FEFF 		bl	CyBle_GapDisconnect
 464:.\application.c ****                             return ;
 1043              		.loc 1 464 0
 1044 01bc 584B     		ldr	r3, .L80+24
 1045 01be 0122     		mov	r2, #1
 1046 01c0 1A70     		strb	r2, [r3]
 465:.\application.c ****                         }
 1047              		.loc 1 465 0
 1048 01c2 9EE0     		b	.L37
 1049              	.L66:
 469:.\application.c ****                             WriteCmd.value.len=8;//ÂèëÈÄÅÁöÑÊï∞ÊçÆÈïøÂ∫¶‰∏∫8‰∏™Â≠óËäÇ
 1050              		.loc 1 469 0
 1051 01c4 574B     		ldr	r3, .L80+28
 1052 01c6 1322     		mov	r2, #19
 1053 01c8 1A81     		strh	r2, [r3, #8]
 470:.\application.c ****                             WriteCmd.value.val = (uint8_t *)CommandList[Button.Button5_On_Off^1];//
 1054              		.loc 1 470 0
 1055 01ca 564B     		ldr	r3, .L80+28
 1056 01cc 0822     		mov	r2, #8
 1057 01ce 9A80     		strh	r2, [r3, #4]
 471:.\application.c ****                             API_RESULT=CyBle_GattcWriteWithoutResponse(cyBle_connHandle, &WriteCmd)
 1058              		.loc 1 471 0
 1059 01d0 514B     		ldr	r3, .L80+16
ARM GAS  C:\Users\ADMINI~1\AppData\Local\Temp\ccm0G0A3.s 			page 31


 1060 01d2 1B79     		ldrb	r3, [r3, #4]
 1061 01d4 0122     		mov	r2, #1
 1062 01d6 5340     		eor	r3, r2
 1063 01d8 DBB2     		uxtb	r3, r3
 1064 01da 1A1C     		mov	r2, r3
 1065 01dc 4A4B     		ldr	r3, .L80
 1066 01de 9200     		lsl	r2, r2, #2
 1067 01e0 D258     		ldr	r2, [r2, r3]
 1068 01e2 504B     		ldr	r3, .L80+28
 1069 01e4 1A60     		str	r2, [r3]
 472:.\application.c ****                             if(API_RESULT == CYBLE_ERROR_OK)//ÊéßÂà∂ÂëΩ‰ª§ÂèëÈÄÅÊàêÂäüÔºåÂàôÊñ≠ÂºÄË
 1070              		.loc 1 472 0
 1071 01e6 0E23     		mov	r3, #14
 1072 01e8 FC18     		add	r4, r7, r3
 1073 01ea 4C4B     		ldr	r3, .L80+20
 1074 01ec 4D49     		ldr	r1, .L80+28
 1075 01ee 1A78     		ldrb	r2, [r3]
 1076 01f0 5B78     		ldrb	r3, [r3, #1]
 1077 01f2 1B02     		lsl	r3, r3, #8
 1078 01f4 1A43     		orr	r2, r3
 1079 01f6 0023     		mov	r3, #0
 1080 01f8 1204     		lsl	r2, r2, #16
 1081 01fa 120C     		lsr	r2, r2, #16
 1082 01fc 1B0C     		lsr	r3, r3, #16
 1083 01fe 1B04     		lsl	r3, r3, #16
 1084 0200 1343     		orr	r3, r2
 1085 0202 181C     		mov	r0, r3
 1086 0204 FFF7FEFF 		bl	CyBle_GattcWriteWithoutResponse
 1087 0208 031C     		mov	r3, r0
 1088 020a 2380     		strh	r3, [r4]
 473:.\application.c ****                             {
 1089              		.loc 1 473 0
 1090 020c 0E23     		mov	r3, #14
 1091 020e FB18     		add	r3, r7, r3
 1092 0210 1B88     		ldrh	r3, [r3]
 1093 0212 002B     		cmp	r3, #0
 1094 0214 00D1     		bne	.L67
 477:.\application.c ****                             }                            
 1095              		.loc 1 477 0 discriminator 4
 1096 0216 74E0     		b	.L37
 1097              	.L67:
 480:.\application.c ****                     default:
 1098              		.loc 1 480 0
 1099 0218 00E0     		b	.L58
 1100              	.L79:
 482:.\application.c ****                 }
 1101              		.loc 1 482 0
 1102 021a C046     		mov	r8, r8
 1103              	.L58:
 485:.\application.c ****             WriteCmd.value.len=8;//ÂèëÈÄÅÁöÑÊï∞ÊçÆÈïøÂ∫¶‰∏∫8‰∏™Â≠óËäÇ
 1104              		.loc 1 485 0
 1105 021c 414B     		ldr	r3, .L80+28
 1106 021e 1322     		mov	r2, #19
 1107 0220 1A81     		strh	r2, [r3, #8]
 486:.\application.c ****             switch(ButtonType)
 1108              		.loc 1 486 0
 1109 0222 404B     		ldr	r3, .L80+28
ARM GAS  C:\Users\ADMINI~1\AppData\Local\Temp\ccm0G0A3.s 			page 32


 1110 0224 0822     		mov	r2, #8
 1111 0226 9A80     		strh	r2, [r3, #4]
 487:.\application.c ****             {
 1112              		.loc 1 487 0
 1113 0228 394B     		ldr	r3, .L80+8
 1114 022a 1B78     		ldrb	r3, [r3]
 1115 022c 012B     		cmp	r3, #1
 1116 022e 14D0     		beq	.L69
 1117 0230 02DC     		bgt	.L70
 1118 0232 002B     		cmp	r3, #0
 1119 0234 05D0     		beq	.L71
 502:.\application.c ****             }
 1120              		.loc 1 502 0
 1121 0236 34E0     		b	.L74
 1122              	.L70:
 487:.\application.c ****             {
 1123              		.loc 1 487 0
 1124 0238 022B     		cmp	r3, #2
 1125 023a 1AD0     		beq	.L72
 1126 023c 032B     		cmp	r3, #3
 1127 023e 24D0     		beq	.L73
 502:.\application.c ****             }
 1128              		.loc 1 502 0
 1129 0240 2FE0     		b	.L74
 1130              	.L71:
 490:.\application.c ****                 break;
 1131              		.loc 1 490 0
 1132 0242 354B     		ldr	r3, .L80+16
 1133 0244 1B78     		ldrb	r3, [r3]
 1134 0246 0122     		mov	r2, #1
 1135 0248 5340     		eor	r3, r2
 1136 024a DBB2     		uxtb	r3, r3
 1137 024c 1A1C     		mov	r2, r3
 1138 024e 2E4B     		ldr	r3, .L80
 1139 0250 9200     		lsl	r2, r2, #2
 1140 0252 D258     		ldr	r2, [r2, r3]
 1141 0254 334B     		ldr	r3, .L80+28
 1142 0256 1A60     		str	r2, [r3]
 491:.\application.c ****                 case BUTTON2:
 1143              		.loc 1 491 0
 1144 0258 23E0     		b	.L74
 1145              	.L69:
 493:.\application.c ****                 break;
 1146              		.loc 1 493 0
 1147 025a 2F4B     		ldr	r3, .L80+16
 1148 025c 5B78     		ldrb	r3, [r3, #1]
 1149 025e 0122     		mov	r2, #1
 1150 0260 5340     		eor	r3, r2
 1151 0262 DBB2     		uxtb	r3, r3
 1152 0264 1A1C     		mov	r2, r3
 1153 0266 284B     		ldr	r3, .L80
 1154 0268 9200     		lsl	r2, r2, #2
 1155 026a D258     		ldr	r2, [r2, r3]
 1156 026c 2D4B     		ldr	r3, .L80+28
 1157 026e 1A60     		str	r2, [r3]
 494:.\application.c ****                 case BUTTON3:
 1158              		.loc 1 494 0
ARM GAS  C:\Users\ADMINI~1\AppData\Local\Temp\ccm0G0A3.s 			page 33


 1159 0270 17E0     		b	.L74
 1160              	.L72:
 496:.\application.c ****                 break;
 1161              		.loc 1 496 0
 1162 0272 294B     		ldr	r3, .L80+16
 1163 0274 9B78     		ldrb	r3, [r3, #2]
 1164 0276 0122     		mov	r2, #1
 1165 0278 5340     		eor	r3, r2
 1166 027a DBB2     		uxtb	r3, r3
 1167 027c 1A1C     		mov	r2, r3
 1168 027e 224B     		ldr	r3, .L80
 1169 0280 9200     		lsl	r2, r2, #2
 1170 0282 D258     		ldr	r2, [r2, r3]
 1171 0284 274B     		ldr	r3, .L80+28
 1172 0286 1A60     		str	r2, [r3]
 497:.\application.c ****                 case BUTTON4:
 1173              		.loc 1 497 0
 1174 0288 0BE0     		b	.L74
 1175              	.L73:
 499:.\application.c ****                 break;
 1176              		.loc 1 499 0
 1177 028a 234B     		ldr	r3, .L80+16
 1178 028c DB78     		ldrb	r3, [r3, #3]
 1179 028e 0122     		mov	r2, #1
 1180 0290 5340     		eor	r3, r2
 1181 0292 DBB2     		uxtb	r3, r3
 1182 0294 1A1C     		mov	r2, r3
 1183 0296 1C4B     		ldr	r3, .L80
 1184 0298 9200     		lsl	r2, r2, #2
 1185 029a D258     		ldr	r2, [r2, r3]
 1186 029c 214B     		ldr	r3, .L80+28
 1187 029e 1A60     		str	r2, [r3]
 500:.\application.c ****                 default:
 1188              		.loc 1 500 0
 1189 02a0 C046     		mov	r8, r8
 1190              	.L74:
 504:.\application.c ****             if(API_RESULT == CYBLE_ERROR_OK)//ÊéßÂà∂ÂëΩ‰ª§ÂèëÈÄÅÊàêÂäüÔºåÂàôÊñ≠ÂºÄËøûÊé•
 1191              		.loc 1 504 0
 1192 02a2 0E23     		mov	r3, #14
 1193 02a4 FC18     		add	r4, r7, r3
 1194 02a6 1D4B     		ldr	r3, .L80+20
 1195 02a8 1E49     		ldr	r1, .L80+28
 1196 02aa 1A78     		ldrb	r2, [r3]
 1197 02ac 5B78     		ldrb	r3, [r3, #1]
 1198 02ae 1B02     		lsl	r3, r3, #8
 1199 02b0 1A43     		orr	r2, r3
 1200 02b2 0023     		mov	r3, #0
 1201 02b4 1204     		lsl	r2, r2, #16
 1202 02b6 120C     		lsr	r2, r2, #16
 1203 02b8 1B0C     		lsr	r3, r3, #16
 1204 02ba 1B04     		lsl	r3, r3, #16
 1205 02bc 1343     		orr	r3, r2
 1206 02be 181C     		mov	r0, r3
 1207 02c0 FFF7FEFF 		bl	CyBle_GattcWriteWithoutResponse
 1208 02c4 031C     		mov	r3, r0
 1209 02c6 2380     		strh	r3, [r4]
 509:.\application.c ****         case NTF:
ARM GAS  C:\Users\ADMINI~1\AppData\Local\Temp\ccm0G0A3.s 			page 34


 1210              		.loc 1 509 0
 1211 02c8 1BE0     		b	.L37
 1212              	.L44:
 517:.\application.c ****             if(API_RESULT == CYBLE_ERROR_OK)//ÊéßÂà∂ÂëΩ‰ª§ÂèëÈÄÅÊàêÂäüÔºåÂàôÊñ≠ÂºÄËøûÊé•
 1213              		.loc 1 517 0
 1214 02ca 144B     		ldr	r3, .L80+20
 1215 02cc 1B78     		ldrb	r3, [r3]
 1216 02ce 0E22     		mov	r2, #14
 1217 02d0 BC18     		add	r4, r7, r2
 1218 02d2 181C     		mov	r0, r3
 1219 02d4 FFF7FEFF 		bl	CyBle_GapDisconnect
 1220 02d8 031C     		mov	r3, r0
 1221 02da 2380     		strh	r3, [r4]
 518:.\application.c ****             {
 1222              		.loc 1 518 0
 1223 02dc 0E23     		mov	r3, #14
 1224 02de FB18     		add	r3, r7, r3
 1225 02e0 1B88     		ldrh	r3, [r3]
 1226 02e2 002B     		cmp	r3, #0
 1227 02e4 03D1     		bne	.L75
 521:.\application.c ****                 #endif
 1228              		.loc 1 521 0
 1229 02e6 114B     		ldr	r3, .L80+36
 1230 02e8 181C     		mov	r0, r3
 1231 02ea FFF7FEFF 		bl	puts
 1232              	.L75:
 524:.\application.c ****             {
 1233              		.loc 1 524 0
 1234 02ee 084B     		ldr	r3, .L80+8
 1235 02f0 1B78     		ldrb	r3, [r3]
 1236 02f2 042B     		cmp	r3, #4
 1237 02f4 03D1     		bne	.L76
 526:.\application.c ****             }
 1238              		.loc 1 526 0
 1239 02f6 0A4B     		ldr	r3, .L80+24
 1240 02f8 0122     		mov	r2, #1
 1241 02fa 1A70     		strb	r2, [r3]
 528:.\application.c ****         default:
 1242              		.loc 1 528 0
 1243 02fc 01E0     		b	.L37
 1244              	.L76:
 528:.\application.c ****         default:
 1245              		.loc 1 528 0 is_stmt 0 discriminator 7
 1246 02fe 00E0     		b	.L37
 1247              	.L77:
 515:.\application.c ****         case ON_OFF:            
 1248              		.loc 1 515 0 is_stmt 1
 1249 0300 C046     		mov	r8, r8
 1250              	.L37:
 531:.\application.c ****     }
 532:.\application.c **** }
 1251              		.loc 1 532 0
 1252 0302 BD46     		mov	sp, r7
 1253 0304 07B0     		add	sp, sp, #28
 1254              		@ sp needed
 1255 0306 90BD     		pop	{r4, r7, pc}
 1256              	.L81:
ARM GAS  C:\Users\ADMINI~1\AppData\Local\Temp\ccm0G0A3.s 			page 35


 1257              		.align	2
 1258              	.L80:
 1259 0308 00000000 		.word	CommandList
 1260 030c 00000000 		.word	CommandListLen
 1261 0310 00000000 		.word	ButtonType
 1262 0314 AC000000 		.word	.L49
 1263 0318 00000000 		.word	Button
 1264 031c 00000000 		.word	cyBle_connHandle
 1265 0320 00000000 		.word	ALL_ON_OFF
 1266 0324 00000000 		.word	WriteCmd
 1267 0328 C0000000 		.word	.L61
 1268 032c 94000000 		.word	.LC31
 1269              		.cfi_endproc
 1270              	.LFE43:
 1271              		.size	ServerData_Handler, .-ServerData_Handler
 1272              		.section	.text.SystemInit,"ax",%progbits
 1273              		.align	2
 1274              		.global	SystemInit
 1275              		.code	16
 1276              		.thumb_func
 1277              		.type	SystemInit, %function
 1278              	SystemInit:
 1279              	.LFB44:
 533:.\application.c **** 
 534:.\application.c **** /******************************************
 535:.\application.c ****   * @ÂáΩÊï∞ÂêçÔºöSystemInit
 536:.\application.c ****   * @ËæìÂÖ•Ôºö  NULL 
 537:.\application.c ****   * @ËøîÂõûÔºö  NULL            
 538:.\application.c ****   * @ÊèèËø∞Ôºö  Á≥ªÁªüÂàùÂßãÂåñ
 539:.\application.c ****   *****************************************
 540:.\application.c **** */
 541:.\application.c **** void SystemInit(void)
 542:.\application.c **** {   
 1280              		.loc 1 542 0
 1281              		.cfi_startproc
 1282 0000 80B5     		push	{r7, lr}
 1283              		.cfi_def_cfa_offset 8
 1284              		.cfi_offset 7, -8
 1285              		.cfi_offset 14, -4
 1286 0002 00AF     		add	r7, sp, #0
 1287              		.cfi_def_cfa_register 7
 543:.\application.c ****     UART_Start();
 1288              		.loc 1 543 0
 1289 0004 FFF7FEFF 		bl	UART_Start
 544:.\application.c ****     isr_Button_StartEx(BT1_IntHandler);
 1290              		.loc 1 544 0
 1291 0008 044B     		ldr	r3, .L83
 1292 000a 181C     		mov	r0, r3
 1293 000c FFF7FEFF 		bl	isr_Button_StartEx
 545:.\application.c **** //    isr_Button2_StartEx(BT2_IntHandler);
 546:.\application.c **** //    isr_Button3_StartEx(BT3_IntHandler);
 547:.\application.c **** //    isr_Button4_StartEx(BT4_IntHandler);
 548:.\application.c ****     CyBle_Start(StackEventHandler);//BLEÂçèËÆÆÊ†àÂàùÂßãÂåñ    
 1294              		.loc 1 548 0
 1295 0010 034B     		ldr	r3, .L83+4
 1296 0012 181C     		mov	r0, r3
 1297 0014 FFF7FEFF 		bl	CyBle_Start
ARM GAS  C:\Users\ADMINI~1\AppData\Local\Temp\ccm0G0A3.s 			page 36


 549:.\application.c **** }
 1298              		.loc 1 549 0
 1299 0018 BD46     		mov	sp, r7
 1300              		@ sp needed
 1301 001a 80BD     		pop	{r7, pc}
 1302              	.L84:
 1303              		.align	2
 1304              	.L83:
 1305 001c 00000000 		.word	BT1_IntHandler
 1306 0020 00000000 		.word	StackEventHandler
 1307              		.cfi_endproc
 1308              	.LFE44:
 1309              		.size	SystemInit, .-SystemInit
 1310              		.section	.rodata
 1311              		.align	2
 1312              	.LC38:
 1313 00d4 42757474 		.ascii	"Button1 is pressed!\015\000"
 1313      6F6E3120 
 1313      69732070 
 1313      72657373 
 1313      6564210D 
 1314 00e9 000000   		.align	2
 1315              	.LC40:
 1316 00ec 42757474 		.ascii	"Button2 is pressed!\015\000"
 1316      6F6E3220 
 1316      69732070 
 1316      72657373 
 1316      6564210D 
 1317 0101 000000   		.align	2
 1318              	.LC42:
 1319 0104 42757474 		.ascii	"Button3 is pressed!\015\000"
 1319      6F6E3320 
 1319      69732070 
 1319      72657373 
 1319      6564210D 
 1320 0119 000000   		.align	2
 1321              	.LC44:
 1322 011c 42757474 		.ascii	"Button4 is pressed!\015\000"
 1322      6F6E3420 
 1322      69732070 
 1322      72657373 
 1322      6564210D 
 1323 0131 000000   		.align	2
 1324              	.LC46:
 1325 0134 42757474 		.ascii	"Button5 is pressed!\015\000"
 1325      6F6E3520 
 1325      69732070 
 1325      72657373 
 1325      6564210D 
 1326              		.section	.text.BT1_IntHandler,"ax",%progbits
 1327              		.align	2
 1328              		.global	BT1_IntHandler
 1329              		.code	16
 1330              		.thumb_func
 1331              		.type	BT1_IntHandler, %function
 1332              	BT1_IntHandler:
 1333              	.LFB45:
ARM GAS  C:\Users\ADMINI~1\AppData\Local\Temp\ccm0G0A3.s 			page 37


 550:.\application.c **** 
 551:.\application.c **** /******************************************
 552:.\application.c ****   * @ÂáΩÊï∞ÂêçÔºöBT1_IntHandler
 553:.\application.c ****   * @ËæìÂÖ•Ôºö  NULL              
 554:.\application.c ****   * @ËøîÂõûÔºö  NULL            
 555:.\application.c ****   * @ÊèèËø∞Ôºö  Â§ÑÁêÜÊåâÈîÆ1‰∫ã‰ª∂
 556:.\application.c ****   *****************************************
 557:.\application.c **** */
 558:.\application.c **** CY_ISR(BT1_IntHandler)
 559:.\application.c **** {   
 1334              		.loc 1 559 0
 1335              		.cfi_startproc
 1336 0000 90B5     		push	{r4, r7, lr}
 1337              		.cfi_def_cfa_offset 12
 1338              		.cfi_offset 4, -12
 1339              		.cfi_offset 7, -8
 1340              		.cfi_offset 14, -4
 1341 0002 83B0     		sub	sp, sp, #12
 1342              		.cfi_def_cfa_offset 24
 1343 0004 00AF     		add	r7, sp, #0
 1344              		.cfi_def_cfa_register 7
 560:.\application.c ****     uint8_t IntPin;    
 561:.\application.c ****     CyDelay(200);
 1345              		.loc 1 561 0
 1346 0006 C820     		mov	r0, #200
 1347 0008 FFF7FEFF 		bl	CyDelay
 562:.\application.c ****     IntPin=Button_ClearInterrupt();
 1348              		.loc 1 562 0
 1349 000c FC1D     		add	r4, r7, #7
 1350 000e FFF7FEFF 		bl	Button_ClearInterrupt
 1351 0012 031C     		mov	r3, r0
 1352 0014 2370     		strb	r3, [r4]
 563:.\application.c **** //    isr_Button_ClearPending();
 564:.\application.c **** //    IntPin = Button_INTSTAT;
 565:.\application.c ****     #ifdef PRINT
 566:.\application.c **** //        printf("IntPin is %d!\r\n",IntPin);
 567:.\application.c ****     #endif
 568:.\application.c ****     switch(IntPin)
 1353              		.loc 1 568 0
 1354 0016 FB1D     		add	r3, r7, #7
 1355 0018 1B78     		ldrb	r3, [r3]
 1356 001a 102B     		cmp	r3, #16
 1357 001c 3BD8     		bhi	.L94
 1358 001e 9A00     		lsl	r2, r3, #2
 1359 0020 1F4B     		ldr	r3, .L95
 1360 0022 D318     		add	r3, r2, r3
 1361 0024 1B68     		ldr	r3, [r3]
 1362 0026 9F46     		mov	pc, r3
 1363              		.section	.rodata
 1364 0149 000000   		.align	2
 1365              	.L88:
 1366 014c 96000000 		.word	.L94
 1367 0150 28000000 		.word	.L87
 1368 0154 3E000000 		.word	.L89
 1369 0158 96000000 		.word	.L94
 1370 015c 54000000 		.word	.L90
 1371 0160 96000000 		.word	.L94
ARM GAS  C:\Users\ADMINI~1\AppData\Local\Temp\ccm0G0A3.s 			page 38


 1372 0164 96000000 		.word	.L94
 1373 0168 96000000 		.word	.L94
 1374 016c 6A000000 		.word	.L91
 1375 0170 96000000 		.word	.L94
 1376 0174 96000000 		.word	.L94
 1377 0178 96000000 		.word	.L94
 1378 017c 96000000 		.word	.L94
 1379 0180 96000000 		.word	.L94
 1380 0184 96000000 		.word	.L94
 1381 0188 96000000 		.word	.L94
 1382 018c 80000000 		.word	.L92
 1383              		.section	.text.BT1_IntHandler
 1384              	.L87:
 569:.\application.c ****     {
 570:.\application.c ****         case 0x01:
 571:.\application.c ****             ButtonStatus=BUTTON1_DOWN;
 1385              		.loc 1 571 0
 1386 0028 1E4B     		ldr	r3, .L95+4
 1387 002a 0022     		mov	r2, #0
 1388 002c 1A70     		strb	r2, [r3]
 572:.\application.c ****             ButtonType=BUTTON1;
 1389              		.loc 1 572 0
 1390 002e 1E4B     		ldr	r3, .L95+8
 1391 0030 0022     		mov	r2, #0
 1392 0032 1A70     		strb	r2, [r3]
 573:.\application.c ****             #ifdef PRINT
 574:.\application.c ****                 printf("Button1 is pressed!\r\n");
 1393              		.loc 1 574 0
 1394 0034 1D4B     		ldr	r3, .L95+12
 1395 0036 181C     		mov	r0, r3
 1396 0038 FFF7FEFF 		bl	puts
 575:.\application.c ****             #endif
 576:.\application.c ****         break;
 1397              		.loc 1 576 0
 1398 003c 2CE0     		b	.L85
 1399              	.L89:
 577:.\application.c ****         case 0x02:
 578:.\application.c ****             ButtonStatus=BUTTON2_DOWN;
 1400              		.loc 1 578 0
 1401 003e 194B     		ldr	r3, .L95+4
 1402 0040 0122     		mov	r2, #1
 1403 0042 1A70     		strb	r2, [r3]
 579:.\application.c ****             ButtonType=BUTTON2;   
 1404              		.loc 1 579 0
 1405 0044 184B     		ldr	r3, .L95+8
 1406 0046 0122     		mov	r2, #1
 1407 0048 1A70     		strb	r2, [r3]
 580:.\application.c ****             #ifdef PRINT
 581:.\application.c ****                 printf("Button2 is pressed!\r\n");
 1408              		.loc 1 581 0
 1409 004a 194B     		ldr	r3, .L95+16
 1410 004c 181C     		mov	r0, r3
 1411 004e FFF7FEFF 		bl	puts
 582:.\application.c ****             #endif
 583:.\application.c ****         break;
 1412              		.loc 1 583 0
 1413 0052 21E0     		b	.L85
ARM GAS  C:\Users\ADMINI~1\AppData\Local\Temp\ccm0G0A3.s 			page 39


 1414              	.L90:
 584:.\application.c ****         case 0x04:
 585:.\application.c ****             ButtonStatus=BUTTON3_DOWN;
 1415              		.loc 1 585 0
 1416 0054 134B     		ldr	r3, .L95+4
 1417 0056 0222     		mov	r2, #2
 1418 0058 1A70     		strb	r2, [r3]
 586:.\application.c ****             ButtonType=BUTTON3;
 1419              		.loc 1 586 0
 1420 005a 134B     		ldr	r3, .L95+8
 1421 005c 0222     		mov	r2, #2
 1422 005e 1A70     		strb	r2, [r3]
 587:.\application.c ****             #ifdef PRINT
 588:.\application.c ****                 printf("Button3 is pressed!\r\n");
 1423              		.loc 1 588 0
 1424 0060 144B     		ldr	r3, .L95+20
 1425 0062 181C     		mov	r0, r3
 1426 0064 FFF7FEFF 		bl	puts
 589:.\application.c ****             #endif
 590:.\application.c ****         break;
 1427              		.loc 1 590 0
 1428 0068 16E0     		b	.L85
 1429              	.L91:
 591:.\application.c ****         case 0x08:
 592:.\application.c ****             ButtonStatus=BUTTON4_DOWN;
 1430              		.loc 1 592 0
 1431 006a 0E4B     		ldr	r3, .L95+4
 1432 006c 0322     		mov	r2, #3
 1433 006e 1A70     		strb	r2, [r3]
 593:.\application.c ****             ButtonType=BUTTON4;
 1434              		.loc 1 593 0
 1435 0070 0D4B     		ldr	r3, .L95+8
 1436 0072 0322     		mov	r2, #3
 1437 0074 1A70     		strb	r2, [r3]
 594:.\application.c ****             #ifdef PRINT
 595:.\application.c ****                 printf("Button4 is pressed!\r\n");
 1438              		.loc 1 595 0
 1439 0076 104B     		ldr	r3, .L95+24
 1440 0078 181C     		mov	r0, r3
 1441 007a FFF7FEFF 		bl	puts
 596:.\application.c ****             #endif
 597:.\application.c ****         break;
 1442              		.loc 1 597 0
 1443 007e 0BE0     		b	.L85
 1444              	.L92:
 598:.\application.c ****         case 0x10:
 599:.\application.c ****         ButtonStatus=BUTTON5_DOWN;
 1445              		.loc 1 599 0
 1446 0080 084B     		ldr	r3, .L95+4
 1447 0082 0422     		mov	r2, #4
 1448 0084 1A70     		strb	r2, [r3]
 600:.\application.c ****         ButtonType=BUTTON5;
 1449              		.loc 1 600 0
 1450 0086 084B     		ldr	r3, .L95+8
 1451 0088 0422     		mov	r2, #4
 1452 008a 1A70     		strb	r2, [r3]
 601:.\application.c ****         #ifdef PRINT
ARM GAS  C:\Users\ADMINI~1\AppData\Local\Temp\ccm0G0A3.s 			page 40


 602:.\application.c ****             printf("Button5 is pressed!\r\n");
 1453              		.loc 1 602 0
 1454 008c 0B4B     		ldr	r3, .L95+28
 1455 008e 181C     		mov	r0, r3
 1456 0090 FFF7FEFF 		bl	puts
 603:.\application.c ****         #endif
 604:.\application.c ****         break;
 1457              		.loc 1 604 0
 1458 0094 00E0     		b	.L85
 1459              	.L94:
 605:.\application.c ****         default:
 606:.\application.c ****         break;
 1460              		.loc 1 606 0
 1461 0096 C046     		mov	r8, r8
 1462              	.L85:
 607:.\application.c ****     }    
 608:.\application.c **** //    Button_ClearInterrupt();
 609:.\application.c **** //    isr_Button1_ClearPending();
 610:.\application.c **** //    Button1_ClearInterrupt();
 611:.\application.c **** //    Switch_On_Off=Switch_On_Off^SWTICH_ON;
 612:.\application.c **** }
 1463              		.loc 1 612 0
 1464 0098 BD46     		mov	sp, r7
 1465 009a 03B0     		add	sp, sp, #12
 1466              		@ sp needed
 1467 009c 90BD     		pop	{r4, r7, pc}
 1468              	.L96:
 1469 009e C046     		.align	2
 1470              	.L95:
 1471 00a0 4C010000 		.word	.L88
 1472 00a4 00000000 		.word	ButtonStatus
 1473 00a8 00000000 		.word	ButtonType
 1474 00ac D4000000 		.word	.LC38
 1475 00b0 EC000000 		.word	.LC40
 1476 00b4 04010000 		.word	.LC42
 1477 00b8 1C010000 		.word	.LC44
 1478 00bc 34010000 		.word	.LC46
 1479              		.cfi_endproc
 1480              	.LFE45:
 1481              		.size	BT1_IntHandler, .-BT1_IntHandler
 1482              		.section	.text.BT2_IntHandler,"ax",%progbits
 1483              		.align	2
 1484              		.global	BT2_IntHandler
 1485              		.code	16
 1486              		.thumb_func
 1487              		.type	BT2_IntHandler, %function
 1488              	BT2_IntHandler:
 1489              	.LFB46:
 613:.\application.c **** 
 614:.\application.c **** /******************************************
 615:.\application.c ****   * @ÂáΩÊï∞ÂêçÔºöBT2_IntHandler
 616:.\application.c ****   * @ËæìÂÖ•Ôºö  NULL              
 617:.\application.c ****   * @ËøîÂõûÔºö  NULL            
 618:.\application.c ****   * @ÊèèËø∞Ôºö  Â§ÑÁêÜÊåâÈîÆ2‰∫ã‰ª∂
 619:.\application.c ****   *****************************************
 620:.\application.c **** */
 621:.\application.c **** CY_ISR(BT2_IntHandler)
ARM GAS  C:\Users\ADMINI~1\AppData\Local\Temp\ccm0G0A3.s 			page 41


 622:.\application.c **** {    
 1490              		.loc 1 622 0
 1491              		.cfi_startproc
 1492 0000 80B5     		push	{r7, lr}
 1493              		.cfi_def_cfa_offset 8
 1494              		.cfi_offset 7, -8
 1495              		.cfi_offset 14, -4
 1496 0002 00AF     		add	r7, sp, #0
 1497              		.cfi_def_cfa_register 7
 623:.\application.c ****     ButtonStatus=BUTTON2_DOWN;
 1498              		.loc 1 623 0
 1499 0004 054B     		ldr	r3, .L98
 1500 0006 0122     		mov	r2, #1
 1501 0008 1A70     		strb	r2, [r3]
 624:.\application.c ****     ButtonType=BUTTON2;   
 1502              		.loc 1 624 0
 1503 000a 054B     		ldr	r3, .L98+4
 1504 000c 0122     		mov	r2, #1
 1505 000e 1A70     		strb	r2, [r3]
 625:.\application.c ****     #ifdef PRINT
 626:.\application.c ****         printf("Button2 is pressed!\r\n");
 1506              		.loc 1 626 0
 1507 0010 044B     		ldr	r3, .L98+8
 1508 0012 181C     		mov	r0, r3
 1509 0014 FFF7FEFF 		bl	puts
 627:.\application.c ****     #endif
 628:.\application.c **** //    isr_Button2_ClearPending();
 629:.\application.c **** //    Button2_ClearInterrupt();
 630:.\application.c **** }
 1510              		.loc 1 630 0
 1511 0018 BD46     		mov	sp, r7
 1512              		@ sp needed
 1513 001a 80BD     		pop	{r7, pc}
 1514              	.L99:
 1515              		.align	2
 1516              	.L98:
 1517 001c 00000000 		.word	ButtonStatus
 1518 0020 00000000 		.word	ButtonType
 1519 0024 EC000000 		.word	.LC40
 1520              		.cfi_endproc
 1521              	.LFE46:
 1522              		.size	BT2_IntHandler, .-BT2_IntHandler
 1523              		.section	.text.BT3_IntHandler,"ax",%progbits
 1524              		.align	2
 1525              		.global	BT3_IntHandler
 1526              		.code	16
 1527              		.thumb_func
 1528              		.type	BT3_IntHandler, %function
 1529              	BT3_IntHandler:
 1530              	.LFB47:
 631:.\application.c **** /******************************************
 632:.\application.c ****   * @ÂáΩÊï∞ÂêçÔºöBT3_IntHandler
 633:.\application.c ****   * @ËæìÂÖ•Ôºö  NULL              
 634:.\application.c ****   * @ËøîÂõûÔºö  NULL            
 635:.\application.c ****   * @ÊèèËø∞Ôºö  Â§ÑÁêÜÊåâÈîÆ3‰∫ã‰ª∂
 636:.\application.c ****   *****************************************
 637:.\application.c **** */
ARM GAS  C:\Users\ADMINI~1\AppData\Local\Temp\ccm0G0A3.s 			page 42


 638:.\application.c **** CY_ISR(BT3_IntHandler)
 639:.\application.c **** {    
 1531              		.loc 1 639 0
 1532              		.cfi_startproc
 1533 0000 80B5     		push	{r7, lr}
 1534              		.cfi_def_cfa_offset 8
 1535              		.cfi_offset 7, -8
 1536              		.cfi_offset 14, -4
 1537 0002 00AF     		add	r7, sp, #0
 1538              		.cfi_def_cfa_register 7
 640:.\application.c ****     ButtonStatus=BUTTON3_DOWN;
 1539              		.loc 1 640 0
 1540 0004 054B     		ldr	r3, .L101
 1541 0006 0222     		mov	r2, #2
 1542 0008 1A70     		strb	r2, [r3]
 641:.\application.c ****     ButtonType=BUTTON3;
 1543              		.loc 1 641 0
 1544 000a 054B     		ldr	r3, .L101+4
 1545 000c 0222     		mov	r2, #2
 1546 000e 1A70     		strb	r2, [r3]
 642:.\application.c ****     #ifdef PRINT
 643:.\application.c ****         printf("Button3 is pressed!\r\n");
 1547              		.loc 1 643 0
 1548 0010 044B     		ldr	r3, .L101+8
 1549 0012 181C     		mov	r0, r3
 1550 0014 FFF7FEFF 		bl	puts
 644:.\application.c ****     #endif
 645:.\application.c **** //    isr_Button3_ClearPending();
 646:.\application.c **** //    Button3_ClearInterrupt();
 647:.\application.c **** }
 1551              		.loc 1 647 0
 1552 0018 BD46     		mov	sp, r7
 1553              		@ sp needed
 1554 001a 80BD     		pop	{r7, pc}
 1555              	.L102:
 1556              		.align	2
 1557              	.L101:
 1558 001c 00000000 		.word	ButtonStatus
 1559 0020 00000000 		.word	ButtonType
 1560 0024 04010000 		.word	.LC42
 1561              		.cfi_endproc
 1562              	.LFE47:
 1563              		.size	BT3_IntHandler, .-BT3_IntHandler
 1564              		.section	.text.BT4_IntHandler,"ax",%progbits
 1565              		.align	2
 1566              		.global	BT4_IntHandler
 1567              		.code	16
 1568              		.thumb_func
 1569              		.type	BT4_IntHandler, %function
 1570              	BT4_IntHandler:
 1571              	.LFB48:
 648:.\application.c **** /******************************************
 649:.\application.c ****   * @ÂáΩÊï∞ÂêçÔºöBT4_IntHandler
 650:.\application.c ****   * @ËæìÂÖ•Ôºö  NULL
 651:.\application.c ****   * @ËøîÂõûÔºö  NULL            
 652:.\application.c ****   * @ÊèèËø∞Ôºö  Â§ÑÁêÜÊåâÈîÆ4‰∫ã‰ª∂
 653:.\application.c ****   *****************************************
ARM GAS  C:\Users\ADMINI~1\AppData\Local\Temp\ccm0G0A3.s 			page 43


 654:.\application.c **** */
 655:.\application.c **** CY_ISR(BT4_IntHandler)
 656:.\application.c **** {    
 1572              		.loc 1 656 0
 1573              		.cfi_startproc
 1574 0000 80B5     		push	{r7, lr}
 1575              		.cfi_def_cfa_offset 8
 1576              		.cfi_offset 7, -8
 1577              		.cfi_offset 14, -4
 1578 0002 00AF     		add	r7, sp, #0
 1579              		.cfi_def_cfa_register 7
 657:.\application.c ****     ButtonStatus=BUTTON4_DOWN;
 1580              		.loc 1 657 0
 1581 0004 054B     		ldr	r3, .L104
 1582 0006 0322     		mov	r2, #3
 1583 0008 1A70     		strb	r2, [r3]
 658:.\application.c ****     ButtonType=BUTTON4;
 1584              		.loc 1 658 0
 1585 000a 054B     		ldr	r3, .L104+4
 1586 000c 0322     		mov	r2, #3
 1587 000e 1A70     		strb	r2, [r3]
 659:.\application.c ****     #ifdef PRINT
 660:.\application.c ****         printf("Button4 is pressed!\r\n");
 1588              		.loc 1 660 0
 1589 0010 044B     		ldr	r3, .L104+8
 1590 0012 181C     		mov	r0, r3
 1591 0014 FFF7FEFF 		bl	puts
 661:.\application.c ****     #endif
 662:.\application.c **** //    isr_Button4_ClearPending();
 663:.\application.c **** //    Button4_ClearInterrupt();
 664:.\application.c **** }
 1592              		.loc 1 664 0
 1593 0018 BD46     		mov	sp, r7
 1594              		@ sp needed
 1595 001a 80BD     		pop	{r7, pc}
 1596              	.L105:
 1597              		.align	2
 1598              	.L104:
 1599 001c 00000000 		.word	ButtonStatus
 1600 0020 00000000 		.word	ButtonType
 1601 0024 1C010000 		.word	.LC44
 1602              		.cfi_endproc
 1603              	.LFE48:
 1604              		.size	BT4_IntHandler, .-BT4_IntHandler
 1605              		.section	.text.ButtonHandler,"ax",%progbits
 1606              		.align	2
 1607              		.global	ButtonHandler
 1608              		.code	16
 1609              		.thumb_func
 1610              		.type	ButtonHandler, %function
 1611              	ButtonHandler:
 1612              	.LFB49:
 665:.\application.c **** 
 666:.\application.c **** /******************************************
 667:.\application.c ****   * @ÂáΩÊï∞ÂêçÔºöButtonHandler
 668:.\application.c ****   * @ËæìÂÖ•Ôºö  NULL
 669:.\application.c ****   * @ËøîÂõûÔºö  NULL            
ARM GAS  C:\Users\ADMINI~1\AppData\Local\Temp\ccm0G0A3.s 			page 44


 670:.\application.c ****   * @ÊèèËø∞Ôºö  Â§ÑÁêÜÊâÄÊúâÁöÑÊåâÈîÆ‰∫ã‰ª∂
 671:.\application.c ****   *****************************************
 672:.\application.c **** */
 673:.\application.c **** void ButtonHandler(void)
 674:.\application.c **** {
 1613              		.loc 1 674 0
 1614              		.cfi_startproc
 1615 0000 90B5     		push	{r4, r7, lr}
 1616              		.cfi_def_cfa_offset 12
 1617              		.cfi_offset 4, -12
 1618              		.cfi_offset 7, -8
 1619              		.cfi_offset 14, -4
 1620 0002 83B0     		sub	sp, sp, #12
 1621              		.cfi_def_cfa_offset 24
 1622 0004 00AF     		add	r7, sp, #0
 1623              		.cfi_def_cfa_register 7
 675:.\application.c **** //    uint8_t Button;
 676:.\application.c ****     CYBLE_API_RESULT_T API_RESULT;
 677:.\application.c ****     if(0 == BondNum)//Â¶ÇÊûúÁªëÂÆöÁöÑËÆæÂ§á‰∏∫0ÔºåÂàôÊâÄÊúâÂºÄÂÖ≥ÊåâÈîÆÂäüËÉΩÈÉΩÊó†Êïà
 1624              		.loc 1 677 0
 1625 0006 244B     		ldr	r3, .L117
 1626 0008 1B78     		ldrb	r3, [r3]
 1627 000a 002B     		cmp	r3, #0
 1628 000c 03D1     		bne	.L107
 678:.\application.c ****     {
 679:.\application.c ****         ButtonStatus = BUTTON_UP;
 1629              		.loc 1 679 0
 1630 000e 234B     		ldr	r3, .L117+4
 1631 0010 0522     		mov	r2, #5
 1632 0012 1A70     		strb	r2, [r3]
 680:.\application.c ****         return ;
 1633              		.loc 1 680 0
 1634 0014 3CE0     		b	.L106
 1635              	.L107:
 681:.\application.c ****     }
 682:.\application.c ****     switch(ButtonStatus)
 1636              		.loc 1 682 0
 1637 0016 214B     		ldr	r3, .L117+4
 1638 0018 1B78     		ldrb	r3, [r3]
 1639 001a 042B     		cmp	r3, #4
 1640 001c 37D8     		bhi	.L116
 1641 001e 9A00     		lsl	r2, r3, #2
 1642 0020 1F4B     		ldr	r3, .L117+8
 1643 0022 D318     		add	r3, r2, r3
 1644 0024 1B68     		ldr	r3, [r3]
 1645 0026 9F46     		mov	pc, r3
 1646              		.section	.rodata
 1647              		.align	2
 1648              	.L111:
 1649 0190 28000000 		.word	.L110
 1650 0194 3E000000 		.word	.L112
 1651 0198 54000000 		.word	.L113
 1652 019c 6A000000 		.word	.L114
 1653 01a0 80000000 		.word	.L115
 1654              		.section	.text.ButtonHandler
 1655              	.L110:
 683:.\application.c ****     {
ARM GAS  C:\Users\ADMINI~1\AppData\Local\Temp\ccm0G0A3.s 			page 45


 684:.\application.c ****         case BUTTON1_DOWN:
 685:.\application.c ****             ButtonStatus = BUTTON_UP;
 1656              		.loc 1 685 0
 1657 0028 1C4B     		ldr	r3, .L117+4
 1658 002a 0522     		mov	r2, #5
 1659 002c 1A70     		strb	r2, [r3]
 686:.\application.c ****             API_RESULT=CyBle_GapcConnectDevice(&Device1);//Âª∫Á´ãËøûÊé•&BondList.bdAddrList[0]
 1660              		.loc 1 686 0
 1661 002e BC1D     		add	r4, r7, #6
 1662 0030 1C4B     		ldr	r3, .L117+12
 1663 0032 181C     		mov	r0, r3
 1664 0034 FFF7FEFF 		bl	CyBle_GapcConnectDevice
 1665 0038 031C     		mov	r3, r0
 1666 003a 2380     		strh	r3, [r4]
 687:.\application.c ****             if(API_RESULT == CYBLE_ERROR_OK)
 688:.\application.c ****             {
 689:.\application.c ****                 
 690:.\application.c ****             }
 691:.\application.c ****         break;
 1667              		.loc 1 691 0
 1668 003c 28E0     		b	.L106
 1669              	.L112:
 692:.\application.c ****         case BUTTON2_DOWN:
 693:.\application.c ****             ButtonStatus = BUTTON_UP;
 1670              		.loc 1 693 0
 1671 003e 174B     		ldr	r3, .L117+4
 1672 0040 0522     		mov	r2, #5
 1673 0042 1A70     		strb	r2, [r3]
 694:.\application.c ****             API_RESULT=CyBle_GapcConnectDevice(&Device2);//Âª∫Á´ãËøûÊé•&BondList.bdAddrList[0]
 1674              		.loc 1 694 0
 1675 0044 BC1D     		add	r4, r7, #6
 1676 0046 184B     		ldr	r3, .L117+16
 1677 0048 181C     		mov	r0, r3
 1678 004a FFF7FEFF 		bl	CyBle_GapcConnectDevice
 1679 004e 031C     		mov	r3, r0
 1680 0050 2380     		strh	r3, [r4]
 695:.\application.c ****             if(API_RESULT == CYBLE_ERROR_OK)
 696:.\application.c ****             {
 697:.\application.c ****                 
 698:.\application.c ****             }
 699:.\application.c ****         break;
 1681              		.loc 1 699 0
 1682 0052 1DE0     		b	.L106
 1683              	.L113:
 700:.\application.c ****         case BUTTON3_DOWN:
 701:.\application.c ****             ButtonStatus = BUTTON_UP;
 1684              		.loc 1 701 0
 1685 0054 114B     		ldr	r3, .L117+4
 1686 0056 0522     		mov	r2, #5
 1687 0058 1A70     		strb	r2, [r3]
 702:.\application.c ****             API_RESULT=CyBle_GapcConnectDevice(&Device3);//Âª∫Á´ãËøûÊé•&BondList.bdAddrList[0]
 1688              		.loc 1 702 0
 1689 005a BC1D     		add	r4, r7, #6
 1690 005c 134B     		ldr	r3, .L117+20
 1691 005e 181C     		mov	r0, r3
 1692 0060 FFF7FEFF 		bl	CyBle_GapcConnectDevice
 1693 0064 031C     		mov	r3, r0
ARM GAS  C:\Users\ADMINI~1\AppData\Local\Temp\ccm0G0A3.s 			page 46


 1694 0066 2380     		strh	r3, [r4]
 703:.\application.c ****             if(API_RESULT == CYBLE_ERROR_OK)
 704:.\application.c ****             {
 705:.\application.c ****                 
 706:.\application.c ****             }
 707:.\application.c ****         break;
 1695              		.loc 1 707 0
 1696 0068 12E0     		b	.L106
 1697              	.L114:
 708:.\application.c ****         case BUTTON4_DOWN:
 709:.\application.c ****             ButtonStatus = BUTTON_UP;            
 1698              		.loc 1 709 0
 1699 006a 0C4B     		ldr	r3, .L117+4
 1700 006c 0522     		mov	r2, #5
 1701 006e 1A70     		strb	r2, [r3]
 710:.\application.c ****             API_RESULT=CyBle_GapcConnectDevice(&Device4);//Âª∫Á´ãËøûÊé•&BondList.bdAddrList[0]
 1702              		.loc 1 710 0
 1703 0070 BC1D     		add	r4, r7, #6
 1704 0072 0F4B     		ldr	r3, .L117+24
 1705 0074 181C     		mov	r0, r3
 1706 0076 FFF7FEFF 		bl	CyBle_GapcConnectDevice
 1707 007a 031C     		mov	r3, r0
 1708 007c 2380     		strh	r3, [r4]
 711:.\application.c ****             if(API_RESULT == CYBLE_ERROR_OK)
 712:.\application.c ****             {
 713:.\application.c ****                 
 714:.\application.c ****             }
 715:.\application.c ****         break;
 1709              		.loc 1 715 0
 1710 007e 07E0     		b	.L106
 1711              	.L115:
 716:.\application.c ****         case BUTTON5_DOWN://ÂÖ≥Èó≠ÊàñËÄÖÊâìÊâÄÊúâÁÅØ
 717:.\application.c ****             ButtonStatus = BUTTON_UP;
 1712              		.loc 1 717 0
 1713 0080 064B     		ldr	r3, .L117+4
 1714 0082 0522     		mov	r2, #5
 1715 0084 1A70     		strb	r2, [r3]
 718:.\application.c **** //            Button.Button5_On_Off = Button.Button5_On_Off^1;
 719:.\application.c ****             ALL_ON_OFF = TURE;
 1716              		.loc 1 719 0
 1717 0086 0B4B     		ldr	r3, .L117+28
 1718 0088 0122     		mov	r2, #1
 1719 008a 1A70     		strb	r2, [r3]
 720:.\application.c **** //            RX_ISOVER = TURE;
 721:.\application.c **** //            strncpy((char*)Buffer,"AT+SWT=1",8);
 722:.\application.c ****         break;
 1720              		.loc 1 722 0
 1721 008c 00E0     		b	.L106
 1722              	.L116:
 723:.\application.c ****         default:
 724:.\application.c ****         break;
 1723              		.loc 1 724 0
 1724 008e C046     		mov	r8, r8
 1725              	.L106:
 725:.\application.c ****     }
 726:.\application.c **** }
 1726              		.loc 1 726 0
ARM GAS  C:\Users\ADMINI~1\AppData\Local\Temp\ccm0G0A3.s 			page 47


 1727 0090 BD46     		mov	sp, r7
 1728 0092 03B0     		add	sp, sp, #12
 1729              		@ sp needed
 1730 0094 90BD     		pop	{r4, r7, pc}
 1731              	.L118:
 1732 0096 C046     		.align	2
 1733              	.L117:
 1734 0098 00000000 		.word	BondNum
 1735 009c 00000000 		.word	ButtonStatus
 1736 00a0 90010000 		.word	.L111
 1737 00a4 00000000 		.word	Device1
 1738 00a8 00000000 		.word	Device2
 1739 00ac 00000000 		.word	Device3
 1740 00b0 00000000 		.word	Device4
 1741 00b4 00000000 		.word	ALL_ON_OFF
 1742              		.cfi_endproc
 1743              	.LFE49:
 1744              		.size	ButtonHandler, .-ButtonHandler
 1745              		.section	.rodata
 1746              		.align	2
 1747              	.LC71:
 1748 01a4 436F6E6E 		.ascii	"Connected Req1 is OK\015\000"
 1748      65637465 
 1748      64205265 
 1748      71312069 
 1748      73204F4B 
 1749 01ba 0000     		.align	2
 1750              	.LC74:
 1751 01bc 436F6E6E 		.ascii	"Connected Req2 is OK\015\000"
 1751      65637465 
 1751      64205265 
 1751      71322069 
 1751      73204F4B 
 1752 01d2 0000     		.align	2
 1753              	.LC77:
 1754 01d4 436F6E6E 		.ascii	"Connected Req3 is OK\015\000"
 1754      65637465 
 1754      64205265 
 1754      71332069 
 1754      73204F4B 
 1755 01ea 0000     		.align	2
 1756              	.LC80:
 1757 01ec 436F6E6E 		.ascii	"Connected Req4 is OK\015\000"
 1757      65637465 
 1757      64205265 
 1757      71342069 
 1757      73204F4B 
 1758 0202 0000     		.section	.text.ALL_On_Off_Handler,"ax",%progbits
 1759              		.align	2
 1760              		.global	ALL_On_Off_Handler
 1761              		.code	16
 1762              		.thumb_func
 1763              		.type	ALL_On_Off_Handler, %function
 1764              	ALL_On_Off_Handler:
 1765              	.LFB50:
 727:.\application.c **** 
 728:.\application.c **** /******************************************
ARM GAS  C:\Users\ADMINI~1\AppData\Local\Temp\ccm0G0A3.s 			page 48


 729:.\application.c ****   * @ÂáΩÊï∞ÂêçÔºöALL_On_Off_Handler
 730:.\application.c ****   * @ËæìÂÖ•Ôºö  NULL
 731:.\application.c ****   * @ËøîÂõûÔºö  NULL            
 732:.\application.c ****   * @ÊèèËø∞Ôºö  ALL ON/OFFÂ§ÑÁêÜ
 733:.\application.c ****   *****************************************
 734:.\application.c **** */
 735:.\application.c **** void ALL_On_Off_Handler(void)
 736:.\application.c **** {
 1766              		.loc 1 736 0
 1767              		.cfi_startproc
 1768 0000 90B5     		push	{r4, r7, lr}
 1769              		.cfi_def_cfa_offset 12
 1770              		.cfi_offset 4, -12
 1771              		.cfi_offset 7, -8
 1772              		.cfi_offset 14, -4
 1773 0002 83B0     		sub	sp, sp, #12
 1774              		.cfi_def_cfa_offset 24
 1775 0004 00AF     		add	r7, sp, #0
 1776              		.cfi_def_cfa_register 7
 737:.\application.c ****     CYBLE_API_RESULT_T API_RESULT;    
 738:.\application.c ****     if((DeviceCounts >= BondNum)&&(DisonnectedStaus == TURE))//Â¶ÇÊûúÂ§ß‰∫éÁªëÂÆöÁöÑËÆæÂ§áÂàôÂè™Êéß
 1777              		.loc 1 738 0
 1778 0006 4E4B     		ldr	r3, .L133
 1779 0008 1A78     		ldrb	r2, [r3]
 1780 000a 4E4B     		ldr	r3, .L133+4
 1781 000c 1B78     		ldrb	r3, [r3]
 1782 000e 9A42     		cmp	r2, r3
 1783 0010 14D3     		bcc	.L120
 1784              		.loc 1 738 0 is_stmt 0 discriminator 1
 1785 0012 4D4B     		ldr	r3, .L133+8
 1786 0014 1B78     		ldrb	r3, [r3]
 1787 0016 012B     		cmp	r3, #1
 1788 0018 10D1     		bne	.L120
 739:.\application.c ****     {
 740:.\application.c ****         DisonnectedStaus = FALSE;
 1789              		.loc 1 740 0 is_stmt 1
 1790 001a 4B4B     		ldr	r3, .L133+8
 1791 001c 0022     		mov	r2, #0
 1792 001e 1A70     		strb	r2, [r3]
 741:.\application.c ****         ALL_ON_OFF = FALSE;
 1793              		.loc 1 741 0
 1794 0020 4A4B     		ldr	r3, .L133+12
 1795 0022 0022     		mov	r2, #0
 1796 0024 1A70     		strb	r2, [r3]
 742:.\application.c ****         Button.Button5_On_Off = Button.Button5_On_Off^1;
 1797              		.loc 1 742 0
 1798 0026 4A4B     		ldr	r3, .L133+16
 1799 0028 1B79     		ldrb	r3, [r3, #4]
 1800 002a 0122     		mov	r2, #1
 1801 002c 5340     		eor	r3, r2
 1802 002e DAB2     		uxtb	r2, r3
 1803 0030 474B     		ldr	r3, .L133+16
 1804 0032 1A71     		strb	r2, [r3, #4]
 743:.\application.c ****         DeviceCounts = 0;
 1805              		.loc 1 743 0
 1806 0034 424B     		ldr	r3, .L133
 1807 0036 0022     		mov	r2, #0
ARM GAS  C:\Users\ADMINI~1\AppData\Local\Temp\ccm0G0A3.s 			page 49


 1808 0038 1A70     		strb	r2, [r3]
 1809 003a 7DE0     		b	.L119
 1810              	.L120:
 744:.\application.c ****     }
 745:.\application.c ****     else
 746:.\application.c ****     {
 747:.\application.c ****         switch(DeviceCounts)
 1811              		.loc 1 747 0
 1812 003c 404B     		ldr	r3, .L133
 1813 003e 1B78     		ldrb	r3, [r3]
 1814 0040 012B     		cmp	r3, #1
 1815 0042 1FD0     		beq	.L123
 1816 0044 02DC     		bgt	.L124
 1817 0046 002B     		cmp	r3, #0
 1818 0048 05D0     		beq	.L125
 748:.\application.c ****         {
 749:.\application.c ****             case 0:            
 750:.\application.c ****                 API_RESULT=CyBle_GapcConnectDevice(&Device1);
 751:.\application.c ****                 if(API_RESULT == CYBLE_ERROR_OK)
 752:.\application.c ****                 {
 753:.\application.c ****                     DeviceCounts++;
 754:.\application.c ****                         #ifdef PRINT
 755:.\application.c ****                             printf("Connected Req1 is OK\r\n");
 756:.\application.c ****                         #endif
 757:.\application.c ****     //                DeviceNum = DEVICE1;
 758:.\application.c ****                 }
 759:.\application.c ****             break;
 760:.\application.c ****             case 1:
 761:.\application.c ****                 if(DisonnectedStaus == TURE)
 762:.\application.c ****                 {
 763:.\application.c ****                     API_RESULT=CyBle_GapcConnectDevice(&Device2);
 764:.\application.c ****                     if(API_RESULT == CYBLE_ERROR_OK)
 765:.\application.c ****                     {
 766:.\application.c ****                         DisonnectedStaus = FALSE;
 767:.\application.c ****                         DeviceCounts++;
 768:.\application.c ****                         #ifdef PRINT
 769:.\application.c ****                             printf("Connected Req2 is OK\r\n");
 770:.\application.c ****                         #endif
 771:.\application.c ****     //                    DeviceNum = DEVICE2;
 772:.\application.c ****                     }
 773:.\application.c ****                 }
 774:.\application.c ****             break;
 775:.\application.c ****             case 2:
 776:.\application.c ****                 if(DisonnectedStaus == TURE)
 777:.\application.c ****                 {
 778:.\application.c ****                     API_RESULT=CyBle_GapcConnectDevice(&Device3);
 779:.\application.c ****                     if(API_RESULT == CYBLE_ERROR_OK)
 780:.\application.c ****                     {
 781:.\application.c ****                         DisonnectedStaus = FALSE;
 782:.\application.c ****                         DeviceCounts++;
 783:.\application.c ****                         #ifdef PRINT
 784:.\application.c ****                             printf("Connected Req3 is OK\r\n");
 785:.\application.c ****                         #endif
 786:.\application.c ****     //                    DeviceNum = DEVICE3;
 787:.\application.c ****                     }
 788:.\application.c ****                 }                
 789:.\application.c ****             break;
ARM GAS  C:\Users\ADMINI~1\AppData\Local\Temp\ccm0G0A3.s 			page 50


 790:.\application.c ****             case 3:
 791:.\application.c ****             if(DisonnectedStaus == TURE)
 792:.\application.c ****             {
 793:.\application.c ****                 API_RESULT=CyBle_GapcConnectDevice(&Device4);
 794:.\application.c ****                 if(API_RESULT == CYBLE_ERROR_OK)
 795:.\application.c ****                 {
 796:.\application.c ****                     DisonnectedStaus = FALSE;
 797:.\application.c **** //                    ALL_ON_OFF = FALSE;
 798:.\application.c ****                     DeviceCounts++;
 799:.\application.c ****                     #ifdef PRINT
 800:.\application.c ****                             printf("Connected Req4 is OK\r\n");
 801:.\application.c ****                     #endif
 802:.\application.c ****     //                DeviceNum = DEVICE4;
 803:.\application.c ****                 }
 804:.\application.c ****             }            
 805:.\application.c ****             break;
 806:.\application.c **** //            case 4:
 807:.\application.c **** //                if(DisonnectedStaus == TURE)
 808:.\application.c **** //                {
 809:.\application.c **** //                    DisonnectedStaus = FALSE;
 810:.\application.c **** //                    ALL_ON_OFF = FALSE;
 811:.\application.c **** //                    Button.Button5_On_Off = Button.Button5_On_Off^1;
 812:.\application.c **** //                    DeviceCounts = 0;
 813:.\application.c **** //    //              RX_ISOVER = FALSE;
 814:.\application.c **** //                    DeviceNum = INVALID;
 815:.\application.c **** //                }                        
 816:.\application.c **** //            break;
 817:.\application.c ****             default:                            
 818:.\application.c ****             break;
 1819              		.loc 1 818 0
 1820 004a 75E0     		b	.L119
 1821              	.L124:
 747:.\application.c ****         {
 1822              		.loc 1 747 0
 1823 004c 022B     		cmp	r3, #2
 1824 004e 37D0     		beq	.L126
 1825 0050 032B     		cmp	r3, #3
 1826 0052 53D0     		beq	.L127
 1827              		.loc 1 818 0
 1828 0054 70E0     		b	.L119
 1829              	.L125:
 750:.\application.c ****                 if(API_RESULT == CYBLE_ERROR_OK)
 1830              		.loc 1 750 0
 1831 0056 BC1D     		add	r4, r7, #6
 1832 0058 3E4B     		ldr	r3, .L133+20
 1833 005a 181C     		mov	r0, r3
 1834 005c FFF7FEFF 		bl	CyBle_GapcConnectDevice
 1835 0060 031C     		mov	r3, r0
 1836 0062 2380     		strh	r3, [r4]
 751:.\application.c ****                 {
 1837              		.loc 1 751 0
 1838 0064 BB1D     		add	r3, r7, #6
 1839 0066 1B88     		ldrh	r3, [r3]
 1840 0068 002B     		cmp	r3, #0
 1841 006a 0AD1     		bne	.L128
 753:.\application.c ****                         #ifdef PRINT
 1842              		.loc 1 753 0
ARM GAS  C:\Users\ADMINI~1\AppData\Local\Temp\ccm0G0A3.s 			page 51


 1843 006c 344B     		ldr	r3, .L133
 1844 006e 1B78     		ldrb	r3, [r3]
 1845 0070 0133     		add	r3, r3, #1
 1846 0072 DAB2     		uxtb	r2, r3
 1847 0074 324B     		ldr	r3, .L133
 1848 0076 1A70     		strb	r2, [r3]
 755:.\application.c ****                         #endif
 1849              		.loc 1 755 0
 1850 0078 374B     		ldr	r3, .L133+24
 1851 007a 181C     		mov	r0, r3
 1852 007c FFF7FEFF 		bl	puts
 759:.\application.c ****             case 1:
 1853              		.loc 1 759 0
 1854 0080 5AE0     		b	.L119
 1855              	.L128:
 1856 0082 59E0     		b	.L119
 1857              	.L123:
 761:.\application.c ****                 {
 1858              		.loc 1 761 0
 1859 0084 304B     		ldr	r3, .L133+8
 1860 0086 1B78     		ldrb	r3, [r3]
 1861 0088 012B     		cmp	r3, #1
 1862 008a 18D1     		bne	.L129
 763:.\application.c ****                     if(API_RESULT == CYBLE_ERROR_OK)
 1863              		.loc 1 763 0
 1864 008c BC1D     		add	r4, r7, #6
 1865 008e 334B     		ldr	r3, .L133+28
 1866 0090 181C     		mov	r0, r3
 1867 0092 FFF7FEFF 		bl	CyBle_GapcConnectDevice
 1868 0096 031C     		mov	r3, r0
 1869 0098 2380     		strh	r3, [r4]
 764:.\application.c ****                     {
 1870              		.loc 1 764 0
 1871 009a BB1D     		add	r3, r7, #6
 1872 009c 1B88     		ldrh	r3, [r3]
 1873 009e 002B     		cmp	r3, #0
 1874 00a0 0DD1     		bne	.L129
 766:.\application.c ****                         DeviceCounts++;
 1875              		.loc 1 766 0
 1876 00a2 294B     		ldr	r3, .L133+8
 1877 00a4 0022     		mov	r2, #0
 1878 00a6 1A70     		strb	r2, [r3]
 767:.\application.c ****                         #ifdef PRINT
 1879              		.loc 1 767 0
 1880 00a8 254B     		ldr	r3, .L133
 1881 00aa 1B78     		ldrb	r3, [r3]
 1882 00ac 0133     		add	r3, r3, #1
 1883 00ae DAB2     		uxtb	r2, r3
 1884 00b0 234B     		ldr	r3, .L133
 1885 00b2 1A70     		strb	r2, [r3]
 769:.\application.c ****                         #endif
 1886              		.loc 1 769 0
 1887 00b4 2A4B     		ldr	r3, .L133+32
 1888 00b6 181C     		mov	r0, r3
 1889 00b8 FFF7FEFF 		bl	puts
 774:.\application.c ****             case 2:
 1890              		.loc 1 774 0
ARM GAS  C:\Users\ADMINI~1\AppData\Local\Temp\ccm0G0A3.s 			page 52


 1891 00bc 3CE0     		b	.L119
 1892              	.L129:
 1893 00be 3BE0     		b	.L119
 1894              	.L126:
 776:.\application.c ****                 {
 1895              		.loc 1 776 0
 1896 00c0 214B     		ldr	r3, .L133+8
 1897 00c2 1B78     		ldrb	r3, [r3]
 1898 00c4 012B     		cmp	r3, #1
 1899 00c6 18D1     		bne	.L130
 778:.\application.c ****                     if(API_RESULT == CYBLE_ERROR_OK)
 1900              		.loc 1 778 0
 1901 00c8 BC1D     		add	r4, r7, #6
 1902 00ca 264B     		ldr	r3, .L133+36
 1903 00cc 181C     		mov	r0, r3
 1904 00ce FFF7FEFF 		bl	CyBle_GapcConnectDevice
 1905 00d2 031C     		mov	r3, r0
 1906 00d4 2380     		strh	r3, [r4]
 779:.\application.c ****                     {
 1907              		.loc 1 779 0
 1908 00d6 BB1D     		add	r3, r7, #6
 1909 00d8 1B88     		ldrh	r3, [r3]
 1910 00da 002B     		cmp	r3, #0
 1911 00dc 0DD1     		bne	.L130
 781:.\application.c ****                         DeviceCounts++;
 1912              		.loc 1 781 0
 1913 00de 1A4B     		ldr	r3, .L133+8
 1914 00e0 0022     		mov	r2, #0
 1915 00e2 1A70     		strb	r2, [r3]
 782:.\application.c ****                         #ifdef PRINT
 1916              		.loc 1 782 0
 1917 00e4 164B     		ldr	r3, .L133
 1918 00e6 1B78     		ldrb	r3, [r3]
 1919 00e8 0133     		add	r3, r3, #1
 1920 00ea DAB2     		uxtb	r2, r3
 1921 00ec 144B     		ldr	r3, .L133
 1922 00ee 1A70     		strb	r2, [r3]
 784:.\application.c ****                         #endif
 1923              		.loc 1 784 0
 1924 00f0 1D4B     		ldr	r3, .L133+40
 1925 00f2 181C     		mov	r0, r3
 1926 00f4 FFF7FEFF 		bl	puts
 789:.\application.c ****             case 3:
 1927              		.loc 1 789 0
 1928 00f8 1EE0     		b	.L119
 1929              	.L130:
 1930 00fa 1DE0     		b	.L119
 1931              	.L127:
 791:.\application.c ****             {
 1932              		.loc 1 791 0
 1933 00fc 124B     		ldr	r3, .L133+8
 1934 00fe 1B78     		ldrb	r3, [r3]
 1935 0100 012B     		cmp	r3, #1
 1936 0102 18D1     		bne	.L131
 793:.\application.c ****                 if(API_RESULT == CYBLE_ERROR_OK)
 1937              		.loc 1 793 0
 1938 0104 BC1D     		add	r4, r7, #6
ARM GAS  C:\Users\ADMINI~1\AppData\Local\Temp\ccm0G0A3.s 			page 53


 1939 0106 194B     		ldr	r3, .L133+44
 1940 0108 181C     		mov	r0, r3
 1941 010a FFF7FEFF 		bl	CyBle_GapcConnectDevice
 1942 010e 031C     		mov	r3, r0
 1943 0110 2380     		strh	r3, [r4]
 794:.\application.c ****                 {
 1944              		.loc 1 794 0
 1945 0112 BB1D     		add	r3, r7, #6
 1946 0114 1B88     		ldrh	r3, [r3]
 1947 0116 002B     		cmp	r3, #0
 1948 0118 0DD1     		bne	.L131
 796:.\application.c **** //                    ALL_ON_OFF = FALSE;
 1949              		.loc 1 796 0
 1950 011a 0B4B     		ldr	r3, .L133+8
 1951 011c 0022     		mov	r2, #0
 1952 011e 1A70     		strb	r2, [r3]
 798:.\application.c ****                     #ifdef PRINT
 1953              		.loc 1 798 0
 1954 0120 074B     		ldr	r3, .L133
 1955 0122 1B78     		ldrb	r3, [r3]
 1956 0124 0133     		add	r3, r3, #1
 1957 0126 DAB2     		uxtb	r2, r3
 1958 0128 054B     		ldr	r3, .L133
 1959 012a 1A70     		strb	r2, [r3]
 800:.\application.c ****                     #endif
 1960              		.loc 1 800 0
 1961 012c 104B     		ldr	r3, .L133+48
 1962 012e 181C     		mov	r0, r3
 1963 0130 FFF7FEFF 		bl	puts
 805:.\application.c **** //            case 4:
 1964              		.loc 1 805 0
 1965 0134 FFE7     		b	.L132
 1966              	.L131:
 1967              	.L132:
 1968 0136 C046     		mov	r8, r8
 1969              	.L119:
 819:.\application.c ****         }  
 820:.\application.c ****     }
 821:.\application.c **** }
 1970              		.loc 1 821 0
 1971 0138 BD46     		mov	sp, r7
 1972 013a 03B0     		add	sp, sp, #12
 1973              		@ sp needed
 1974 013c 90BD     		pop	{r4, r7, pc}
 1975              	.L134:
 1976 013e C046     		.align	2
 1977              	.L133:
 1978 0140 00000000 		.word	DeviceCounts
 1979 0144 00000000 		.word	BondNum
 1980 0148 00000000 		.word	DisonnectedStaus
 1981 014c 00000000 		.word	ALL_ON_OFF
 1982 0150 00000000 		.word	Button
 1983 0154 00000000 		.word	Device1
 1984 0158 A4010000 		.word	.LC71
 1985 015c 00000000 		.word	Device2
 1986 0160 BC010000 		.word	.LC74
 1987 0164 00000000 		.word	Device3
ARM GAS  C:\Users\ADMINI~1\AppData\Local\Temp\ccm0G0A3.s 			page 54


 1988 0168 D4010000 		.word	.LC77
 1989 016c 00000000 		.word	Device4
 1990 0170 EC010000 		.word	.LC80
 1991              		.cfi_endproc
 1992              	.LFE50:
 1993              		.size	ALL_On_Off_Handler, .-ALL_On_Off_Handler
 1994              		.section	.text.LowPowerManagement,"ax",%progbits
 1995              		.align	2
 1996              		.global	LowPowerManagement
 1997              		.code	16
 1998              		.thumb_func
 1999              		.type	LowPowerManagement, %function
 2000              	LowPowerManagement:
 2001              	.LFB51:
 822:.\application.c **** /******************************************
 823:.\application.c ****   * @ÂáΩÊï∞ÂêçÔºöLowPowerManagement
 824:.\application.c ****   * @ËæìÂÖ•Ôºö  NULL             
 825:.\application.c ****   * @ËøîÂõûÔºö  NULL            
 826:.\application.c ****   * @ÊèèËø∞Ôºö  ‰ΩéÂäüËÄóÊéßÂà∂ÔºåÈôç‰ΩéÂäüËÄó
 827:.\application.c ****   *****************************************/
 828:.\application.c **** void LowPowerManagement(void)
 829:.\application.c **** {
 2002              		.loc 1 829 0
 2003              		.cfi_startproc
 2004 0000 90B5     		push	{r4, r7, lr}
 2005              		.cfi_def_cfa_offset 12
 2006              		.cfi_offset 4, -12
 2007              		.cfi_offset 7, -8
 2008              		.cfi_offset 14, -4
 2009 0002 83B0     		sub	sp, sp, #12
 2010              		.cfi_def_cfa_offset 24
 2011 0004 00AF     		add	r7, sp, #0
 2012              		.cfi_def_cfa_register 7
 830:.\application.c ****     /* Local variable to store the status of BLESS Hardware block */
 831:.\application.c **** 		CYBLE_LP_MODE_T sleepMode;
 832:.\application.c **** 		CYBLE_BLESS_STATE_T blessState;
 833:.\application.c **** 	
 834:.\application.c **** 		/* Put BLESS into Deep Sleep and check the return status */
 835:.\application.c **** 		sleepMode = CyBle_EnterLPM(CYBLE_BLESS_DEEPSLEEP);
 2013              		.loc 1 835 0
 2014 0006 FC1D     		add	r4, r7, #7
 2015 0008 0320     		mov	r0, #3
 2016 000a FFF7FEFF 		bl	CyBle_EnterLPM
 2017 000e 031C     		mov	r3, r0
 2018 0010 2370     		strb	r3, [r4]
 836:.\application.c **** 		
 837:.\application.c **** 		/* Disable global interrupt to prevent changes from any other interrupt ISR */
 838:.\application.c **** 		CyGlobalIntDisable;
 2019              		.loc 1 838 0
 2020              	@ 838 ".\application.c" 1
 2021 0012 72B6     		CPSID   i
 2022              	@ 0 "" 2
 839:.\application.c **** 	
 840:.\application.c **** 		/* Check the Status of BLESS */
 841:.\application.c **** 		blessState = CyBle_GetBleSsState();
 2023              		.loc 1 841 0
 2024              		.code	16
ARM GAS  C:\Users\ADMINI~1\AppData\Local\Temp\ccm0G0A3.s 			page 55


 2025 0014 BC1D     		add	r4, r7, #6
 2026 0016 FFF7FEFF 		bl	CyBle_GetBleSsState
 2027 001a 031C     		mov	r3, r0
 2028 001c 2370     		strb	r3, [r4]
 842:.\application.c **** 
 843:.\application.c **** 		if(sleepMode == CYBLE_BLESS_DEEPSLEEP)
 2029              		.loc 1 843 0
 2030 001e FB1D     		add	r3, r7, #7
 2031 0020 1B78     		ldrb	r3, [r3]
 2032 0022 032B     		cmp	r3, #3
 2033 0024 10D1     		bne	.L136
 844:.\application.c **** 		{
 845:.\application.c **** 		    /* If the ECO has started or the BLESS can go to Deep Sleep, then place CPU 
 846:.\application.c **** 			* to Deep Sleep */
 847:.\application.c **** 			if(blessState == CYBLE_BLESS_STATE_ECO_ON || blessState == CYBLE_BLESS_STATE_DEEPSLEEP)
 2034              		.loc 1 847 0
 2035 0026 BB1D     		add	r3, r7, #6
 2036 0028 1B78     		ldrb	r3, [r3]
 2037 002a 042B     		cmp	r3, #4
 2038 002c 03D0     		beq	.L137
 2039              		.loc 1 847 0 is_stmt 0 discriminator 1
 2040 002e BB1D     		add	r3, r7, #6
 2041 0030 1B78     		ldrb	r3, [r3]
 2042 0032 062B     		cmp	r3, #6
 2043 0034 1CD1     		bne	.L139
 2044              	.L137:
 848:.\application.c **** 		    {
 849:.\application.c **** 
 850:.\application.c ****                 CySysPmDeepSleep();
 2045              		.loc 1 850 0 is_stmt 1
 2046 0036 FFF7FEFF 		bl	CySysPmDeepSleep
 851:.\application.c ****                 /* Â§ÑÁêÜÂî§ÈÜíÂêéÁöÑ‰∫ã‰ª∂ */
 852:.\application.c ****                 LOWPOWER=FALSE;
 2047              		.loc 1 852 0
 2048 003a 0F4B     		ldr	r3, .L141
 2049 003c 0022     		mov	r2, #0
 2050 003e 1A70     		strb	r2, [r3]
 853:.\application.c ****                 WakeUp=TURE;
 2051              		.loc 1 853 0
 2052 0040 0E4B     		ldr	r3, .L141+4
 2053 0042 0122     		mov	r2, #1
 2054 0044 1A70     		strb	r2, [r3]
 2055 0046 13E0     		b	.L139
 2056              	.L136:
 854:.\application.c **** 		 	}
 855:.\application.c **** 		}
 856:.\application.c **** 		else if((sleepMode == CYBLE_BLESS_SLEEP)||(sleepMode == CYBLE_BLESS_ACTIVE))
 2057              		.loc 1 856 0
 2058 0048 FB1D     		add	r3, r7, #7
 2059 004a 1B78     		ldrb	r3, [r3]
 2060 004c 022B     		cmp	r3, #2
 2061 004e 03D0     		beq	.L140
 2062              		.loc 1 856 0 is_stmt 0 discriminator 1
 2063 0050 FB1D     		add	r3, r7, #7
 2064 0052 1B78     		ldrb	r3, [r3]
 2065 0054 012B     		cmp	r3, #1
 2066 0056 0BD1     		bne	.L139
ARM GAS  C:\Users\ADMINI~1\AppData\Local\Temp\ccm0G0A3.s 			page 56


 2067              	.L140:
 857:.\application.c **** 		{
 858:.\application.c **** 		    if(blessState != CYBLE_BLESS_STATE_EVENT_CLOSE)
 2068              		.loc 1 858 0 is_stmt 1
 2069 0058 BB1D     		add	r3, r7, #6
 2070 005a 1B78     		ldrb	r3, [r3]
 2071 005c 022B     		cmp	r3, #2
 2072 005e 07D0     		beq	.L139
 859:.\application.c **** 		    {
 860:.\application.c **** 				/* If the BLESS hardware block cannot go to Deep Sleep and BLE Event has not 
 861:.\application.c **** 				* closed yet, then place CPU to Sleep */ 
 862:.\application.c **** 		        CySysPmSleep();  
 2073              		.loc 1 862 0
 2074 0060 FFF7FEFF 		bl	CySysPmSleep
 863:.\application.c ****                 /* Â§ÑÁêÜÂî§ÈÜíÂêéÁöÑ‰∫ã‰ª∂ */
 864:.\application.c ****                 LOWPOWER=FALSE;
 2075              		.loc 1 864 0
 2076 0064 044B     		ldr	r3, .L141
 2077 0066 0022     		mov	r2, #0
 2078 0068 1A70     		strb	r2, [r3]
 865:.\application.c ****                 WakeUp=TURE;
 2079              		.loc 1 865 0
 2080 006a 044B     		ldr	r3, .L141+4
 2081 006c 0122     		mov	r2, #1
 2082 006e 1A70     		strb	r2, [r3]
 2083              	.L139:
 866:.\application.c **** 		    }
 867:.\application.c **** 		}
 868:.\application.c **** 		/* Re-enable global interrupt mask after wakeup */
 869:.\application.c **** 		CyGlobalIntEnable;           
 2084              		.loc 1 869 0
 2085              	@ 869 ".\application.c" 1
 2086 0070 62B6     		CPSIE   i
 2087              	@ 0 "" 2
 870:.\application.c ****         
 871:.\application.c **** }
 2088              		.loc 1 871 0
 2089              		.code	16
 2090 0072 BD46     		mov	sp, r7
 2091 0074 03B0     		add	sp, sp, #12
 2092              		@ sp needed
 2093 0076 90BD     		pop	{r4, r7, pc}
 2094              	.L142:
 2095              		.align	2
 2096              	.L141:
 2097 0078 00000000 		.word	LOWPOWER
 2098 007c 00000000 		.word	WakeUp
 2099              		.cfi_endproc
 2100              	.LFE51:
 2101              		.size	LowPowerManagement, .-LowPowerManagement
 2102              		.text
 2103              	.Letext0:
 2104              		.file 2 "e:\\software application\\psoc creator\\3.3\\psoc creator\\import\\gnu\\arm\\4.9.3\\arm-n
 2105              		.file 3 "e:\\software application\\psoc creator\\3.3\\psoc creator\\import\\gnu\\arm\\4.9.3\\arm-n
 2106              		.file 4 "Generated_Source\\PSoC4/cytypes.h"
 2107              		.file 5 "Generated_Source\\PSoC4/BLE_Stack.h"
 2108              		.file 6 "Generated_Source\\PSoC4/BLE_StackGap.h"
ARM GAS  C:\Users\ADMINI~1\AppData\Local\Temp\ccm0G0A3.s 			page 57


 2109              		.file 7 "Generated_Source\\PSoC4/BLE_StackGatt.h"
 2110              		.file 8 "Generated_Source\\PSoC4/BLE_StackGattClient.h"
 2111              		.file 9 "Generated_Source\\PSoC4/BLE_eventHandler.h"
 2112              		.file 10 ".\\application.h"
 2113              		.section	.debug_info,"",%progbits
 2114              	.Ldebug_info0:
 2115 0000 470B0000 		.4byte	0xb47
 2116 0004 0400     		.2byte	0x4
 2117 0006 00000000 		.4byte	.Ldebug_abbrev0
 2118 000a 04       		.byte	0x4
 2119 000b 01       		.uleb128 0x1
 2120 000c 690F0000 		.4byte	.LASF249
 2121 0010 01       		.byte	0x1
 2122 0011 1C0E0000 		.4byte	.LASF250
 2123 0015 EB060000 		.4byte	.LASF251
 2124 0019 00000000 		.4byte	.Ldebug_ranges0+0
 2125 001d 00000000 		.4byte	0
 2126 0021 00000000 		.4byte	.Ldebug_line0
 2127 0025 02       		.uleb128 0x2
 2128 0026 01       		.byte	0x1
 2129 0027 06       		.byte	0x6
 2130 0028 93040000 		.4byte	.LASF0
 2131 002c 03       		.uleb128 0x3
 2132 002d D4020000 		.4byte	.LASF3
 2133 0031 02       		.byte	0x2
 2134 0032 1D       		.byte	0x1d
 2135 0033 37000000 		.4byte	0x37
 2136 0037 02       		.uleb128 0x2
 2137 0038 01       		.byte	0x1
 2138 0039 08       		.byte	0x8
 2139 003a 01050000 		.4byte	.LASF1
 2140 003e 02       		.uleb128 0x2
 2141 003f 02       		.byte	0x2
 2142 0040 05       		.byte	0x5
 2143 0041 EF100000 		.4byte	.LASF2
 2144 0045 03       		.uleb128 0x3
 2145 0046 A5060000 		.4byte	.LASF4
 2146 004a 02       		.byte	0x2
 2147 004b 2B       		.byte	0x2b
 2148 004c 50000000 		.4byte	0x50
 2149 0050 02       		.uleb128 0x2
 2150 0051 02       		.byte	0x2
 2151 0052 07       		.byte	0x7
 2152 0053 C7130000 		.4byte	.LASF5
 2153 0057 02       		.uleb128 0x2
 2154 0058 04       		.byte	0x4
 2155 0059 05       		.byte	0x5
 2156 005a 63030000 		.4byte	.LASF6
 2157 005e 02       		.uleb128 0x2
 2158 005f 04       		.byte	0x4
 2159 0060 07       		.byte	0x7
 2160 0061 8C090000 		.4byte	.LASF7
 2161 0065 02       		.uleb128 0x2
 2162 0066 08       		.byte	0x8
 2163 0067 05       		.byte	0x5
 2164 0068 9A0A0000 		.4byte	.LASF8
 2165 006c 02       		.uleb128 0x2
ARM GAS  C:\Users\ADMINI~1\AppData\Local\Temp\ccm0G0A3.s 			page 58


 2166 006d 08       		.byte	0x8
 2167 006e 07       		.byte	0x7
 2168 006f 790E0000 		.4byte	.LASF9
 2169 0073 04       		.uleb128 0x4
 2170 0074 04       		.byte	0x4
 2171 0075 05       		.byte	0x5
 2172 0076 696E7400 		.ascii	"int\000"
 2173 007a 02       		.uleb128 0x2
 2174 007b 04       		.byte	0x4
 2175 007c 07       		.byte	0x7
 2176 007d 350C0000 		.4byte	.LASF10
 2177 0081 03       		.uleb128 0x3
 2178 0082 9F040000 		.4byte	.LASF11
 2179 0086 03       		.byte	0x3
 2180 0087 15       		.byte	0x15
 2181 0088 2C000000 		.4byte	0x2c
 2182 008c 03       		.uleb128 0x3
 2183 008d A20E0000 		.4byte	.LASF12
 2184 0091 03       		.byte	0x3
 2185 0092 21       		.byte	0x21
 2186 0093 45000000 		.4byte	0x45
 2187 0097 05       		.uleb128 0x5
 2188 0098 B4100000 		.4byte	.LASF13
 2189 009c 04       		.byte	0x4
 2190 009d 3801     		.2byte	0x138
 2191 009f 37000000 		.4byte	0x37
 2192 00a3 05       		.uleb128 0x5
 2193 00a4 06150000 		.4byte	.LASF14
 2194 00a8 04       		.byte	0x4
 2195 00a9 3901     		.2byte	0x139
 2196 00ab 50000000 		.4byte	0x50
 2197 00af 05       		.uleb128 0x5
 2198 00b0 32010000 		.4byte	.LASF15
 2199 00b4 04       		.byte	0x4
 2200 00b5 3A01     		.2byte	0x13a
 2201 00b7 5E000000 		.4byte	0x5e
 2202 00bb 05       		.uleb128 0x5
 2203 00bc 4D020000 		.4byte	.LASF16
 2204 00c0 04       		.byte	0x4
 2205 00c1 3B01     		.2byte	0x13b
 2206 00c3 25000000 		.4byte	0x25
 2207 00c7 02       		.uleb128 0x2
 2208 00c8 04       		.byte	0x4
 2209 00c9 04       		.byte	0x4
 2210 00ca C90B0000 		.4byte	.LASF17
 2211 00ce 02       		.uleb128 0x2
 2212 00cf 08       		.byte	0x8
 2213 00d0 04       		.byte	0x4
 2214 00d1 1C0B0000 		.4byte	.LASF18
 2215 00d5 02       		.uleb128 0x2
 2216 00d6 01       		.byte	0x1
 2217 00d7 08       		.byte	0x8
 2218 00d8 49060000 		.4byte	.LASF19
 2219 00dc 05       		.uleb128 0x5
 2220 00dd AB0E0000 		.4byte	.LASF20
 2221 00e1 04       		.byte	0x4
 2222 00e2 E401     		.2byte	0x1e4
ARM GAS  C:\Users\ADMINI~1\AppData\Local\Temp\ccm0G0A3.s 			page 59


 2223 00e4 E8000000 		.4byte	0xe8
 2224 00e8 06       		.uleb128 0x6
 2225 00e9 AF000000 		.4byte	0xaf
 2226 00ed 02       		.uleb128 0x2
 2227 00ee 04       		.byte	0x4
 2228 00ef 07       		.byte	0x7
 2229 00f0 35000000 		.4byte	.LASF21
 2230 00f4 07       		.uleb128 0x7
 2231 00f5 04       		.byte	0x4
 2232 00f6 08       		.uleb128 0x8
 2233 00f7 04       		.byte	0x4
 2234 00f8 D5000000 		.4byte	0xd5
 2235 00fc 08       		.uleb128 0x8
 2236 00fd 04       		.byte	0x4
 2237 00fe 02010000 		.4byte	0x102
 2238 0102 09       		.uleb128 0x9
 2239 0103 D5000000 		.4byte	0xd5
 2240 0107 0A       		.uleb128 0xa
 2241 0108 01       		.byte	0x1
 2242 0109 05       		.byte	0x5
 2243 010a 4201     		.2byte	0x142
 2244 010c C4020000 		.4byte	0x2c4
 2245 0110 0B       		.uleb128 0xb
 2246 0111 6D060000 		.4byte	.LASF22
 2247 0115 00       		.sleb128 0
 2248 0116 0B       		.uleb128 0xb
 2249 0117 82030000 		.4byte	.LASF23
 2250 011b 01       		.sleb128 1
 2251 011c 0B       		.uleb128 0xb
 2252 011d 900E0000 		.4byte	.LASF24
 2253 0121 02       		.sleb128 2
 2254 0122 0B       		.uleb128 0xb
 2255 0123 A7040000 		.4byte	.LASF25
 2256 0127 03       		.sleb128 3
 2257 0128 0B       		.uleb128 0xb
 2258 0129 1A140000 		.4byte	.LASF26
 2259 012d 04       		.sleb128 4
 2260 012e 0B       		.uleb128 0xb
 2261 012f 40130000 		.4byte	.LASF27
 2262 0133 05       		.sleb128 5
 2263 0134 0B       		.uleb128 0xb
 2264 0135 D30D0000 		.4byte	.LASF28
 2265 0139 06       		.sleb128 6
 2266 013a 0B       		.uleb128 0xb
 2267 013b CA110000 		.4byte	.LASF29
 2268 013f 20       		.sleb128 32
 2269 0140 0B       		.uleb128 0xb
 2270 0141 36020000 		.4byte	.LASF30
 2271 0145 21       		.sleb128 33
 2272 0146 0B       		.uleb128 0xb
 2273 0147 6F0A0000 		.4byte	.LASF31
 2274 014b 22       		.sleb128 34
 2275 014c 0B       		.uleb128 0xb
 2276 014d 2F0D0000 		.4byte	.LASF32
 2277 0151 23       		.sleb128 35
 2278 0152 0B       		.uleb128 0xb
 2279 0153 05090000 		.4byte	.LASF33
ARM GAS  C:\Users\ADMINI~1\AppData\Local\Temp\ccm0G0A3.s 			page 60


 2280 0157 24       		.sleb128 36
 2281 0158 0B       		.uleb128 0xb
 2282 0159 21090000 		.4byte	.LASF34
 2283 015d 25       		.sleb128 37
 2284 015e 0B       		.uleb128 0xb
 2285 015f 8C100000 		.4byte	.LASF35
 2286 0163 26       		.sleb128 38
 2287 0164 0B       		.uleb128 0xb
 2288 0165 B6000000 		.4byte	.LASF36
 2289 0169 27       		.sleb128 39
 2290 016a 0B       		.uleb128 0xb
 2291 016b AB140000 		.4byte	.LASF37
 2292 016f 28       		.sleb128 40
 2293 0170 0B       		.uleb128 0xb
 2294 0171 F60D0000 		.4byte	.LASF38
 2295 0175 29       		.sleb128 41
 2296 0176 0B       		.uleb128 0xb
 2297 0177 1B0A0000 		.4byte	.LASF39
 2298 017b 2A       		.sleb128 42
 2299 017c 0B       		.uleb128 0xb
 2300 017d E50C0000 		.4byte	.LASF40
 2301 0181 2B       		.sleb128 43
 2302 0182 0B       		.uleb128 0xb
 2303 0183 5C130000 		.4byte	.LASF41
 2304 0187 2C       		.sleb128 44
 2305 0188 0B       		.uleb128 0xb
 2306 0189 4D000000 		.4byte	.LASF42
 2307 018d 2D       		.sleb128 45
 2308 018e 0B       		.uleb128 0xb
 2309 018f BA100000 		.4byte	.LASF43
 2310 0193 2E       		.sleb128 46
 2311 0194 0B       		.uleb128 0xb
 2312 0195 86020000 		.4byte	.LASF44
 2313 0199 2F       		.sleb128 47
 2314 019a 0B       		.uleb128 0xb
 2315 019b 28060000 		.4byte	.LASF45
 2316 019f 30       		.sleb128 48
 2317 01a0 0B       		.uleb128 0xb
 2318 01a1 630B0000 		.4byte	.LASF46
 2319 01a5 31       		.sleb128 49
 2320 01a6 0B       		.uleb128 0xb
 2321 01a7 84060000 		.4byte	.LASF47
 2322 01ab 32       		.sleb128 50
 2323 01ac 0B       		.uleb128 0xb
 2324 01ad 60050000 		.4byte	.LASF48
 2325 01b1 33       		.sleb128 51
 2326 01b2 0B       		.uleb128 0xb
 2327 01b3 62110000 		.4byte	.LASF49
 2328 01b7 C000     		.sleb128 64
 2329 01b9 0B       		.uleb128 0xb
 2330 01ba ED000000 		.4byte	.LASF50
 2331 01be C100     		.sleb128 65
 2332 01c0 0B       		.uleb128 0xb
 2333 01c1 2F140000 		.4byte	.LASF51
 2334 01c5 C200     		.sleb128 66
 2335 01c7 0B       		.uleb128 0xb
 2336 01c8 2C0E0000 		.4byte	.LASF52
ARM GAS  C:\Users\ADMINI~1\AppData\Local\Temp\ccm0G0A3.s 			page 61


 2337 01cc C300     		.sleb128 67
 2338 01ce 0B       		.uleb128 0xb
 2339 01cf 0F050000 		.4byte	.LASF53
 2340 01d3 C400     		.sleb128 68
 2341 01d5 0B       		.uleb128 0xb
 2342 01d6 DA040000 		.4byte	.LASF54
 2343 01da C500     		.sleb128 69
 2344 01dc 0B       		.uleb128 0xb
 2345 01dd 36100000 		.4byte	.LASF55
 2346 01e1 C600     		.sleb128 70
 2347 01e3 0B       		.uleb128 0xb
 2348 01e4 18100000 		.4byte	.LASF56
 2349 01e8 C700     		.sleb128 71
 2350 01ea 0B       		.uleb128 0xb
 2351 01eb F1050000 		.4byte	.LASF57
 2352 01ef C800     		.sleb128 72
 2353 01f1 0B       		.uleb128 0xb
 2354 01f2 870D0000 		.4byte	.LASF58
 2355 01f6 C900     		.sleb128 73
 2356 01f8 0B       		.uleb128 0xb
 2357 01f9 CD060000 		.4byte	.LASF59
 2358 01fd CA00     		.sleb128 74
 2359 01ff 0B       		.uleb128 0xb
 2360 0200 4E060000 		.4byte	.LASF60
 2361 0204 CB00     		.sleb128 75
 2362 0206 0B       		.uleb128 0xb
 2363 0207 040D0000 		.4byte	.LASF61
 2364 020b CC00     		.sleb128 76
 2365 020d 0B       		.uleb128 0xb
 2366 020e 61100000 		.4byte	.LASF62
 2367 0212 CD00     		.sleb128 77
 2368 0214 0B       		.uleb128 0xb
 2369 0215 26030000 		.4byte	.LASF63
 2370 0219 CE00     		.sleb128 78
 2371 021b 0B       		.uleb128 0xb
 2372 021c 420C0000 		.4byte	.LASF64
 2373 0220 CF00     		.sleb128 79
 2374 0222 0B       		.uleb128 0xb
 2375 0223 AB110000 		.4byte	.LASF65
 2376 0227 D000     		.sleb128 80
 2377 0229 0B       		.uleb128 0xb
 2378 022a 54070000 		.4byte	.LASF66
 2379 022e D100     		.sleb128 81
 2380 0230 0B       		.uleb128 0xb
 2381 0231 15020000 		.4byte	.LASF67
 2382 0235 D200     		.sleb128 82
 2383 0237 0B       		.uleb128 0xb
 2384 0238 FE120000 		.4byte	.LASF68
 2385 023c D300     		.sleb128 83
 2386 023e 0B       		.uleb128 0xb
 2387 023f CD140000 		.4byte	.LASF69
 2388 0243 D400     		.sleb128 84
 2389 0245 0B       		.uleb128 0xb
 2390 0246 A7010000 		.4byte	.LASF70
 2391 024a D500     		.sleb128 85
 2392 024c 0B       		.uleb128 0xb
 2393 024d A8070000 		.4byte	.LASF71
ARM GAS  C:\Users\ADMINI~1\AppData\Local\Temp\ccm0G0A3.s 			page 62


 2394 0251 D600     		.sleb128 86
 2395 0253 0B       		.uleb128 0xb
 2396 0254 FA0B0000 		.4byte	.LASF72
 2397 0258 D700     		.sleb128 87
 2398 025a 0B       		.uleb128 0xb
 2399 025b 83140000 		.4byte	.LASF73
 2400 025f D800     		.sleb128 88
 2401 0261 0B       		.uleb128 0xb
 2402 0262 80130000 		.4byte	.LASF74
 2403 0266 F000     		.sleb128 112
 2404 0268 0B       		.uleb128 0xb
 2405 0269 93080000 		.4byte	.LASF75
 2406 026d F100     		.sleb128 113
 2407 026f 0B       		.uleb128 0xb
 2408 0270 4F040000 		.4byte	.LASF76
 2409 0274 F200     		.sleb128 114
 2410 0276 0B       		.uleb128 0xb
 2411 0277 8D110000 		.4byte	.LASF77
 2412 027b F300     		.sleb128 115
 2413 027d 0B       		.uleb128 0xb
 2414 027e A00D0000 		.4byte	.LASF78
 2415 0282 F400     		.sleb128 116
 2416 0284 0B       		.uleb128 0xb
 2417 0285 4E0A0000 		.4byte	.LASF79
 2418 0289 F500     		.sleb128 117
 2419 028b 0B       		.uleb128 0xb
 2420 028c D0050000 		.4byte	.LASF80
 2421 0290 F600     		.sleb128 118
 2422 0292 0B       		.uleb128 0xb
 2423 0293 F00E0000 		.4byte	.LASF81
 2424 0297 F700     		.sleb128 119
 2425 0299 0B       		.uleb128 0xb
 2426 029a CB010000 		.4byte	.LASF82
 2427 029e F800     		.sleb128 120
 2428 02a0 0B       		.uleb128 0xb
 2429 02a1 87050000 		.4byte	.LASF83
 2430 02a5 F900     		.sleb128 121
 2431 02a7 0B       		.uleb128 0xb
 2432 02a8 4D140000 		.4byte	.LASF84
 2433 02ac FA00     		.sleb128 122
 2434 02ae 0B       		.uleb128 0xb
 2435 02af 450B0000 		.4byte	.LASF85
 2436 02b3 FA01     		.sleb128 250
 2437 02b5 0B       		.uleb128 0xb
 2438 02b6 A8120000 		.4byte	.LASF86
 2439 02ba FB01     		.sleb128 251
 2440 02bc 0B       		.uleb128 0xb
 2441 02bd D70C0000 		.4byte	.LASF87
 2442 02c1 FF01     		.sleb128 255
 2443 02c3 00       		.byte	0
 2444 02c4 0A       		.uleb128 0xa
 2445 02c5 02       		.byte	0x2
 2446 02c6 05       		.byte	0x5
 2447 02c7 FF02     		.2byte	0x2ff
 2448 02c9 94030000 		.4byte	0x394
 2449 02cd 0B       		.uleb128 0xb
 2450 02ce C0040000 		.4byte	.LASF88
ARM GAS  C:\Users\ADMINI~1\AppData\Local\Temp\ccm0G0A3.s 			page 63


 2451 02d2 00       		.sleb128 0
 2452 02d3 0B       		.uleb128 0xb
 2453 02d4 F5070000 		.4byte	.LASF89
 2454 02d8 01       		.sleb128 1
 2455 02d9 0B       		.uleb128 0xb
 2456 02da F5130000 		.4byte	.LASF90
 2457 02de 02       		.sleb128 2
 2458 02df 0B       		.uleb128 0xb
 2459 02e0 46080000 		.4byte	.LASF91
 2460 02e4 03       		.sleb128 3
 2461 02e5 0B       		.uleb128 0xb
 2462 02e6 5C090000 		.4byte	.LASF92
 2463 02ea 04       		.sleb128 4
 2464 02eb 0B       		.uleb128 0xb
 2465 02ec FE0A0000 		.4byte	.LASF93
 2466 02f0 05       		.sleb128 5
 2467 02f1 0B       		.uleb128 0xb
 2468 02f2 69120000 		.4byte	.LASF94
 2469 02f6 06       		.sleb128 6
 2470 02f7 0B       		.uleb128 0xb
 2471 02f8 B0060000 		.4byte	.LASF95
 2472 02fc 07       		.sleb128 7
 2473 02fd 0B       		.uleb128 0xb
 2474 02fe AB0B0000 		.4byte	.LASF96
 2475 0302 08       		.sleb128 8
 2476 0303 0B       		.uleb128 0xb
 2477 0304 FB110000 		.4byte	.LASF97
 2478 0308 09       		.sleb128 9
 2479 0309 0B       		.uleb128 0xb
 2480 030a 0D150000 		.4byte	.LASF98
 2481 030e 0A       		.sleb128 10
 2482 030f 0B       		.uleb128 0xb
 2483 0310 66020000 		.4byte	.LASF99
 2484 0314 0B       		.sleb128 11
 2485 0315 0B       		.uleb128 0xb
 2486 0316 29130000 		.4byte	.LASF100
 2487 031a 0C       		.sleb128 12
 2488 031b 0B       		.uleb128 0xb
 2489 031c 7D0C0000 		.4byte	.LASF101
 2490 0320 0D       		.sleb128 13
 2491 0321 0B       		.uleb128 0xb
 2492 0322 E3090000 		.4byte	.LASF102
 2493 0326 0E       		.sleb128 14
 2494 0327 0B       		.uleb128 0xb
 2495 0328 D90A0000 		.4byte	.LASF103
 2496 032c 0F       		.sleb128 15
 2497 032d 0B       		.uleb128 0xb
 2498 032e 5D010000 		.4byte	.LASF104
 2499 0332 10       		.sleb128 16
 2500 0333 0B       		.uleb128 0xb
 2501 0334 870B0000 		.4byte	.LASF105
 2502 0338 11       		.sleb128 17
 2503 0339 0B       		.uleb128 0xb
 2504 033a 95030000 		.4byte	.LASF106
 2505 033e 12       		.sleb128 18
 2506 033f 0B       		.uleb128 0xb
 2507 0340 6B040000 		.4byte	.LASF107
ARM GAS  C:\Users\ADMINI~1\AppData\Local\Temp\ccm0G0A3.s 			page 64


 2508 0344 13       		.sleb128 19
 2509 0345 0B       		.uleb128 0xb
 2510 0346 230B0000 		.4byte	.LASF108
 2511 034a 27       		.sleb128 39
 2512 034b 0B       		.uleb128 0xb
 2513 034c CF0B0000 		.4byte	.LASF109
 2514 0350 28       		.sleb128 40
 2515 0351 0B       		.uleb128 0xb
 2516 0352 8B010000 		.4byte	.LASF110
 2517 0356 29       		.sleb128 41
 2518 0357 0B       		.uleb128 0xb
 2519 0358 45110000 		.4byte	.LASF111
 2520 035c 2A       		.sleb128 42
 2521 035d 0B       		.uleb128 0xb
 2522 035e A5090000 		.4byte	.LASF112
 2523 0362 2B       		.sleb128 43
 2524 0363 0B       		.uleb128 0xb
 2525 0364 200F0000 		.4byte	.LASF113
 2526 0368 2C       		.sleb128 44
 2527 0369 0B       		.uleb128 0xb
 2528 036a D9070000 		.4byte	.LASF114
 2529 036e FE01     		.sleb128 254
 2530 0370 0B       		.uleb128 0xb
 2531 0371 83080000 		.4byte	.LASF115
 2532 0375 FF01     		.sleb128 255
 2533 0377 0B       		.uleb128 0xb
 2534 0378 6E0D0000 		.4byte	.LASF116
 2535 037c 8002     		.sleb128 256
 2536 037e 0B       		.uleb128 0xb
 2537 037f 550D0000 		.4byte	.LASF117
 2538 0383 8102     		.sleb128 257
 2539 0385 0B       		.uleb128 0xb
 2540 0386 DB030000 		.4byte	.LASF118
 2541 038a 8202     		.sleb128 258
 2542 038c 0B       		.uleb128 0xb
 2543 038d BA0E0000 		.4byte	.LASF119
 2544 0391 8302     		.sleb128 259
 2545 0393 00       		.byte	0
 2546 0394 05       		.uleb128 0x5
 2547 0395 C7120000 		.4byte	.LASF120
 2548 0399 05       		.byte	0x5
 2549 039a 6B03     		.2byte	0x36b
 2550 039c C4020000 		.4byte	0x2c4
 2551 03a0 0A       		.uleb128 0xa
 2552 03a1 01       		.byte	0x1
 2553 03a2 05       		.byte	0x5
 2554 03a3 6F03     		.2byte	0x36f
 2555 03a5 C9030000 		.4byte	0x3c9
 2556 03a9 0B       		.uleb128 0xb
 2557 03aa 660E0000 		.4byte	.LASF121
 2558 03ae 01       		.sleb128 1
 2559 03af 0B       		.uleb128 0xb
 2560 03b0 3F050000 		.4byte	.LASF122
 2561 03b4 02       		.sleb128 2
 2562 03b5 0B       		.uleb128 0xb
 2563 03b6 A80A0000 		.4byte	.LASF123
 2564 03ba 03       		.sleb128 3
ARM GAS  C:\Users\ADMINI~1\AppData\Local\Temp\ccm0G0A3.s 			page 65


 2565 03bb 0B       		.uleb128 0xb
 2566 03bc 92120000 		.4byte	.LASF124
 2567 03c0 04       		.sleb128 4
 2568 03c1 0B       		.uleb128 0xb
 2569 03c2 B9080000 		.4byte	.LASF125
 2570 03c6 FF01     		.sleb128 255
 2571 03c8 00       		.byte	0
 2572 03c9 05       		.uleb128 0x5
 2573 03ca 18060000 		.4byte	.LASF126
 2574 03ce 05       		.byte	0x5
 2575 03cf 8B03     		.2byte	0x38b
 2576 03d1 A0030000 		.4byte	0x3a0
 2577 03d5 0A       		.uleb128 0xa
 2578 03d6 01       		.byte	0x1
 2579 03d7 05       		.byte	0x5
 2580 03d8 8F03     		.2byte	0x38f
 2581 03da 10040000 		.4byte	0x410
 2582 03de 0B       		.uleb128 0xb
 2583 03df B7050000 		.4byte	.LASF127
 2584 03e3 01       		.sleb128 1
 2585 03e4 0B       		.uleb128 0xb
 2586 03e5 FE030000 		.4byte	.LASF128
 2587 03e9 02       		.sleb128 2
 2588 03ea 0B       		.uleb128 0xb
 2589 03eb B8030000 		.4byte	.LASF129
 2590 03ef 03       		.sleb128 3
 2591 03f0 0B       		.uleb128 0xb
 2592 03f1 19010000 		.4byte	.LASF130
 2593 03f5 04       		.sleb128 4
 2594 03f6 0B       		.uleb128 0xb
 2595 03f7 35120000 		.4byte	.LASF131
 2596 03fb 05       		.sleb128 5
 2597 03fc 0B       		.uleb128 0xb
 2598 03fd 3A150000 		.4byte	.LASF132
 2599 0401 06       		.sleb128 6
 2600 0402 0B       		.uleb128 0xb
 2601 0403 39010000 		.4byte	.LASF133
 2602 0407 07       		.sleb128 7
 2603 0408 0B       		.uleb128 0xb
 2604 0409 DA120000 		.4byte	.LASF134
 2605 040d FF01     		.sleb128 255
 2606 040f 00       		.byte	0
 2607 0410 05       		.uleb128 0x5
 2608 0411 3B090000 		.4byte	.LASF135
 2609 0415 05       		.byte	0x5
 2610 0416 9803     		.2byte	0x398
 2611 0418 D5030000 		.4byte	0x3d5
 2612 041c 0C       		.uleb128 0xc
 2613 041d 07       		.byte	0x7
 2614 041e 05       		.byte	0x5
 2615 041f 2804     		.2byte	0x428
 2616 0421 40040000 		.4byte	0x440
 2617 0425 0D       		.uleb128 0xd
 2618 0426 1F120000 		.4byte	.LASF136
 2619 042a 05       		.byte	0x5
 2620 042b 2B04     		.2byte	0x42b
 2621 042d 40040000 		.4byte	0x440
ARM GAS  C:\Users\ADMINI~1\AppData\Local\Temp\ccm0G0A3.s 			page 66


 2622 0431 00       		.byte	0
 2623 0432 0D       		.uleb128 0xd
 2624 0433 01020000 		.4byte	.LASF137
 2625 0437 05       		.byte	0x5
 2626 0438 2D04     		.2byte	0x42d
 2627 043a 97000000 		.4byte	0x97
 2628 043e 06       		.byte	0x6
 2629 043f 00       		.byte	0
 2630 0440 0E       		.uleb128 0xe
 2631 0441 97000000 		.4byte	0x97
 2632 0445 50040000 		.4byte	0x450
 2633 0449 0F       		.uleb128 0xf
 2634 044a ED000000 		.4byte	0xed
 2635 044e 05       		.byte	0x5
 2636 044f 00       		.byte	0
 2637 0450 05       		.uleb128 0x5
 2638 0451 550F0000 		.4byte	.LASF138
 2639 0455 05       		.byte	0x5
 2640 0456 2E04     		.2byte	0x42e
 2641 0458 1C040000 		.4byte	0x41c
 2642 045c 10       		.uleb128 0x10
 2643 045d 01       		.byte	0x1
 2644 045e 06       		.byte	0x6
 2645 045f E4       		.byte	0xe4
 2646 0460 83040000 		.4byte	0x483
 2647 0464 0B       		.uleb128 0xb
 2648 0465 44030000 		.4byte	.LASF139
 2649 0469 00       		.sleb128 0
 2650 046a 0B       		.uleb128 0xb
 2651 046b 380F0000 		.4byte	.LASF140
 2652 046f 01       		.sleb128 1
 2653 0470 0B       		.uleb128 0xb
 2654 0471 1B110000 		.4byte	.LASF141
 2655 0475 02       		.sleb128 2
 2656 0476 0B       		.uleb128 0xb
 2657 0477 FA020000 		.4byte	.LASF142
 2658 047b 03       		.sleb128 3
 2659 047c 0B       		.uleb128 0xb
 2660 047d 21000000 		.4byte	.LASF143
 2661 0481 04       		.sleb128 4
 2662 0482 00       		.byte	0
 2663 0483 03       		.uleb128 0x3
 2664 0484 52120000 		.4byte	.LASF144
 2665 0488 06       		.byte	0x6
 2666 0489 F4       		.byte	0xf4
 2667 048a 5C040000 		.4byte	0x45c
 2668 048e 0C       		.uleb128 0xc
 2669 048f 1D       		.byte	0x1d
 2670 0490 06       		.byte	0x6
 2671 0491 E401     		.2byte	0x1e4
 2672 0493 B2040000 		.4byte	0x4b2
 2673 0497 0D       		.uleb128 0xd
 2674 0498 F40B0000 		.4byte	.LASF145
 2675 049c 06       		.byte	0x6
 2676 049d E701     		.2byte	0x1e7
 2677 049f 97000000 		.4byte	0x97
 2678 04a3 00       		.byte	0
ARM GAS  C:\Users\ADMINI~1\AppData\Local\Temp\ccm0G0A3.s 			page 67


 2679 04a4 0D       		.uleb128 0xd
 2680 04a5 16000000 		.4byte	.LASF146
 2681 04a9 06       		.byte	0x6
 2682 04aa EC01     		.2byte	0x1ec
 2683 04ac B2040000 		.4byte	0x4b2
 2684 04b0 01       		.byte	0x1
 2685 04b1 00       		.byte	0
 2686 04b2 0E       		.uleb128 0xe
 2687 04b3 50040000 		.4byte	0x450
 2688 04b7 C2040000 		.4byte	0x4c2
 2689 04bb 0F       		.uleb128 0xf
 2690 04bc ED000000 		.4byte	0xed
 2691 04c0 03       		.byte	0x3
 2692 04c1 00       		.byte	0
 2693 04c2 05       		.uleb128 0x5
 2694 04c3 A6130000 		.4byte	.LASF147
 2695 04c7 06       		.byte	0x6
 2696 04c8 EE01     		.2byte	0x1ee
 2697 04ca 8E040000 		.4byte	0x48e
 2698 04ce 0C       		.uleb128 0xc
 2699 04cf 14       		.byte	0x14
 2700 04d0 06       		.byte	0x6
 2701 04d1 0C03     		.2byte	0x30c
 2702 04d3 26050000 		.4byte	0x526
 2703 04d7 0D       		.uleb128 0xd
 2704 04d8 F4120000 		.4byte	.LASF148
 2705 04dc 06       		.byte	0x6
 2706 04dd 1503     		.2byte	0x315
 2707 04df 83040000 		.4byte	0x483
 2708 04e3 00       		.byte	0
 2709 04e4 0D       		.uleb128 0xd
 2710 04e5 AA050000 		.4byte	.LASF149
 2711 04e9 06       		.byte	0x6
 2712 04ea 1D03     		.2byte	0x31d
 2713 04ec 97000000 		.4byte	0x97
 2714 04f0 01       		.byte	0x1
 2715 04f1 0D       		.uleb128 0xd
 2716 04f2 CF040000 		.4byte	.LASF150
 2717 04f6 06       		.byte	0x6
 2718 04f7 2103     		.2byte	0x321
 2719 04f9 26050000 		.4byte	0x526
 2720 04fd 04       		.byte	0x4
 2721 04fe 0D       		.uleb128 0xd
 2722 04ff 7A030000 		.4byte	.LASF151
 2723 0503 06       		.byte	0x6
 2724 0504 2403     		.2byte	0x324
 2725 0506 97000000 		.4byte	0x97
 2726 050a 08       		.byte	0x8
 2727 050b 0D       		.uleb128 0xd
 2728 050c A6140000 		.4byte	.LASF152
 2729 0510 06       		.byte	0x6
 2730 0511 2703     		.2byte	0x327
 2731 0513 26050000 		.4byte	0x526
 2732 0517 0C       		.byte	0xc
 2733 0518 0D       		.uleb128 0xd
 2734 0519 7E140000 		.4byte	.LASF153
 2735 051d 06       		.byte	0x6
ARM GAS  C:\Users\ADMINI~1\AppData\Local\Temp\ccm0G0A3.s 			page 68


 2736 051e 2C03     		.2byte	0x32c
 2737 0520 BB000000 		.4byte	0xbb
 2738 0524 10       		.byte	0x10
 2739 0525 00       		.byte	0
 2740 0526 08       		.uleb128 0x8
 2741 0527 04       		.byte	0x4
 2742 0528 97000000 		.4byte	0x97
 2743 052c 05       		.uleb128 0x5
 2744 052d EE140000 		.4byte	.LASF154
 2745 0531 06       		.byte	0x6
 2746 0532 2E03     		.2byte	0x32e
 2747 0534 CE040000 		.4byte	0x4ce
 2748 0538 05       		.uleb128 0x5
 2749 0539 D40E0000 		.4byte	.LASF155
 2750 053d 07       		.byte	0x7
 2751 053e 9201     		.2byte	0x192
 2752 0540 A3000000 		.4byte	0xa3
 2753 0544 0C       		.uleb128 0xc
 2754 0545 02       		.byte	0x2
 2755 0546 07       		.byte	0x7
 2756 0547 9C01     		.2byte	0x19c
 2757 0549 68050000 		.4byte	0x568
 2758 054d 0D       		.uleb128 0xd
 2759 054e AF020000 		.4byte	.LASF156
 2760 0552 07       		.byte	0x7
 2761 0553 A301     		.2byte	0x1a3
 2762 0555 97000000 		.4byte	0x97
 2763 0559 00       		.byte	0
 2764 055a 0D       		.uleb128 0xd
 2765 055b EF130000 		.4byte	.LASF157
 2766 055f 07       		.byte	0x7
 2767 0560 A901     		.2byte	0x1a9
 2768 0562 97000000 		.4byte	0x97
 2769 0566 01       		.byte	0x1
 2770 0567 00       		.byte	0
 2771 0568 05       		.uleb128 0x5
 2772 0569 52020000 		.4byte	.LASF158
 2773 056d 07       		.byte	0x7
 2774 056e AB01     		.2byte	0x1ab
 2775 0570 44050000 		.4byte	0x544
 2776 0574 0C       		.uleb128 0xc
 2777 0575 08       		.byte	0x8
 2778 0576 07       		.byte	0x7
 2779 0577 C701     		.2byte	0x1c7
 2780 0579 A5050000 		.4byte	0x5a5
 2781 057d 11       		.uleb128 0x11
 2782 057e 76616C00 		.ascii	"val\000"
 2783 0582 07       		.byte	0x7
 2784 0583 CA01     		.2byte	0x1ca
 2785 0585 26050000 		.4byte	0x526
 2786 0589 00       		.byte	0
 2787 058a 11       		.uleb128 0x11
 2788 058b 6C656E00 		.ascii	"len\000"
 2789 058f 07       		.byte	0x7
 2790 0590 CD01     		.2byte	0x1cd
 2791 0592 A3000000 		.4byte	0xa3
 2792 0596 04       		.byte	0x4
ARM GAS  C:\Users\ADMINI~1\AppData\Local\Temp\ccm0G0A3.s 			page 69


 2793 0597 0D       		.uleb128 0xd
 2794 0598 E5130000 		.4byte	.LASF159
 2795 059c 07       		.byte	0x7
 2796 059d D401     		.2byte	0x1d4
 2797 059f A3000000 		.4byte	0xa3
 2798 05a3 06       		.byte	0x6
 2799 05a4 00       		.byte	0
 2800 05a5 05       		.uleb128 0x5
 2801 05a6 EE010000 		.4byte	.LASF160
 2802 05aa 07       		.byte	0x7
 2803 05ab D601     		.2byte	0x1d6
 2804 05ad 74050000 		.4byte	0x574
 2805 05b1 0C       		.uleb128 0xc
 2806 05b2 0C       		.byte	0xc
 2807 05b3 07       		.byte	0x7
 2808 05b4 D901     		.2byte	0x1d9
 2809 05b6 D5050000 		.4byte	0x5d5
 2810 05ba 0D       		.uleb128 0xd
 2811 05bb 0F0F0000 		.4byte	.LASF161
 2812 05bf 07       		.byte	0x7
 2813 05c0 DC01     		.2byte	0x1dc
 2814 05c2 A5050000 		.4byte	0x5a5
 2815 05c6 00       		.byte	0
 2816 05c7 0D       		.uleb128 0xd
 2817 05c8 2A0C0000 		.4byte	.LASF162
 2818 05cc 07       		.byte	0x7
 2819 05cd DF01     		.2byte	0x1df
 2820 05cf 38050000 		.4byte	0x538
 2821 05d3 08       		.byte	0x8
 2822 05d4 00       		.byte	0
 2823 05d5 05       		.uleb128 0x5
 2824 05d6 29040000 		.4byte	.LASF163
 2825 05da 07       		.byte	0x7
 2826 05db E101     		.2byte	0x1e1
 2827 05dd B1050000 		.4byte	0x5b1
 2828 05e1 03       		.uleb128 0x3
 2829 05e2 4A0E0000 		.4byte	.LASF164
 2830 05e6 08       		.byte	0x8
 2831 05e7 75       		.byte	0x75
 2832 05e8 D5050000 		.4byte	0x5d5
 2833 05ec 12       		.uleb128 0x12
 2834 05ed 10       		.byte	0x10
 2835 05ee 08       		.byte	0x8
 2836 05ef 89       		.byte	0x89
 2837 05f0 0D060000 		.4byte	0x60d
 2838 05f4 13       		.uleb128 0x13
 2839 05f5 F70F0000 		.4byte	.LASF165
 2840 05f9 08       		.byte	0x8
 2841 05fa 8C       		.byte	0x8c
 2842 05fb 68050000 		.4byte	0x568
 2843 05ff 00       		.byte	0
 2844 0600 13       		.uleb128 0x13
 2845 0601 F9100000 		.4byte	.LASF166
 2846 0605 08       		.byte	0x8
 2847 0606 8F       		.byte	0x8f
 2848 0607 D5050000 		.4byte	0x5d5
 2849 060b 04       		.byte	0x4
ARM GAS  C:\Users\ADMINI~1\AppData\Local\Temp\ccm0G0A3.s 			page 70


 2850 060c 00       		.byte	0
 2851 060d 03       		.uleb128 0x3
 2852 060e 73070000 		.4byte	.LASF167
 2853 0612 08       		.byte	0x8
 2854 0613 91       		.byte	0x91
 2855 0614 EC050000 		.4byte	0x5ec
 2856 0618 0A       		.uleb128 0xa
 2857 0619 01       		.byte	0x1
 2858 061a 09       		.byte	0x9
 2859 061b 0108     		.2byte	0x801
 2860 061d 34060000 		.4byte	0x634
 2861 0621 0B       		.uleb128 0xb
 2862 0622 09100000 		.4byte	.LASF168
 2863 0626 00       		.sleb128 0
 2864 0627 0B       		.uleb128 0xb
 2865 0628 F5080000 		.4byte	.LASF169
 2866 062c 01       		.sleb128 1
 2867 062d 0B       		.uleb128 0xb
 2868 062e 7C110000 		.4byte	.LASF170
 2869 0632 02       		.sleb128 2
 2870 0633 00       		.byte	0
 2871 0634 10       		.uleb128 0x10
 2872 0635 01       		.byte	0x1
 2873 0636 0A       		.byte	0xa
 2874 0637 3C       		.byte	0x3c
 2875 0638 4F060000 		.4byte	0x64f
 2876 063c 14       		.uleb128 0x14
 2877 063d 53575400 		.ascii	"SWT\000"
 2878 0641 00       		.sleb128 0
 2879 0642 14       		.uleb128 0x14
 2880 0643 4E544600 		.ascii	"NTF\000"
 2881 0647 01       		.sleb128 1
 2882 0648 0B       		.uleb128 0xb
 2883 0649 230C0000 		.4byte	.LASF171
 2884 064d 02       		.sleb128 2
 2885 064e 00       		.byte	0
 2886 064f 10       		.uleb128 0x10
 2887 0650 01       		.byte	0x1
 2888 0651 0A       		.byte	0xa
 2889 0652 43       		.byte	0x43
 2890 0653 7C060000 		.4byte	0x67c
 2891 0657 0B       		.uleb128 0xb
 2892 0658 EE110000 		.4byte	.LASF172
 2893 065c 00       		.sleb128 0
 2894 065d 0B       		.uleb128 0xb
 2895 065e 4F090000 		.4byte	.LASF173
 2896 0662 01       		.sleb128 1
 2897 0663 0B       		.uleb128 0xb
 2898 0664 7F090000 		.4byte	.LASF174
 2899 0668 02       		.sleb128 2
 2900 0669 0B       		.uleb128 0xb
 2901 066a 76000000 		.4byte	.LASF175
 2902 066e 03       		.sleb128 3
 2903 066f 0B       		.uleb128 0xb
 2904 0670 71140000 		.4byte	.LASF176
 2905 0674 04       		.sleb128 4
 2906 0675 0B       		.uleb128 0xb
ARM GAS  C:\Users\ADMINI~1\AppData\Local\Temp\ccm0G0A3.s 			page 71


 2907 0676 EC0D0000 		.4byte	.LASF177
 2908 067a 05       		.sleb128 5
 2909 067b 00       		.byte	0
 2910 067c 10       		.uleb128 0x10
 2911 067d 01       		.byte	0x1
 2912 067e 0A       		.byte	0xa
 2913 067f 4D       		.byte	0x4d
 2914 0680 A3060000 		.4byte	0x6a3
 2915 0684 0B       		.uleb128 0xb
 2916 0685 1E080000 		.4byte	.LASF178
 2917 0689 00       		.sleb128 0
 2918 068a 0B       		.uleb128 0xb
 2919 068b 26080000 		.4byte	.LASF179
 2920 068f 01       		.sleb128 1
 2921 0690 0B       		.uleb128 0xb
 2922 0691 2E080000 		.4byte	.LASF180
 2923 0695 02       		.sleb128 2
 2924 0696 0B       		.uleb128 0xb
 2925 0697 36080000 		.4byte	.LASF181
 2926 069b 03       		.sleb128 3
 2927 069c 0B       		.uleb128 0xb
 2928 069d 3E080000 		.4byte	.LASF182
 2929 06a1 04       		.sleb128 4
 2930 06a2 00       		.byte	0
 2931 06a3 10       		.uleb128 0x10
 2932 06a4 01       		.byte	0x1
 2933 06a5 0A       		.byte	0xa
 2934 06a6 56       		.byte	0x56
 2935 06a7 D0060000 		.4byte	0x6d0
 2936 06ab 0B       		.uleb128 0xb
 2937 06ac CD080000 		.4byte	.LASF183
 2938 06b0 00       		.sleb128 0
 2939 06b1 0B       		.uleb128 0xb
 2940 06b2 D5080000 		.4byte	.LASF184
 2941 06b6 01       		.sleb128 1
 2942 06b7 0B       		.uleb128 0xb
 2943 06b8 DD080000 		.4byte	.LASF185
 2944 06bc 02       		.sleb128 2
 2945 06bd 0B       		.uleb128 0xb
 2946 06be E5080000 		.4byte	.LASF186
 2947 06c2 03       		.sleb128 3
 2948 06c3 0B       		.uleb128 0xb
 2949 06c4 ED080000 		.4byte	.LASF187
 2950 06c8 04       		.sleb128 4
 2951 06c9 0B       		.uleb128 0xb
 2952 06ca 55010000 		.4byte	.LASF188
 2953 06ce 05       		.sleb128 5
 2954 06cf 00       		.byte	0
 2955 06d0 15       		.uleb128 0x15
 2956 06d1 425400   		.ascii	"BT\000"
 2957 06d4 05       		.byte	0x5
 2958 06d5 0A       		.byte	0xa
 2959 06d6 62       		.byte	0x62
 2960 06d7 18070000 		.4byte	0x718
 2961 06db 13       		.uleb128 0x13
 2962 06dc 10120000 		.4byte	.LASF189
 2963 06e0 0A       		.byte	0xa
ARM GAS  C:\Users\ADMINI~1\AppData\Local\Temp\ccm0G0A3.s 			page 72


 2964 06e1 64       		.byte	0x64
 2965 06e2 81000000 		.4byte	0x81
 2966 06e6 00       		.byte	0
 2967 06e7 13       		.uleb128 0x13
 2968 06e8 06020000 		.4byte	.LASF190
 2969 06ec 0A       		.byte	0xa
 2970 06ed 65       		.byte	0x65
 2971 06ee 81000000 		.4byte	0x81
 2972 06f2 01       		.byte	0x1
 2973 06f3 13       		.uleb128 0x13
 2974 06f4 B50C0000 		.4byte	.LASF191
 2975 06f8 0A       		.byte	0xa
 2976 06f9 66       		.byte	0x66
 2977 06fa 81000000 		.4byte	0x81
 2978 06fe 02       		.byte	0x2
 2979 06ff 13       		.uleb128 0x13
 2980 0700 51050000 		.4byte	.LASF192
 2981 0704 0A       		.byte	0xa
 2982 0705 67       		.byte	0x67
 2983 0706 81000000 		.4byte	0x81
 2984 070a 03       		.byte	0x3
 2985 070b 13       		.uleb128 0x13
 2986 070c 26120000 		.4byte	.LASF193
 2987 0710 0A       		.byte	0xa
 2988 0711 68       		.byte	0x68
 2989 0712 81000000 		.4byte	0x81
 2990 0716 04       		.byte	0x4
 2991 0717 00       		.byte	0
 2992 0718 16       		.uleb128 0x16
 2993 0719 71080000 		.4byte	.LASF201
 2994 071d 01       		.byte	0x1
 2995 071e 84       		.byte	0x84
 2996 071f 00000000 		.4byte	.LFB37
 2997 0723 F8010000 		.4byte	.LFE37-.LFB37
 2998 0727 01       		.uleb128 0x1
 2999 0728 9C       		.byte	0x9c
 3000 0729 72070000 		.4byte	0x772
 3001 072d 17       		.uleb128 0x17
 3002 072e 1F130000 		.4byte	.LASF194
 3003 0732 01       		.byte	0x1
 3004 0733 84       		.byte	0x84
 3005 0734 AF000000 		.4byte	0xaf
 3006 0738 02       		.uleb128 0x2
 3007 0739 91       		.byte	0x91
 3008 073a 44       		.sleb128 -60
 3009 073b 17       		.uleb128 0x17
 3010 073c A3000000 		.4byte	.LASF195
 3011 0740 01       		.byte	0x1
 3012 0741 84       		.byte	0x84
 3013 0742 F4000000 		.4byte	0xf4
 3014 0746 02       		.uleb128 0x2
 3015 0747 91       		.byte	0x91
 3016 0748 40       		.sleb128 -64
 3017 0749 18       		.uleb128 0x18
 3018 074a 07110000 		.4byte	.LASF196
 3019 074e 01       		.byte	0x1
 3020 074f 88       		.byte	0x88
ARM GAS  C:\Users\ADMINI~1\AppData\Local\Temp\ccm0G0A3.s 			page 73


 3021 0750 0D060000 		.4byte	0x60d
 3022 0754 02       		.uleb128 0x2
 3023 0755 91       		.byte	0x91
 3024 0756 5C       		.sleb128 -36
 3025 0757 18       		.uleb128 0x18
 3026 0758 D0030000 		.4byte	.LASF197
 3027 075c 01       		.byte	0x1
 3028 075d 89       		.byte	0x89
 3029 075e 2C050000 		.4byte	0x52c
 3030 0762 02       		.uleb128 0x2
 3031 0763 91       		.byte	0x91
 3032 0764 48       		.sleb128 -56
 3033 0765 19       		.uleb128 0x19
 3034 0766 6900     		.ascii	"i\000"
 3035 0768 01       		.byte	0x1
 3036 0769 8A       		.byte	0x8a
 3037 076a 81000000 		.4byte	0x81
 3038 076e 02       		.uleb128 0x2
 3039 076f 91       		.byte	0x91
 3040 0770 6F       		.sleb128 -17
 3041 0771 00       		.byte	0
 3042 0772 1A       		.uleb128 0x1a
 3043 0773 610C0000 		.4byte	.LASF198
 3044 0777 01       		.byte	0x1
 3045 0778 0A01     		.2byte	0x10a
 3046 077a 00000000 		.4byte	.LFB38
 3047 077e 08000000 		.4byte	.LFE38-.LFB38
 3048 0782 01       		.uleb128 0x1
 3049 0783 9C       		.byte	0x9c
 3050 0784 1A       		.uleb128 0x1a
 3051 0785 DE020000 		.4byte	.LASF199
 3052 0789 01       		.byte	0x1
 3053 078a 1601     		.2byte	0x116
 3054 078c 00000000 		.4byte	.LFB39
 3055 0790 08000000 		.4byte	.LFE39-.LFB39
 3056 0794 01       		.uleb128 0x1
 3057 0795 9C       		.byte	0x9c
 3058 0796 1A       		.uleb128 0x1a
 3059 0797 B8020000 		.4byte	.LASF200
 3060 079b 01       		.byte	0x1
 3061 079c 2201     		.2byte	0x122
 3062 079e 00000000 		.4byte	.LFB40
 3063 07a2 08000000 		.4byte	.LFE40-.LFB40
 3064 07a6 01       		.uleb128 0x1
 3065 07a7 9C       		.byte	0x9c
 3066 07a8 1B       		.uleb128 0x1b
 3067 07a9 98070000 		.4byte	.LASF202
 3068 07ad 01       		.byte	0x1
 3069 07ae 3101     		.2byte	0x131
 3070 07b0 00000000 		.4byte	.LFB41
 3071 07b4 1C000000 		.4byte	.LFE41-.LFB41
 3072 07b8 01       		.uleb128 0x1
 3073 07b9 9C       		.byte	0x9c
 3074 07ba DD070000 		.4byte	0x7dd
 3075 07be 1C       		.uleb128 0x1c
 3076 07bf 13140000 		.4byte	.LASF203
 3077 07c3 01       		.byte	0x1
ARM GAS  C:\Users\ADMINI~1\AppData\Local\Temp\ccm0G0A3.s 			page 74


 3078 07c4 3101     		.2byte	0x131
 3079 07c6 F6000000 		.4byte	0xf6
 3080 07ca 02       		.uleb128 0x2
 3081 07cb 91       		.byte	0x91
 3082 07cc 74       		.sleb128 -12
 3083 07cd 1D       		.uleb128 0x1d
 3084 07ce 4C656E00 		.ascii	"Len\000"
 3085 07d2 01       		.byte	0x1
 3086 07d3 3101     		.2byte	0x131
 3087 07d5 8C000000 		.4byte	0x8c
 3088 07d9 02       		.uleb128 0x2
 3089 07da 91       		.byte	0x91
 3090 07db 72       		.sleb128 -14
 3091 07dc 00       		.byte	0
 3092 07dd 1B       		.uleb128 0x1b
 3093 07de A20C0000 		.4byte	.LASF204
 3094 07e2 01       		.byte	0x1
 3095 07e3 4E01     		.2byte	0x14e
 3096 07e5 00000000 		.4byte	.LFB42
 3097 07e9 0E000000 		.4byte	.LFE42-.LFB42
 3098 07ed 01       		.uleb128 0x1
 3099 07ee 9C       		.byte	0x9c
 3100 07ef 03080000 		.4byte	0x803
 3101 07f3 1C       		.uleb128 0x1c
 3102 07f4 930A0000 		.4byte	.LASF205
 3103 07f8 01       		.byte	0x1
 3104 07f9 4E01     		.2byte	0x14e
 3105 07fb FC000000 		.4byte	0xfc
 3106 07ff 02       		.uleb128 0x2
 3107 0800 91       		.byte	0x91
 3108 0801 74       		.sleb128 -12
 3109 0802 00       		.byte	0
 3110 0803 1E       		.uleb128 0x1e
 3111 0804 27150000 		.4byte	.LASF206
 3112 0808 01       		.byte	0x1
 3113 0809 7B01     		.2byte	0x17b
 3114 080b 00000000 		.4byte	.LFB43
 3115 080f 30030000 		.4byte	.LFE43-.LFB43
 3116 0813 01       		.uleb128 0x1
 3117 0814 9C       		.byte	0x9c
 3118 0815 65080000 		.4byte	0x865
 3119 0819 1C       		.uleb128 0x1c
 3120 081a 930A0000 		.4byte	.LASF205
 3121 081e 01       		.byte	0x1
 3122 081f 7B01     		.2byte	0x17b
 3123 0821 FC000000 		.4byte	0xfc
 3124 0825 02       		.uleb128 0x2
 3125 0826 91       		.byte	0x91
 3126 0827 5C       		.sleb128 -36
 3127 0828 1F       		.uleb128 0x1f
 3128 0829 83100000 		.4byte	.LASF207
 3129 082d 01       		.byte	0x1
 3130 082e 7E01     		.2byte	0x17e
 3131 0830 81000000 		.4byte	0x81
 3132 0834 02       		.uleb128 0x2
 3133 0835 91       		.byte	0x91
 3134 0836 6E       		.sleb128 -18
ARM GAS  C:\Users\ADMINI~1\AppData\Local\Temp\ccm0G0A3.s 			page 75


 3135 0837 1F       		.uleb128 0x1f
 3136 0838 6B080000 		.4byte	.LASF208
 3137 083c 01       		.byte	0x1
 3138 083d 7E01     		.2byte	0x17e
 3139 083f 81000000 		.4byte	0x81
 3140 0843 02       		.uleb128 0x2
 3141 0844 91       		.byte	0x91
 3142 0845 6F       		.sleb128 -17
 3143 0846 1F       		.uleb128 0x1f
 3144 0847 3A110000 		.4byte	.LASF209
 3145 084b 01       		.byte	0x1
 3146 084c 7F01     		.2byte	0x17f
 3147 084e 94030000 		.4byte	0x394
 3148 0852 02       		.uleb128 0x2
 3149 0853 91       		.byte	0x91
 3150 0854 66       		.sleb128 -26
 3151 0855 1F       		.uleb128 0x1f
 3152 0856 1E0D0000 		.4byte	.LASF210
 3153 085a 01       		.byte	0x1
 3154 085b 8301     		.2byte	0x183
 3155 085d F6000000 		.4byte	0xf6
 3156 0861 02       		.uleb128 0x2
 3157 0862 91       		.byte	0x91
 3158 0863 68       		.sleb128 -24
 3159 0864 00       		.byte	0
 3160 0865 20       		.uleb128 0x20
 3161 0866 D8090000 		.4byte	.LASF211
 3162 086a 01       		.byte	0x1
 3163 086b 1D02     		.2byte	0x21d
 3164 086d 00000000 		.4byte	.LFB44
 3165 0871 24000000 		.4byte	.LFE44-.LFB44
 3166 0875 01       		.uleb128 0x1
 3167 0876 9C       		.byte	0x9c
 3168 0877 1E       		.uleb128 0x1e
 3169 0878 3E000000 		.4byte	.LASF212
 3170 087c 01       		.byte	0x1
 3171 087d 2E02     		.2byte	0x22e
 3172 087f 00000000 		.4byte	.LFB45
 3173 0883 C0000000 		.4byte	.LFE45-.LFB45
 3174 0887 01       		.uleb128 0x1
 3175 0888 9C       		.byte	0x9c
 3176 0889 9D080000 		.4byte	0x89d
 3177 088d 1F       		.uleb128 0x1f
 3178 088e 2D050000 		.4byte	.LASF213
 3179 0892 01       		.byte	0x1
 3180 0893 3002     		.2byte	0x230
 3181 0895 81000000 		.4byte	0x81
 3182 0899 02       		.uleb128 0x2
 3183 089a 91       		.byte	0x91
 3184 089b 6F       		.sleb128 -17
 3185 089c 00       		.byte	0
 3186 089d 20       		.uleb128 0x20
 3187 089e 0C0A0000 		.4byte	.LASF214
 3188 08a2 01       		.byte	0x1
 3189 08a3 6D02     		.2byte	0x26d
 3190 08a5 00000000 		.4byte	.LFB46
 3191 08a9 28000000 		.4byte	.LFE46-.LFB46
ARM GAS  C:\Users\ADMINI~1\AppData\Local\Temp\ccm0G0A3.s 			page 76


 3192 08ad 01       		.uleb128 0x1
 3193 08ae 9C       		.byte	0x9c
 3194 08af 20       		.uleb128 0x20
 3195 08b0 83120000 		.4byte	.LASF215
 3196 08b4 01       		.byte	0x1
 3197 08b5 7E02     		.2byte	0x27e
 3198 08b7 00000000 		.4byte	.LFB47
 3199 08bb 28000000 		.4byte	.LFE47-.LFB47
 3200 08bf 01       		.uleb128 0x1
 3201 08c0 9C       		.byte	0x9c
 3202 08c1 20       		.uleb128 0x20
 3203 08c2 CA070000 		.4byte	.LASF216
 3204 08c6 01       		.byte	0x1
 3205 08c7 8F02     		.2byte	0x28f
 3206 08c9 00000000 		.4byte	.LFB48
 3207 08cd 28000000 		.4byte	.LFE48-.LFB48
 3208 08d1 01       		.uleb128 0x1
 3209 08d2 9C       		.byte	0x9c
 3210 08d3 1E       		.uleb128 0x1e
 3211 08d4 BE0D0000 		.4byte	.LASF217
 3212 08d8 01       		.byte	0x1
 3213 08d9 A102     		.2byte	0x2a1
 3214 08db 00000000 		.4byte	.LFB49
 3215 08df B8000000 		.4byte	.LFE49-.LFB49
 3216 08e3 01       		.uleb128 0x1
 3217 08e4 9C       		.byte	0x9c
 3218 08e5 F9080000 		.4byte	0x8f9
 3219 08e9 1F       		.uleb128 0x1f
 3220 08ea 3A110000 		.4byte	.LASF209
 3221 08ee 01       		.byte	0x1
 3222 08ef A402     		.2byte	0x2a4
 3223 08f1 94030000 		.4byte	0x394
 3224 08f5 02       		.uleb128 0x2
 3225 08f6 91       		.byte	0x91
 3226 08f7 6E       		.sleb128 -18
 3227 08f8 00       		.byte	0
 3228 08f9 1E       		.uleb128 0x1e
 3229 08fa C40C0000 		.4byte	.LASF218
 3230 08fe 01       		.byte	0x1
 3231 08ff DF02     		.2byte	0x2df
 3232 0901 00000000 		.4byte	.LFB50
 3233 0905 74010000 		.4byte	.LFE50-.LFB50
 3234 0909 01       		.uleb128 0x1
 3235 090a 9C       		.byte	0x9c
 3236 090b 1F090000 		.4byte	0x91f
 3237 090f 1F       		.uleb128 0x1f
 3238 0910 3A110000 		.4byte	.LASF209
 3239 0914 01       		.byte	0x1
 3240 0915 E102     		.2byte	0x2e1
 3241 0917 94030000 		.4byte	0x394
 3242 091b 02       		.uleb128 0x2
 3243 091c 91       		.byte	0x91
 3244 091d 6E       		.sleb128 -18
 3245 091e 00       		.byte	0
 3246 091f 1E       		.uleb128 0x1e
 3247 0920 90000000 		.4byte	.LASF219
 3248 0924 01       		.byte	0x1
ARM GAS  C:\Users\ADMINI~1\AppData\Local\Temp\ccm0G0A3.s 			page 77


 3249 0925 3C03     		.2byte	0x33c
 3250 0927 00000000 		.4byte	.LFB51
 3251 092b 80000000 		.4byte	.LFE51-.LFB51
 3252 092f 01       		.uleb128 0x1
 3253 0930 9C       		.byte	0x9c
 3254 0931 54090000 		.4byte	0x954
 3255 0935 1F       		.uleb128 0x1f
 3256 0936 440A0000 		.4byte	.LASF220
 3257 093a 01       		.byte	0x1
 3258 093b 3F03     		.2byte	0x33f
 3259 093d C9030000 		.4byte	0x3c9
 3260 0941 02       		.uleb128 0x2
 3261 0942 91       		.byte	0x91
 3262 0943 6F       		.sleb128 -17
 3263 0944 1F       		.uleb128 0x1f
 3264 0945 13080000 		.4byte	.LASF221
 3265 0949 01       		.byte	0x1
 3266 094a 4003     		.2byte	0x340
 3267 094c 10040000 		.4byte	0x410
 3268 0950 02       		.uleb128 0x2
 3269 0951 91       		.byte	0x91
 3270 0952 6E       		.sleb128 -18
 3271 0953 00       		.byte	0
 3272 0954 21       		.uleb128 0x21
 3273 0955 DE100000 		.4byte	.LASF222
 3274 0959 09       		.byte	0x9
 3275 095a DB09     		.2byte	0x9db
 3276 095c 68050000 		.4byte	0x568
 3277 0960 22       		.uleb128 0x22
 3278 0961 130E0000 		.4byte	.LASF223
 3279 0965 01       		.byte	0x1
 3280 0966 16       		.byte	0x16
 3281 0967 C2040000 		.4byte	0x4c2
 3282 096b 05       		.uleb128 0x5
 3283 096c 03       		.byte	0x3
 3284 096d 00000000 		.4byte	BondList
 3285 0971 0E       		.uleb128 0xe
 3286 0972 81000000 		.4byte	0x81
 3287 0976 81090000 		.4byte	0x981
 3288 097a 0F       		.uleb128 0xf
 3289 097b ED000000 		.4byte	0xed
 3290 097f 01       		.byte	0x1
 3291 0980 00       		.byte	0
 3292 0981 22       		.uleb128 0x22
 3293 0982 0A000000 		.4byte	.LASF224
 3294 0986 01       		.byte	0x1
 3295 0987 17       		.byte	0x17
 3296 0988 71090000 		.4byte	0x971
 3297 098c 05       		.uleb128 0x5
 3298 098d 03       		.byte	0x3
 3299 098e 00000000 		.4byte	NotifyValue
 3300 0992 22       		.uleb128 0x22
 3301 0993 48040000 		.4byte	.LASF225
 3302 0997 01       		.byte	0x1
 3303 0998 18       		.byte	0x18
 3304 0999 81000000 		.4byte	0x81
 3305 099d 05       		.uleb128 0x5
ARM GAS  C:\Users\ADMINI~1\AppData\Local\Temp\ccm0G0A3.s 			page 78


 3306 099e 03       		.byte	0x3
 3307 099f 00000000 		.4byte	WakeUp
 3308 09a3 22       		.uleb128 0x22
 3309 09a4 1C040000 		.4byte	.LASF226
 3310 09a8 01       		.byte	0x1
 3311 09a9 19       		.byte	0x19
 3312 09aa 81000000 		.4byte	0x81
 3313 09ae 05       		.uleb128 0x5
 3314 09af 03       		.byte	0x3
 3315 09b0 00000000 		.4byte	DeviceCounts
 3316 09b4 22       		.uleb128 0x22
 3317 09b5 250D0000 		.4byte	.LASF227
 3318 09b9 01       		.byte	0x1
 3319 09ba 1A       		.byte	0x1a
 3320 09bb 81000000 		.4byte	0x81
 3321 09bf 05       		.uleb128 0x5
 3322 09c0 03       		.byte	0x3
 3323 09c1 00000000 		.4byte	DeviceNum
 3324 09c5 22       		.uleb128 0x22
 3325 09c6 CC020000 		.4byte	.LASF228
 3326 09ca 01       		.byte	0x1
 3327 09cb 1B       		.byte	0x1b
 3328 09cc 81000000 		.4byte	0x81
 3329 09d0 05       		.uleb128 0x5
 3330 09d1 03       		.byte	0x3
 3331 09d2 00000000 		.4byte	BondNum
 3332 09d6 22       		.uleb128 0x22
 3333 09d7 00000000 		.4byte	.LASF229
 3334 09db 01       		.byte	0x1
 3335 09dc 1C       		.byte	0x1c
 3336 09dd 81000000 		.4byte	0x81
 3337 09e1 05       		.uleb128 0x5
 3338 09e2 03       		.byte	0x3
 3339 09e3 00000000 		.4byte	ReConnect
 3340 09e7 22       		.uleb128 0x22
 3341 09e8 02100000 		.4byte	.LASF230
 3342 09ec 01       		.byte	0x1
 3343 09ed 1F       		.byte	0x1f
 3344 09ee B2040000 		.4byte	0x4b2
 3345 09f2 05       		.uleb128 0x5
 3346 09f3 03       		.byte	0x3
 3347 09f4 00000000 		.4byte	Device
 3348 09f8 22       		.uleb128 0x22
 3349 09f9 150F0000 		.4byte	.LASF231
 3350 09fd 01       		.byte	0x1
 3351 09fe 31       		.byte	0x31
 3352 09ff 50040000 		.4byte	0x450
 3353 0a03 05       		.uleb128 0x5
 3354 0a04 03       		.byte	0x3
 3355 0a05 00000000 		.4byte	TestDevice
 3356 0a09 22       		.uleb128 0x22
 3357 0a0a AE000000 		.4byte	.LASF232
 3358 0a0e 01       		.byte	0x1
 3359 0a0f 37       		.byte	0x37
 3360 0a10 50040000 		.4byte	0x450
 3361 0a14 05       		.uleb128 0x5
 3362 0a15 03       		.byte	0x3
ARM GAS  C:\Users\ADMINI~1\AppData\Local\Temp\ccm0G0A3.s 			page 79


 3363 0a16 00000000 		.4byte	Device1
 3364 0a1a 22       		.uleb128 0x22
 3365 0a1b 7B100000 		.4byte	.LASF233
 3366 0a1f 01       		.byte	0x1
 3367 0a20 3E       		.byte	0x3e
 3368 0a21 50040000 		.4byte	0x450
 3369 0a25 05       		.uleb128 0x5
 3370 0a26 03       		.byte	0x3
 3371 0a27 00000000 		.4byte	Device2
 3372 0a2b 22       		.uleb128 0x22
 3373 0a2c D5000000 		.4byte	.LASF234
 3374 0a30 01       		.byte	0x1
 3375 0a31 45       		.byte	0x45
 3376 0a32 50040000 		.4byte	0x450
 3377 0a36 05       		.uleb128 0x5
 3378 0a37 03       		.byte	0x3
 3379 0a38 00000000 		.4byte	Device3
 3380 0a3c 22       		.uleb128 0x22
 3381 0a3d DD000000 		.4byte	.LASF235
 3382 0a41 01       		.byte	0x1
 3383 0a42 4C       		.byte	0x4c
 3384 0a43 50040000 		.4byte	0x450
 3385 0a47 05       		.uleb128 0x5
 3386 0a48 03       		.byte	0x3
 3387 0a49 00000000 		.4byte	Device4
 3388 0a4d 22       		.uleb128 0x22
 3389 0a4e E5000000 		.4byte	.LASF236
 3390 0a52 01       		.byte	0x1
 3391 0a53 53       		.byte	0x53
 3392 0a54 50040000 		.4byte	0x450
 3393 0a58 05       		.uleb128 0x5
 3394 0a59 03       		.byte	0x3
 3395 0a5a 00000000 		.4byte	Device5
 3396 0a5e 22       		.uleb128 0x22
 3397 0a5f B10E0000 		.4byte	.LASF237
 3398 0a63 01       		.byte	0x1
 3399 0a64 59       		.byte	0x59
 3400 0a65 E1050000 		.4byte	0x5e1
 3401 0a69 05       		.uleb128 0x5
 3402 0a6a 03       		.byte	0x3
 3403 0a6b 00000000 		.4byte	WriteCmd
 3404 0a6f 22       		.uleb128 0x22
 3405 0a70 6C030000 		.4byte	.LASF238
 3406 0a74 01       		.byte	0x1
 3407 0a75 62       		.byte	0x62
 3408 0a76 81000000 		.4byte	0x81
 3409 0a7a 05       		.uleb128 0x5
 3410 0a7b 03       		.byte	0x3
 3411 0a7c 00000000 		.4byte	THROUGH_STAUS
 3412 0a80 0E       		.uleb128 0xe
 3413 0a81 F6000000 		.4byte	0xf6
 3414 0a85 900A0000 		.4byte	0xa90
 3415 0a89 0F       		.uleb128 0xf
 3416 0a8a ED000000 		.4byte	0xed
 3417 0a8e 03       		.byte	0x3
 3418 0a8f 00       		.byte	0
 3419 0a90 22       		.uleb128 0x22
ARM GAS  C:\Users\ADMINI~1\AppData\Local\Temp\ccm0G0A3.s 			page 80


 3420 0a91 BE0A0000 		.4byte	.LASF239
 3421 0a95 01       		.byte	0x1
 3422 0a96 63       		.byte	0x63
 3423 0a97 800A0000 		.4byte	0xa80
 3424 0a9b 05       		.uleb128 0x5
 3425 0a9c 03       		.byte	0x3
 3426 0a9d 00000000 		.4byte	CommandList
 3427 0aa1 22       		.uleb128 0x22
 3428 0aa2 CA0A0000 		.4byte	.LASF240
 3429 0aa6 01       		.byte	0x1
 3430 0aa7 65       		.byte	0x65
 3431 0aa8 81000000 		.4byte	0x81
 3432 0aac 05       		.uleb128 0x5
 3433 0aad 03       		.byte	0x3
 3434 0aae 00000000 		.4byte	CommandListLen
 3435 0ab2 0E       		.uleb128 0xe
 3436 0ab3 81000000 		.4byte	0x81
 3437 0ab7 C20A0000 		.4byte	0xac2
 3438 0abb 0F       		.uleb128 0xf
 3439 0abc ED000000 		.4byte	0xed
 3440 0ac0 16       		.byte	0x16
 3441 0ac1 00       		.byte	0
 3442 0ac2 22       		.uleb128 0x22
 3443 0ac3 9E090000 		.4byte	.LASF241
 3444 0ac7 01       		.byte	0x1
 3445 0ac8 66       		.byte	0x66
 3446 0ac9 B20A0000 		.4byte	0xab2
 3447 0acd 05       		.uleb128 0x5
 3448 0ace 03       		.byte	0x3
 3449 0acf 00000000 		.4byte	Buffer
 3450 0ad3 22       		.uleb128 0x22
 3451 0ad4 57100000 		.4byte	.LASF242
 3452 0ad8 01       		.byte	0x1
 3453 0ad9 67       		.byte	0x67
 3454 0ada 81000000 		.4byte	0x81
 3455 0ade 05       		.uleb128 0x5
 3456 0adf 03       		.byte	0x3
 3457 0ae0 00000000 		.4byte	RX_ISOVER
 3458 0ae4 22       		.uleb128 0x22
 3459 0ae5 1D030000 		.4byte	.LASF243
 3460 0ae9 01       		.byte	0x1
 3461 0aea 68       		.byte	0x68
 3462 0aeb 81000000 		.4byte	0x81
 3463 0aef 05       		.uleb128 0x5
 3464 0af0 03       		.byte	0x3
 3465 0af1 00000000 		.4byte	LOWPOWER
 3466 0af5 22       		.uleb128 0x22
 3467 0af6 DA130000 		.4byte	.LASF244
 3468 0afa 01       		.byte	0x1
 3469 0afb 69       		.byte	0x69
 3470 0afc 81000000 		.4byte	0x81
 3471 0b00 05       		.uleb128 0x5
 3472 0b01 03       		.byte	0x3
 3473 0b02 00000000 		.4byte	ALL_ON_OFF
 3474 0b06 22       		.uleb128 0x22
 3475 0b07 83000000 		.4byte	.LASF245
 3476 0b0b 01       		.byte	0x1
ARM GAS  C:\Users\ADMINI~1\AppData\Local\Temp\ccm0G0A3.s 			page 81


 3477 0b0c 6A       		.byte	0x6a
 3478 0b0d 81000000 		.4byte	0x81
 3479 0b11 05       		.uleb128 0x5
 3480 0b12 03       		.byte	0x3
 3481 0b13 00000000 		.4byte	ButtonStatus
 3482 0b17 22       		.uleb128 0x22
 3483 0b18 08010000 		.4byte	.LASF246
 3484 0b1c 01       		.byte	0x1
 3485 0b1d 6B       		.byte	0x6b
 3486 0b1e 81000000 		.4byte	0x81
 3487 0b22 05       		.uleb128 0x5
 3488 0b23 03       		.byte	0x3
 3489 0b24 00000000 		.4byte	DisonnectedStaus
 3490 0b28 22       		.uleb128 0x22
 3491 0b29 34050000 		.4byte	.LASF247
 3492 0b2d 01       		.byte	0x1
 3493 0b2e 6D       		.byte	0x6d
 3494 0b2f 81000000 		.4byte	0x81
 3495 0b33 05       		.uleb128 0x5
 3496 0b34 03       		.byte	0x3
 3497 0b35 00000000 		.4byte	ButtonType
 3498 0b39 22       		.uleb128 0x22
 3499 0b3a CC0D0000 		.4byte	.LASF248
 3500 0b3e 01       		.byte	0x1
 3501 0b3f 6E       		.byte	0x6e
 3502 0b40 D0060000 		.4byte	0x6d0
 3503 0b44 05       		.uleb128 0x5
 3504 0b45 03       		.byte	0x3
 3505 0b46 00000000 		.4byte	Button
 3506 0b4a 00       		.byte	0
 3507              		.section	.debug_abbrev,"",%progbits
 3508              	.Ldebug_abbrev0:
 3509 0000 01       		.uleb128 0x1
 3510 0001 11       		.uleb128 0x11
 3511 0002 01       		.byte	0x1
 3512 0003 25       		.uleb128 0x25
 3513 0004 0E       		.uleb128 0xe
 3514 0005 13       		.uleb128 0x13
 3515 0006 0B       		.uleb128 0xb
 3516 0007 03       		.uleb128 0x3
 3517 0008 0E       		.uleb128 0xe
 3518 0009 1B       		.uleb128 0x1b
 3519 000a 0E       		.uleb128 0xe
 3520 000b 55       		.uleb128 0x55
 3521 000c 17       		.uleb128 0x17
 3522 000d 11       		.uleb128 0x11
 3523 000e 01       		.uleb128 0x1
 3524 000f 10       		.uleb128 0x10
 3525 0010 17       		.uleb128 0x17
 3526 0011 00       		.byte	0
 3527 0012 00       		.byte	0
 3528 0013 02       		.uleb128 0x2
 3529 0014 24       		.uleb128 0x24
 3530 0015 00       		.byte	0
 3531 0016 0B       		.uleb128 0xb
 3532 0017 0B       		.uleb128 0xb
 3533 0018 3E       		.uleb128 0x3e
ARM GAS  C:\Users\ADMINI~1\AppData\Local\Temp\ccm0G0A3.s 			page 82


 3534 0019 0B       		.uleb128 0xb
 3535 001a 03       		.uleb128 0x3
 3536 001b 0E       		.uleb128 0xe
 3537 001c 00       		.byte	0
 3538 001d 00       		.byte	0
 3539 001e 03       		.uleb128 0x3
 3540 001f 16       		.uleb128 0x16
 3541 0020 00       		.byte	0
 3542 0021 03       		.uleb128 0x3
 3543 0022 0E       		.uleb128 0xe
 3544 0023 3A       		.uleb128 0x3a
 3545 0024 0B       		.uleb128 0xb
 3546 0025 3B       		.uleb128 0x3b
 3547 0026 0B       		.uleb128 0xb
 3548 0027 49       		.uleb128 0x49
 3549 0028 13       		.uleb128 0x13
 3550 0029 00       		.byte	0
 3551 002a 00       		.byte	0
 3552 002b 04       		.uleb128 0x4
 3553 002c 24       		.uleb128 0x24
 3554 002d 00       		.byte	0
 3555 002e 0B       		.uleb128 0xb
 3556 002f 0B       		.uleb128 0xb
 3557 0030 3E       		.uleb128 0x3e
 3558 0031 0B       		.uleb128 0xb
 3559 0032 03       		.uleb128 0x3
 3560 0033 08       		.uleb128 0x8
 3561 0034 00       		.byte	0
 3562 0035 00       		.byte	0
 3563 0036 05       		.uleb128 0x5
 3564 0037 16       		.uleb128 0x16
 3565 0038 00       		.byte	0
 3566 0039 03       		.uleb128 0x3
 3567 003a 0E       		.uleb128 0xe
 3568 003b 3A       		.uleb128 0x3a
 3569 003c 0B       		.uleb128 0xb
 3570 003d 3B       		.uleb128 0x3b
 3571 003e 05       		.uleb128 0x5
 3572 003f 49       		.uleb128 0x49
 3573 0040 13       		.uleb128 0x13
 3574 0041 00       		.byte	0
 3575 0042 00       		.byte	0
 3576 0043 06       		.uleb128 0x6
 3577 0044 35       		.uleb128 0x35
 3578 0045 00       		.byte	0
 3579 0046 49       		.uleb128 0x49
 3580 0047 13       		.uleb128 0x13
 3581 0048 00       		.byte	0
 3582 0049 00       		.byte	0
 3583 004a 07       		.uleb128 0x7
 3584 004b 0F       		.uleb128 0xf
 3585 004c 00       		.byte	0
 3586 004d 0B       		.uleb128 0xb
 3587 004e 0B       		.uleb128 0xb
 3588 004f 00       		.byte	0
 3589 0050 00       		.byte	0
 3590 0051 08       		.uleb128 0x8
ARM GAS  C:\Users\ADMINI~1\AppData\Local\Temp\ccm0G0A3.s 			page 83


 3591 0052 0F       		.uleb128 0xf
 3592 0053 00       		.byte	0
 3593 0054 0B       		.uleb128 0xb
 3594 0055 0B       		.uleb128 0xb
 3595 0056 49       		.uleb128 0x49
 3596 0057 13       		.uleb128 0x13
 3597 0058 00       		.byte	0
 3598 0059 00       		.byte	0
 3599 005a 09       		.uleb128 0x9
 3600 005b 26       		.uleb128 0x26
 3601 005c 00       		.byte	0
 3602 005d 49       		.uleb128 0x49
 3603 005e 13       		.uleb128 0x13
 3604 005f 00       		.byte	0
 3605 0060 00       		.byte	0
 3606 0061 0A       		.uleb128 0xa
 3607 0062 04       		.uleb128 0x4
 3608 0063 01       		.byte	0x1
 3609 0064 0B       		.uleb128 0xb
 3610 0065 0B       		.uleb128 0xb
 3611 0066 3A       		.uleb128 0x3a
 3612 0067 0B       		.uleb128 0xb
 3613 0068 3B       		.uleb128 0x3b
 3614 0069 05       		.uleb128 0x5
 3615 006a 01       		.uleb128 0x1
 3616 006b 13       		.uleb128 0x13
 3617 006c 00       		.byte	0
 3618 006d 00       		.byte	0
 3619 006e 0B       		.uleb128 0xb
 3620 006f 28       		.uleb128 0x28
 3621 0070 00       		.byte	0
 3622 0071 03       		.uleb128 0x3
 3623 0072 0E       		.uleb128 0xe
 3624 0073 1C       		.uleb128 0x1c
 3625 0074 0D       		.uleb128 0xd
 3626 0075 00       		.byte	0
 3627 0076 00       		.byte	0
 3628 0077 0C       		.uleb128 0xc
 3629 0078 13       		.uleb128 0x13
 3630 0079 01       		.byte	0x1
 3631 007a 0B       		.uleb128 0xb
 3632 007b 0B       		.uleb128 0xb
 3633 007c 3A       		.uleb128 0x3a
 3634 007d 0B       		.uleb128 0xb
 3635 007e 3B       		.uleb128 0x3b
 3636 007f 05       		.uleb128 0x5
 3637 0080 01       		.uleb128 0x1
 3638 0081 13       		.uleb128 0x13
 3639 0082 00       		.byte	0
 3640 0083 00       		.byte	0
 3641 0084 0D       		.uleb128 0xd
 3642 0085 0D       		.uleb128 0xd
 3643 0086 00       		.byte	0
 3644 0087 03       		.uleb128 0x3
 3645 0088 0E       		.uleb128 0xe
 3646 0089 3A       		.uleb128 0x3a
 3647 008a 0B       		.uleb128 0xb
ARM GAS  C:\Users\ADMINI~1\AppData\Local\Temp\ccm0G0A3.s 			page 84


 3648 008b 3B       		.uleb128 0x3b
 3649 008c 05       		.uleb128 0x5
 3650 008d 49       		.uleb128 0x49
 3651 008e 13       		.uleb128 0x13
 3652 008f 38       		.uleb128 0x38
 3653 0090 0B       		.uleb128 0xb
 3654 0091 00       		.byte	0
 3655 0092 00       		.byte	0
 3656 0093 0E       		.uleb128 0xe
 3657 0094 01       		.uleb128 0x1
 3658 0095 01       		.byte	0x1
 3659 0096 49       		.uleb128 0x49
 3660 0097 13       		.uleb128 0x13
 3661 0098 01       		.uleb128 0x1
 3662 0099 13       		.uleb128 0x13
 3663 009a 00       		.byte	0
 3664 009b 00       		.byte	0
 3665 009c 0F       		.uleb128 0xf
 3666 009d 21       		.uleb128 0x21
 3667 009e 00       		.byte	0
 3668 009f 49       		.uleb128 0x49
 3669 00a0 13       		.uleb128 0x13
 3670 00a1 2F       		.uleb128 0x2f
 3671 00a2 0B       		.uleb128 0xb
 3672 00a3 00       		.byte	0
 3673 00a4 00       		.byte	0
 3674 00a5 10       		.uleb128 0x10
 3675 00a6 04       		.uleb128 0x4
 3676 00a7 01       		.byte	0x1
 3677 00a8 0B       		.uleb128 0xb
 3678 00a9 0B       		.uleb128 0xb
 3679 00aa 3A       		.uleb128 0x3a
 3680 00ab 0B       		.uleb128 0xb
 3681 00ac 3B       		.uleb128 0x3b
 3682 00ad 0B       		.uleb128 0xb
 3683 00ae 01       		.uleb128 0x1
 3684 00af 13       		.uleb128 0x13
 3685 00b0 00       		.byte	0
 3686 00b1 00       		.byte	0
 3687 00b2 11       		.uleb128 0x11
 3688 00b3 0D       		.uleb128 0xd
 3689 00b4 00       		.byte	0
 3690 00b5 03       		.uleb128 0x3
 3691 00b6 08       		.uleb128 0x8
 3692 00b7 3A       		.uleb128 0x3a
 3693 00b8 0B       		.uleb128 0xb
 3694 00b9 3B       		.uleb128 0x3b
 3695 00ba 05       		.uleb128 0x5
 3696 00bb 49       		.uleb128 0x49
 3697 00bc 13       		.uleb128 0x13
 3698 00bd 38       		.uleb128 0x38
 3699 00be 0B       		.uleb128 0xb
 3700 00bf 00       		.byte	0
 3701 00c0 00       		.byte	0
 3702 00c1 12       		.uleb128 0x12
 3703 00c2 13       		.uleb128 0x13
 3704 00c3 01       		.byte	0x1
ARM GAS  C:\Users\ADMINI~1\AppData\Local\Temp\ccm0G0A3.s 			page 85


 3705 00c4 0B       		.uleb128 0xb
 3706 00c5 0B       		.uleb128 0xb
 3707 00c6 3A       		.uleb128 0x3a
 3708 00c7 0B       		.uleb128 0xb
 3709 00c8 3B       		.uleb128 0x3b
 3710 00c9 0B       		.uleb128 0xb
 3711 00ca 01       		.uleb128 0x1
 3712 00cb 13       		.uleb128 0x13
 3713 00cc 00       		.byte	0
 3714 00cd 00       		.byte	0
 3715 00ce 13       		.uleb128 0x13
 3716 00cf 0D       		.uleb128 0xd
 3717 00d0 00       		.byte	0
 3718 00d1 03       		.uleb128 0x3
 3719 00d2 0E       		.uleb128 0xe
 3720 00d3 3A       		.uleb128 0x3a
 3721 00d4 0B       		.uleb128 0xb
 3722 00d5 3B       		.uleb128 0x3b
 3723 00d6 0B       		.uleb128 0xb
 3724 00d7 49       		.uleb128 0x49
 3725 00d8 13       		.uleb128 0x13
 3726 00d9 38       		.uleb128 0x38
 3727 00da 0B       		.uleb128 0xb
 3728 00db 00       		.byte	0
 3729 00dc 00       		.byte	0
 3730 00dd 14       		.uleb128 0x14
 3731 00de 28       		.uleb128 0x28
 3732 00df 00       		.byte	0
 3733 00e0 03       		.uleb128 0x3
 3734 00e1 08       		.uleb128 0x8
 3735 00e2 1C       		.uleb128 0x1c
 3736 00e3 0D       		.uleb128 0xd
 3737 00e4 00       		.byte	0
 3738 00e5 00       		.byte	0
 3739 00e6 15       		.uleb128 0x15
 3740 00e7 13       		.uleb128 0x13
 3741 00e8 01       		.byte	0x1
 3742 00e9 03       		.uleb128 0x3
 3743 00ea 08       		.uleb128 0x8
 3744 00eb 0B       		.uleb128 0xb
 3745 00ec 0B       		.uleb128 0xb
 3746 00ed 3A       		.uleb128 0x3a
 3747 00ee 0B       		.uleb128 0xb
 3748 00ef 3B       		.uleb128 0x3b
 3749 00f0 0B       		.uleb128 0xb
 3750 00f1 01       		.uleb128 0x1
 3751 00f2 13       		.uleb128 0x13
 3752 00f3 00       		.byte	0
 3753 00f4 00       		.byte	0
 3754 00f5 16       		.uleb128 0x16
 3755 00f6 2E       		.uleb128 0x2e
 3756 00f7 01       		.byte	0x1
 3757 00f8 3F       		.uleb128 0x3f
 3758 00f9 19       		.uleb128 0x19
 3759 00fa 03       		.uleb128 0x3
 3760 00fb 0E       		.uleb128 0xe
 3761 00fc 3A       		.uleb128 0x3a
ARM GAS  C:\Users\ADMINI~1\AppData\Local\Temp\ccm0G0A3.s 			page 86


 3762 00fd 0B       		.uleb128 0xb
 3763 00fe 3B       		.uleb128 0x3b
 3764 00ff 0B       		.uleb128 0xb
 3765 0100 27       		.uleb128 0x27
 3766 0101 19       		.uleb128 0x19
 3767 0102 11       		.uleb128 0x11
 3768 0103 01       		.uleb128 0x1
 3769 0104 12       		.uleb128 0x12
 3770 0105 06       		.uleb128 0x6
 3771 0106 40       		.uleb128 0x40
 3772 0107 18       		.uleb128 0x18
 3773 0108 9642     		.uleb128 0x2116
 3774 010a 19       		.uleb128 0x19
 3775 010b 01       		.uleb128 0x1
 3776 010c 13       		.uleb128 0x13
 3777 010d 00       		.byte	0
 3778 010e 00       		.byte	0
 3779 010f 17       		.uleb128 0x17
 3780 0110 05       		.uleb128 0x5
 3781 0111 00       		.byte	0
 3782 0112 03       		.uleb128 0x3
 3783 0113 0E       		.uleb128 0xe
 3784 0114 3A       		.uleb128 0x3a
 3785 0115 0B       		.uleb128 0xb
 3786 0116 3B       		.uleb128 0x3b
 3787 0117 0B       		.uleb128 0xb
 3788 0118 49       		.uleb128 0x49
 3789 0119 13       		.uleb128 0x13
 3790 011a 02       		.uleb128 0x2
 3791 011b 18       		.uleb128 0x18
 3792 011c 00       		.byte	0
 3793 011d 00       		.byte	0
 3794 011e 18       		.uleb128 0x18
 3795 011f 34       		.uleb128 0x34
 3796 0120 00       		.byte	0
 3797 0121 03       		.uleb128 0x3
 3798 0122 0E       		.uleb128 0xe
 3799 0123 3A       		.uleb128 0x3a
 3800 0124 0B       		.uleb128 0xb
 3801 0125 3B       		.uleb128 0x3b
 3802 0126 0B       		.uleb128 0xb
 3803 0127 49       		.uleb128 0x49
 3804 0128 13       		.uleb128 0x13
 3805 0129 02       		.uleb128 0x2
 3806 012a 18       		.uleb128 0x18
 3807 012b 00       		.byte	0
 3808 012c 00       		.byte	0
 3809 012d 19       		.uleb128 0x19
 3810 012e 34       		.uleb128 0x34
 3811 012f 00       		.byte	0
 3812 0130 03       		.uleb128 0x3
 3813 0131 08       		.uleb128 0x8
 3814 0132 3A       		.uleb128 0x3a
 3815 0133 0B       		.uleb128 0xb
 3816 0134 3B       		.uleb128 0x3b
 3817 0135 0B       		.uleb128 0xb
 3818 0136 49       		.uleb128 0x49
ARM GAS  C:\Users\ADMINI~1\AppData\Local\Temp\ccm0G0A3.s 			page 87


 3819 0137 13       		.uleb128 0x13
 3820 0138 02       		.uleb128 0x2
 3821 0139 18       		.uleb128 0x18
 3822 013a 00       		.byte	0
 3823 013b 00       		.byte	0
 3824 013c 1A       		.uleb128 0x1a
 3825 013d 2E       		.uleb128 0x2e
 3826 013e 00       		.byte	0
 3827 013f 3F       		.uleb128 0x3f
 3828 0140 19       		.uleb128 0x19
 3829 0141 03       		.uleb128 0x3
 3830 0142 0E       		.uleb128 0xe
 3831 0143 3A       		.uleb128 0x3a
 3832 0144 0B       		.uleb128 0xb
 3833 0145 3B       		.uleb128 0x3b
 3834 0146 05       		.uleb128 0x5
 3835 0147 27       		.uleb128 0x27
 3836 0148 19       		.uleb128 0x19
 3837 0149 11       		.uleb128 0x11
 3838 014a 01       		.uleb128 0x1
 3839 014b 12       		.uleb128 0x12
 3840 014c 06       		.uleb128 0x6
 3841 014d 40       		.uleb128 0x40
 3842 014e 18       		.uleb128 0x18
 3843 014f 9742     		.uleb128 0x2117
 3844 0151 19       		.uleb128 0x19
 3845 0152 00       		.byte	0
 3846 0153 00       		.byte	0
 3847 0154 1B       		.uleb128 0x1b
 3848 0155 2E       		.uleb128 0x2e
 3849 0156 01       		.byte	0x1
 3850 0157 3F       		.uleb128 0x3f
 3851 0158 19       		.uleb128 0x19
 3852 0159 03       		.uleb128 0x3
 3853 015a 0E       		.uleb128 0xe
 3854 015b 3A       		.uleb128 0x3a
 3855 015c 0B       		.uleb128 0xb
 3856 015d 3B       		.uleb128 0x3b
 3857 015e 05       		.uleb128 0x5
 3858 015f 27       		.uleb128 0x27
 3859 0160 19       		.uleb128 0x19
 3860 0161 11       		.uleb128 0x11
 3861 0162 01       		.uleb128 0x1
 3862 0163 12       		.uleb128 0x12
 3863 0164 06       		.uleb128 0x6
 3864 0165 40       		.uleb128 0x40
 3865 0166 18       		.uleb128 0x18
 3866 0167 9742     		.uleb128 0x2117
 3867 0169 19       		.uleb128 0x19
 3868 016a 01       		.uleb128 0x1
 3869 016b 13       		.uleb128 0x13
 3870 016c 00       		.byte	0
 3871 016d 00       		.byte	0
 3872 016e 1C       		.uleb128 0x1c
 3873 016f 05       		.uleb128 0x5
 3874 0170 00       		.byte	0
 3875 0171 03       		.uleb128 0x3
ARM GAS  C:\Users\ADMINI~1\AppData\Local\Temp\ccm0G0A3.s 			page 88


 3876 0172 0E       		.uleb128 0xe
 3877 0173 3A       		.uleb128 0x3a
 3878 0174 0B       		.uleb128 0xb
 3879 0175 3B       		.uleb128 0x3b
 3880 0176 05       		.uleb128 0x5
 3881 0177 49       		.uleb128 0x49
 3882 0178 13       		.uleb128 0x13
 3883 0179 02       		.uleb128 0x2
 3884 017a 18       		.uleb128 0x18
 3885 017b 00       		.byte	0
 3886 017c 00       		.byte	0
 3887 017d 1D       		.uleb128 0x1d
 3888 017e 05       		.uleb128 0x5
 3889 017f 00       		.byte	0
 3890 0180 03       		.uleb128 0x3
 3891 0181 08       		.uleb128 0x8
 3892 0182 3A       		.uleb128 0x3a
 3893 0183 0B       		.uleb128 0xb
 3894 0184 3B       		.uleb128 0x3b
 3895 0185 05       		.uleb128 0x5
 3896 0186 49       		.uleb128 0x49
 3897 0187 13       		.uleb128 0x13
 3898 0188 02       		.uleb128 0x2
 3899 0189 18       		.uleb128 0x18
 3900 018a 00       		.byte	0
 3901 018b 00       		.byte	0
 3902 018c 1E       		.uleb128 0x1e
 3903 018d 2E       		.uleb128 0x2e
 3904 018e 01       		.byte	0x1
 3905 018f 3F       		.uleb128 0x3f
 3906 0190 19       		.uleb128 0x19
 3907 0191 03       		.uleb128 0x3
 3908 0192 0E       		.uleb128 0xe
 3909 0193 3A       		.uleb128 0x3a
 3910 0194 0B       		.uleb128 0xb
 3911 0195 3B       		.uleb128 0x3b
 3912 0196 05       		.uleb128 0x5
 3913 0197 27       		.uleb128 0x27
 3914 0198 19       		.uleb128 0x19
 3915 0199 11       		.uleb128 0x11
 3916 019a 01       		.uleb128 0x1
 3917 019b 12       		.uleb128 0x12
 3918 019c 06       		.uleb128 0x6
 3919 019d 40       		.uleb128 0x40
 3920 019e 18       		.uleb128 0x18
 3921 019f 9642     		.uleb128 0x2116
 3922 01a1 19       		.uleb128 0x19
 3923 01a2 01       		.uleb128 0x1
 3924 01a3 13       		.uleb128 0x13
 3925 01a4 00       		.byte	0
 3926 01a5 00       		.byte	0
 3927 01a6 1F       		.uleb128 0x1f
 3928 01a7 34       		.uleb128 0x34
 3929 01a8 00       		.byte	0
 3930 01a9 03       		.uleb128 0x3
 3931 01aa 0E       		.uleb128 0xe
 3932 01ab 3A       		.uleb128 0x3a
ARM GAS  C:\Users\ADMINI~1\AppData\Local\Temp\ccm0G0A3.s 			page 89


 3933 01ac 0B       		.uleb128 0xb
 3934 01ad 3B       		.uleb128 0x3b
 3935 01ae 05       		.uleb128 0x5
 3936 01af 49       		.uleb128 0x49
 3937 01b0 13       		.uleb128 0x13
 3938 01b1 02       		.uleb128 0x2
 3939 01b2 18       		.uleb128 0x18
 3940 01b3 00       		.byte	0
 3941 01b4 00       		.byte	0
 3942 01b5 20       		.uleb128 0x20
 3943 01b6 2E       		.uleb128 0x2e
 3944 01b7 00       		.byte	0
 3945 01b8 3F       		.uleb128 0x3f
 3946 01b9 19       		.uleb128 0x19
 3947 01ba 03       		.uleb128 0x3
 3948 01bb 0E       		.uleb128 0xe
 3949 01bc 3A       		.uleb128 0x3a
 3950 01bd 0B       		.uleb128 0xb
 3951 01be 3B       		.uleb128 0x3b
 3952 01bf 05       		.uleb128 0x5
 3953 01c0 27       		.uleb128 0x27
 3954 01c1 19       		.uleb128 0x19
 3955 01c2 11       		.uleb128 0x11
 3956 01c3 01       		.uleb128 0x1
 3957 01c4 12       		.uleb128 0x12
 3958 01c5 06       		.uleb128 0x6
 3959 01c6 40       		.uleb128 0x40
 3960 01c7 18       		.uleb128 0x18
 3961 01c8 9642     		.uleb128 0x2116
 3962 01ca 19       		.uleb128 0x19
 3963 01cb 00       		.byte	0
 3964 01cc 00       		.byte	0
 3965 01cd 21       		.uleb128 0x21
 3966 01ce 34       		.uleb128 0x34
 3967 01cf 00       		.byte	0
 3968 01d0 03       		.uleb128 0x3
 3969 01d1 0E       		.uleb128 0xe
 3970 01d2 3A       		.uleb128 0x3a
 3971 01d3 0B       		.uleb128 0xb
 3972 01d4 3B       		.uleb128 0x3b
 3973 01d5 05       		.uleb128 0x5
 3974 01d6 49       		.uleb128 0x49
 3975 01d7 13       		.uleb128 0x13
 3976 01d8 3F       		.uleb128 0x3f
 3977 01d9 19       		.uleb128 0x19
 3978 01da 3C       		.uleb128 0x3c
 3979 01db 19       		.uleb128 0x19
 3980 01dc 00       		.byte	0
 3981 01dd 00       		.byte	0
 3982 01de 22       		.uleb128 0x22
 3983 01df 34       		.uleb128 0x34
 3984 01e0 00       		.byte	0
 3985 01e1 03       		.uleb128 0x3
 3986 01e2 0E       		.uleb128 0xe
 3987 01e3 3A       		.uleb128 0x3a
 3988 01e4 0B       		.uleb128 0xb
 3989 01e5 3B       		.uleb128 0x3b
ARM GAS  C:\Users\ADMINI~1\AppData\Local\Temp\ccm0G0A3.s 			page 90


 3990 01e6 0B       		.uleb128 0xb
 3991 01e7 49       		.uleb128 0x49
 3992 01e8 13       		.uleb128 0x13
 3993 01e9 3F       		.uleb128 0x3f
 3994 01ea 19       		.uleb128 0x19
 3995 01eb 02       		.uleb128 0x2
 3996 01ec 18       		.uleb128 0x18
 3997 01ed 00       		.byte	0
 3998 01ee 00       		.byte	0
 3999 01ef 00       		.byte	0
 4000              		.section	.debug_aranges,"",%progbits
 4001 0000 8C000000 		.4byte	0x8c
 4002 0004 0200     		.2byte	0x2
 4003 0006 00000000 		.4byte	.Ldebug_info0
 4004 000a 04       		.byte	0x4
 4005 000b 00       		.byte	0
 4006 000c 0000     		.2byte	0
 4007 000e 0000     		.2byte	0
 4008 0010 00000000 		.4byte	.LFB37
 4009 0014 F8010000 		.4byte	.LFE37-.LFB37
 4010 0018 00000000 		.4byte	.LFB38
 4011 001c 08000000 		.4byte	.LFE38-.LFB38
 4012 0020 00000000 		.4byte	.LFB39
 4013 0024 08000000 		.4byte	.LFE39-.LFB39
 4014 0028 00000000 		.4byte	.LFB40
 4015 002c 08000000 		.4byte	.LFE40-.LFB40
 4016 0030 00000000 		.4byte	.LFB41
 4017 0034 1C000000 		.4byte	.LFE41-.LFB41
 4018 0038 00000000 		.4byte	.LFB42
 4019 003c 0E000000 		.4byte	.LFE42-.LFB42
 4020 0040 00000000 		.4byte	.LFB43
 4021 0044 30030000 		.4byte	.LFE43-.LFB43
 4022 0048 00000000 		.4byte	.LFB44
 4023 004c 24000000 		.4byte	.LFE44-.LFB44
 4024 0050 00000000 		.4byte	.LFB45
 4025 0054 C0000000 		.4byte	.LFE45-.LFB45
 4026 0058 00000000 		.4byte	.LFB46
 4027 005c 28000000 		.4byte	.LFE46-.LFB46
 4028 0060 00000000 		.4byte	.LFB47
 4029 0064 28000000 		.4byte	.LFE47-.LFB47
 4030 0068 00000000 		.4byte	.LFB48
 4031 006c 28000000 		.4byte	.LFE48-.LFB48
 4032 0070 00000000 		.4byte	.LFB49
 4033 0074 B8000000 		.4byte	.LFE49-.LFB49
 4034 0078 00000000 		.4byte	.LFB50
 4035 007c 74010000 		.4byte	.LFE50-.LFB50
 4036 0080 00000000 		.4byte	.LFB51
 4037 0084 80000000 		.4byte	.LFE51-.LFB51
 4038 0088 00000000 		.4byte	0
 4039 008c 00000000 		.4byte	0
 4040              		.section	.debug_ranges,"",%progbits
 4041              	.Ldebug_ranges0:
 4042 0000 00000000 		.4byte	.LFB37
 4043 0004 F8010000 		.4byte	.LFE37
 4044 0008 00000000 		.4byte	.LFB38
 4045 000c 08000000 		.4byte	.LFE38
 4046 0010 00000000 		.4byte	.LFB39
ARM GAS  C:\Users\ADMINI~1\AppData\Local\Temp\ccm0G0A3.s 			page 91


 4047 0014 08000000 		.4byte	.LFE39
 4048 0018 00000000 		.4byte	.LFB40
 4049 001c 08000000 		.4byte	.LFE40
 4050 0020 00000000 		.4byte	.LFB41
 4051 0024 1C000000 		.4byte	.LFE41
 4052 0028 00000000 		.4byte	.LFB42
 4053 002c 0E000000 		.4byte	.LFE42
 4054 0030 00000000 		.4byte	.LFB43
 4055 0034 30030000 		.4byte	.LFE43
 4056 0038 00000000 		.4byte	.LFB44
 4057 003c 24000000 		.4byte	.LFE44
 4058 0040 00000000 		.4byte	.LFB45
 4059 0044 C0000000 		.4byte	.LFE45
 4060 0048 00000000 		.4byte	.LFB46
 4061 004c 28000000 		.4byte	.LFE46
 4062 0050 00000000 		.4byte	.LFB47
 4063 0054 28000000 		.4byte	.LFE47
 4064 0058 00000000 		.4byte	.LFB48
 4065 005c 28000000 		.4byte	.LFE48
 4066 0060 00000000 		.4byte	.LFB49
 4067 0064 B8000000 		.4byte	.LFE49
 4068 0068 00000000 		.4byte	.LFB50
 4069 006c 74010000 		.4byte	.LFE50
 4070 0070 00000000 		.4byte	.LFB51
 4071 0074 80000000 		.4byte	.LFE51
 4072 0078 00000000 		.4byte	0
 4073 007c 00000000 		.4byte	0
 4074              		.section	.debug_line,"",%progbits
 4075              	.Ldebug_line0:
 4076 0000 43040000 		.section	.debug_str,"MS",%progbits,1
 4076      0200AA01 
 4076      00000201 
 4076      FB0E0D00 
 4076      01010101 
 4077              	.LASF229:
 4078 0000 5265436F 		.ascii	"ReConnect\000"
 4078      6E6E6563 
 4078      7400
 4079              	.LASF224:
 4080 000a 4E6F7469 		.ascii	"NotifyValue\000"
 4080      66795661 
 4080      6C756500 
 4081              	.LASF146:
 4082 0016 62644164 		.ascii	"bdAddrList\000"
 4082      64724C69 
 4082      737400
 4083              	.LASF143:
 4084 0021 4359424C 		.ascii	"CYBLE_GAPC_SCAN_RSP\000"
 4084      455F4741 
 4084      50435F53 
 4084      43414E5F 
 4084      52535000 
 4085              	.LASF21:
 4086 0035 73697A65 		.ascii	"sizetype\000"
 4086      74797065 
 4086      00
 4087              	.LASF212:
ARM GAS  C:\Users\ADMINI~1\AppData\Local\Temp\ccm0G0A3.s 			page 92


 4088 003e 4254315F 		.ascii	"BT1_IntHandler\000"
 4088      496E7448 
 4088      616E646C 
 4088      657200
 4089              	.LASF42:
 4090 004d 4359424C 		.ascii	"CYBLE_EVT_GAP_NUMERIC_COMPARISON_REQUEST\000"
 4090      455F4556 
 4090      545F4741 
 4090      505F4E55 
 4090      4D455249 
 4091              	.LASF175:
 4092 0076 42555454 		.ascii	"BUTTON4_DOWN\000"
 4092      4F4E345F 
 4092      444F574E 
 4092      00
 4093              	.LASF245:
 4094 0083 42757474 		.ascii	"ButtonStatus\000"
 4094      6F6E5374 
 4094      61747573 
 4094      00
 4095              	.LASF219:
 4096 0090 4C6F7750 		.ascii	"LowPowerManagement\000"
 4096      6F776572 
 4096      4D616E61 
 4096      67656D65 
 4096      6E7400
 4097              	.LASF195:
 4098 00a3 6576656E 		.ascii	"eventParam\000"
 4098      74506172 
 4098      616D00
 4099              	.LASF232:
 4100 00ae 44657669 		.ascii	"Device1\000"
 4100      63653100 
 4101              	.LASF36:
 4102 00b6 4359424C 		.ascii	"CYBLE_EVT_GAP_DEVICE_CONNECTED\000"
 4102      455F4556 
 4102      545F4741 
 4102      505F4445 
 4102      56494345 
 4103              	.LASF234:
 4104 00d5 44657669 		.ascii	"Device3\000"
 4104      63653300 
 4105              	.LASF235:
 4106 00dd 44657669 		.ascii	"Device4\000"
 4106      63653400 
 4107              	.LASF236:
 4108 00e5 44657669 		.ascii	"Device5\000"
 4108      63653500 
 4109              	.LASF50:
 4110 00ed 4359424C 		.ascii	"CYBLE_EVT_GATT_CONNECT_IND\000"
 4110      455F4556 
 4110      545F4741 
 4110      54545F43 
 4110      4F4E4E45 
 4111              	.LASF246:
 4112 0108 4469736F 		.ascii	"DisonnectedStaus\000"
 4112      6E6E6563 
ARM GAS  C:\Users\ADMINI~1\AppData\Local\Temp\ccm0G0A3.s 			page 93


 4112      74656453 
 4112      74617573 
 4112      00
 4113              	.LASF130:
 4114 0119 4359424C 		.ascii	"CYBLE_BLESS_STATE_ECO_ON\000"
 4114      455F424C 
 4114      4553535F 
 4114      53544154 
 4114      455F4543 
 4115              	.LASF15:
 4116 0132 75696E74 		.ascii	"uint32\000"
 4116      333200
 4117              	.LASF133:
 4118 0139 4359424C 		.ascii	"CYBLE_BLESS_STATE_HIBERNATE\000"
 4118      455F424C 
 4118      4553535F 
 4118      53544154 
 4118      455F4849 
 4119              	.LASF188:
 4120 0155 494E5641 		.ascii	"INVALID\000"
 4120      4C494400 
 4121              	.LASF104:
 4122 015d 4359424C 		.ascii	"CYBLE_ERROR_L2CAP_CONNECTION_ENTITY_NOT_FOUND\000"
 4122      455F4552 
 4122      524F525F 
 4122      4C324341 
 4122      505F434F 
 4123              	.LASF110:
 4124 018b 4359424C 		.ascii	"CYBLE_ERROR_MIC_AUTH_FAILED\000"
 4124      455F4552 
 4124      524F525F 
 4124      4D49435F 
 4124      41555448 
 4125              	.LASF70:
 4126 01a7 4359424C 		.ascii	"CYBLE_EVT_GATTS_DATA_SIGNED_CMD_REQ\000"
 4126      455F4556 
 4126      545F4741 
 4126      5454535F 
 4126      44415441 
 4127              	.LASF82:
 4128 01cb 4359424C 		.ascii	"CYBLE_EVT_L2CAP_CBFC_RX_CREDIT_IND\000"
 4128      455F4556 
 4128      545F4C32 
 4128      4341505F 
 4128      43424643 
 4129              	.LASF160:
 4130 01ee 4359424C 		.ascii	"CYBLE_GATT_VALUE_T\000"
 4130      455F4741 
 4130      54545F56 
 4130      414C5545 
 4130      5F5400
 4131              	.LASF137:
 4132 0201 74797065 		.ascii	"type\000"
 4132      00
 4133              	.LASF190:
 4134 0206 42757474 		.ascii	"Button2_On_Off\000"
 4134      6F6E325F 
ARM GAS  C:\Users\ADMINI~1\AppData\Local\Temp\ccm0G0A3.s 			page 94


 4134      4F6E5F4F 
 4134      666600
 4135              	.LASF67:
 4136 0215 4359424C 		.ascii	"CYBLE_EVT_GATTC_HANDLE_VALUE_NTF\000"
 4136      455F4556 
 4136      545F4741 
 4136      5454435F 
 4136      48414E44 
 4137              	.LASF30:
 4138 0236 4359424C 		.ascii	"CYBLE_EVT_GAP_AUTH_REQ\000"
 4138      455F4556 
 4138      545F4741 
 4138      505F4155 
 4138      54485F52 
 4139              	.LASF16:
 4140 024d 696E7438 		.ascii	"int8\000"
 4140      00
 4141              	.LASF158:
 4142 0252 4359424C 		.ascii	"CYBLE_CONN_HANDLE_T\000"
 4142      455F434F 
 4142      4E4E5F48 
 4142      414E444C 
 4142      455F5400 
 4143              	.LASF99:
 4144 0266 4359424C 		.ascii	"CYBLE_ERROR_BT_ON_NOT_COMPLETED\000"
 4144      455F4552 
 4144      524F525F 
 4144      42545F4F 
 4144      4E5F4E4F 
 4145              	.LASF44:
 4146 0286 4359424C 		.ascii	"CYBLE_EVT_GAP_OOB_GENERATED_NOTIFICATION\000"
 4146      455F4556 
 4146      545F4741 
 4146      505F4F4F 
 4146      425F4745 
 4147              	.LASF156:
 4148 02af 62644861 		.ascii	"bdHandle\000"
 4148      6E646C65 
 4148      00
 4149              	.LASF200:
 4150 02b8 44697363 		.ascii	"Discovery_mode_Init\000"
 4150      6F766572 
 4150      795F6D6F 
 4150      64655F49 
 4150      6E697400 
 4151              	.LASF228:
 4152 02cc 426F6E64 		.ascii	"BondNum\000"
 4152      4E756D00 
 4153              	.LASF3:
 4154 02d4 5F5F7569 		.ascii	"__uint8_t\000"
 4154      6E74385F 
 4154      7400
 4155              	.LASF199:
 4156 02de 4C696D69 		.ascii	"Limited_discovery_mode_Init\000"
 4156      7465645F 
 4156      64697363 
 4156      6F766572 
ARM GAS  C:\Users\ADMINI~1\AppData\Local\Temp\ccm0G0A3.s 			page 95


 4156      795F6D6F 
 4157              	.LASF142:
 4158 02fa 4359424C 		.ascii	"CYBLE_GAPC_NON_CONN_UNDIRECTED_ADV\000"
 4158      455F4741 
 4158      50435F4E 
 4158      4F4E5F43 
 4158      4F4E4E5F 
 4159              	.LASF243:
 4160 031d 4C4F5750 		.ascii	"LOWPOWER\000"
 4160      4F574552 
 4160      00
 4161              	.LASF63:
 4162 0326 4359424C 		.ascii	"CYBLE_EVT_GATTS_WRITE_CMD_REQ\000"
 4162      455F4556 
 4162      545F4741 
 4162      5454535F 
 4162      57524954 
 4163              	.LASF139:
 4164 0344 4359424C 		.ascii	"CYBLE_GAPC_CONN_UNDIRECTED_ADV\000"
 4164      455F4741 
 4164      50435F43 
 4164      4F4E4E5F 
 4164      554E4449 
 4165              	.LASF6:
 4166 0363 6C6F6E67 		.ascii	"long int\000"
 4166      20696E74 
 4166      00
 4167              	.LASF238:
 4168 036c 5448524F 		.ascii	"THROUGH_STAUS\000"
 4168      5547485F 
 4168      53544155 
 4168      5300
 4169              	.LASF151:
 4170 037a 64617461 		.ascii	"dataLen\000"
 4170      4C656E00 
 4171              	.LASF23:
 4172 0382 4359424C 		.ascii	"CYBLE_EVT_STACK_ON\000"
 4172      455F4556 
 4172      545F5354 
 4172      41434B5F 
 4172      4F4E00
 4173              	.LASF106:
 4174 0395 4359424C 		.ascii	"CYBLE_ERROR_L2CAP_PSM_NOT_IN_RANGE\000"
 4174      455F4552 
 4174      524F525F 
 4174      4C324341 
 4174      505F5053 
 4175              	.LASF129:
 4176 03b8 4359424C 		.ascii	"CYBLE_BLESS_STATE_SLEEP\000"
 4176      455F424C 
 4176      4553535F 
 4176      53544154 
 4176      455F534C 
 4177              	.LASF197:
 4178 03d0 5363616E 		.ascii	"ScanResult\000"
 4178      52657375 
 4178      6C7400
ARM GAS  C:\Users\ADMINI~1\AppData\Local\Temp\ccm0G0A3.s 			page 96


 4179              	.LASF118:
 4180 03db 4359424C 		.ascii	"CYBLE_ERROR_CHAR_IS_NOT_DISCOVERED\000"
 4180      455F4552 
 4180      524F525F 
 4180      43484152 
 4180      5F49535F 
 4181              	.LASF128:
 4182 03fe 4359424C 		.ascii	"CYBLE_BLESS_STATE_EVENT_CLOSE\000"
 4182      455F424C 
 4182      4553535F 
 4182      53544154 
 4182      455F4556 
 4183              	.LASF226:
 4184 041c 44657669 		.ascii	"DeviceCounts\000"
 4184      6365436F 
 4184      756E7473 
 4184      00
 4185              	.LASF163:
 4186 0429 4359424C 		.ascii	"CYBLE_GATT_HANDLE_VALUE_PAIR_T\000"
 4186      455F4741 
 4186      54545F48 
 4186      414E444C 
 4186      455F5641 
 4187              	.LASF225:
 4188 0448 57616B65 		.ascii	"WakeUp\000"
 4188      557000
 4189              	.LASF76:
 4190 044f 4359424C 		.ascii	"CYBLE_EVT_L2CAP_COMMAND_REJ\000"
 4190      455F4556 
 4190      545F4C32 
 4190      4341505F 
 4190      434F4D4D 
 4191              	.LASF107:
 4192 046b 4359424C 		.ascii	"CYBLE_ERROR_GATT_DB_INVALID_ATTR_HANDLE\000"
 4192      455F4552 
 4192      524F525F 
 4192      47415454 
 4192      5F44425F 
 4193              	.LASF0:
 4194 0493 7369676E 		.ascii	"signed char\000"
 4194      65642063 
 4194      68617200 
 4195              	.LASF11:
 4196 049f 75696E74 		.ascii	"uint8_t\000"
 4196      385F7400 
 4197              	.LASF25:
 4198 04a7 4359424C 		.ascii	"CYBLE_EVT_HARDWARE_ERROR\000"
 4198      455F4556 
 4198      545F4841 
 4198      52445741 
 4198      52455F45 
 4199              	.LASF88:
 4200 04c0 4359424C 		.ascii	"CYBLE_ERROR_OK\000"
 4200      455F4552 
 4200      524F525F 
 4200      4F4B00
 4201              	.LASF150:
ARM GAS  C:\Users\ADMINI~1\AppData\Local\Temp\ccm0G0A3.s 			page 97


 4202 04cf 70656572 		.ascii	"peerBdAddr\000"
 4202      42644164 
 4202      647200
 4203              	.LASF54:
 4204 04da 4359424C 		.ascii	"CYBLE_EVT_GATTC_READ_BY_GROUP_TYPE_RSP\000"
 4204      455F4556 
 4204      545F4741 
 4204      5454435F 
 4204      52454144 
 4205              	.LASF1:
 4206 0501 756E7369 		.ascii	"unsigned char\000"
 4206      676E6564 
 4206      20636861 
 4206      7200
 4207              	.LASF53:
 4208 050f 4359424C 		.ascii	"CYBLE_EVT_GATTC_XCHNG_MTU_RSP\000"
 4208      455F4556 
 4208      545F4741 
 4208      5454435F 
 4208      5843484E 
 4209              	.LASF213:
 4210 052d 496E7450 		.ascii	"IntPin\000"
 4210      696E00
 4211              	.LASF247:
 4212 0534 42757474 		.ascii	"ButtonType\000"
 4212      6F6E5479 
 4212      706500
 4213              	.LASF122:
 4214 053f 4359424C 		.ascii	"CYBLE_BLESS_SLEEP\000"
 4214      455F424C 
 4214      4553535F 
 4214      534C4545 
 4214      5000
 4215              	.LASF192:
 4216 0551 42757474 		.ascii	"Button4_On_Off\000"
 4216      6F6E345F 
 4216      4F6E5F4F 
 4216      666600
 4217              	.LASF48:
 4218 0560 4359424C 		.ascii	"CYBLE_EVT_GAP_SMP_NEGOTIATED_AUTH_INFO\000"
 4218      455F4556 
 4218      545F4741 
 4218      505F534D 
 4218      505F4E45 
 4219              	.LASF83:
 4220 0587 4359424C 		.ascii	"CYBLE_EVT_L2CAP_CBFC_TX_CREDIT_IND\000"
 4220      455F4556 
 4220      545F4C32 
 4220      4341505F 
 4220      43424643 
 4221              	.LASF149:
 4222 05aa 70656572 		.ascii	"peerAddrType\000"
 4222      41646472 
 4222      54797065 
 4222      00
 4223              	.LASF127:
 4224 05b7 4359424C 		.ascii	"CYBLE_BLESS_STATE_ACTIVE\000"
ARM GAS  C:\Users\ADMINI~1\AppData\Local\Temp\ccm0G0A3.s 			page 98


 4224      455F424C 
 4224      4553535F 
 4224      53544154 
 4224      455F4143 
 4225              	.LASF80:
 4226 05d0 4359424C 		.ascii	"CYBLE_EVT_L2CAP_CBFC_DISCONN_CNF\000"
 4226      455F4556 
 4226      545F4C32 
 4226      4341505F 
 4226      43424643 
 4227              	.LASF57:
 4228 05f1 4359424C 		.ascii	"CYBLE_EVT_GATTC_FIND_BY_TYPE_VALUE_RSP\000"
 4228      455F4556 
 4228      545F4741 
 4228      5454435F 
 4228      46494E44 
 4229              	.LASF126:
 4230 0618 4359424C 		.ascii	"CYBLE_LP_MODE_T\000"
 4230      455F4C50 
 4230      5F4D4F44 
 4230      455F5400 
 4231              	.LASF45:
 4232 0628 4359424C 		.ascii	"CYBLE_EVT_GAP_DATA_LENGTH_CHANGE\000"
 4232      455F4556 
 4232      545F4741 
 4232      505F4441 
 4232      54415F4C 
 4233              	.LASF19:
 4234 0649 63686172 		.ascii	"char\000"
 4234      00
 4235              	.LASF60:
 4236 064e 4359424C 		.ascii	"CYBLE_EVT_GATTC_READ_MULTI_RSP\000"
 4236      455F4556 
 4236      545F4741 
 4236      5454435F 
 4236      52454144 
 4237              	.LASF22:
 4238 066d 4359424C 		.ascii	"CYBLE_EVT_HOST_INVALID\000"
 4238      455F4556 
 4238      545F484F 
 4238      53545F49 
 4238      4E56414C 
 4239              	.LASF47:
 4240 0684 4359424C 		.ascii	"CYBLE_EVT_GAPC_DIRECT_ADV_REPORT\000"
 4240      455F4556 
 4240      545F4741 
 4240      50435F44 
 4240      49524543 
 4241              	.LASF4:
 4242 06a5 5F5F7569 		.ascii	"__uint16_t\000"
 4242      6E743136 
 4242      5F7400
 4243              	.LASF95:
 4244 06b0 4359424C 		.ascii	"CYBLE_ERROR_NO_DEVICE_ENTITY\000"
 4244      455F4552 
 4244      524F525F 
 4244      4E4F5F44 
ARM GAS  C:\Users\ADMINI~1\AppData\Local\Temp\ccm0G0A3.s 			page 99


 4244      45564943 
 4245              	.LASF59:
 4246 06cd 4359424C 		.ascii	"CYBLE_EVT_GATTC_READ_BLOB_RSP\000"
 4246      455F4556 
 4246      545F4741 
 4246      5454435F 
 4246      52454144 
 4247              	.LASF251:
 4248 06eb 433A5C55 		.ascii	"C:\\Users\\Administrator\\Desktop\\BLE_TemplateProj"
 4248      73657273 
 4248      5C41646D 
 4248      696E6973 
 4248      74726174 
 4249 071a 6563745C 		.ascii	"ect\\Bluetooth-intelligent-switchV2.0.0\\Smart Swit"
 4249      426C7565 
 4249      746F6F74 
 4249      682D696E 
 4249      74656C6C 
 4250 074b 63682E63 		.ascii	"ch.cydsn\000"
 4250      7964736E 
 4250      00
 4251              	.LASF66:
 4252 0754 4359424C 		.ascii	"CYBLE_EVT_GATTC_EXEC_WRITE_RSP\000"
 4252      455F4556 
 4252      545F4741 
 4252      5454435F 
 4252      45584543 
 4253              	.LASF167:
 4254 0773 4359424C 		.ascii	"CYBLE_GATTC_HANDLE_VALUE_NTF_PARAM_T\000"
 4254      455F4741 
 4254      5454435F 
 4254      48414E44 
 4254      4C455F56 
 4255              	.LASF202:
 4256 0798 53657276 		.ascii	"ServiceToClient\000"
 4256      69636554 
 4256      6F436C69 
 4256      656E7400 
 4257              	.LASF71:
 4258 07a8 4359424C 		.ascii	"CYBLE_EVT_GATTC_STOP_CMD_COMPLETE\000"
 4258      455F4556 
 4258      545F4741 
 4258      5454435F 
 4258      53544F50 
 4259              	.LASF216:
 4260 07ca 4254345F 		.ascii	"BT4_IntHandler\000"
 4260      496E7448 
 4260      616E646C 
 4260      657200
 4261              	.LASF114:
 4262 07d9 4359424C 		.ascii	"CYBLE_ERROR_CONTROLLER_BUSY\000"
 4262      455F4552 
 4262      524F525F 
 4262      434F4E54 
 4262      524F4C4C 
 4263              	.LASF89:
 4264 07f5 4359424C 		.ascii	"CYBLE_ERROR_INVALID_PARAMETER\000"
ARM GAS  C:\Users\ADMINI~1\AppData\Local\Temp\ccm0G0A3.s 			page 100


 4264      455F4552 
 4264      524F525F 
 4264      494E5641 
 4264      4C49445F 
 4265              	.LASF221:
 4266 0813 626C6573 		.ascii	"blessState\000"
 4266      73537461 
 4266      746500
 4267              	.LASF178:
 4268 081e 42555454 		.ascii	"BUTTON1\000"
 4268      4F4E3100 
 4269              	.LASF179:
 4270 0826 42555454 		.ascii	"BUTTON2\000"
 4270      4F4E3200 
 4271              	.LASF180:
 4272 082e 42555454 		.ascii	"BUTTON3\000"
 4272      4F4E3300 
 4273              	.LASF181:
 4274 0836 42555454 		.ascii	"BUTTON4\000"
 4274      4F4E3400 
 4275              	.LASF182:
 4276 083e 42555454 		.ascii	"BUTTON5\000"
 4276      4F4E3500 
 4277              	.LASF91:
 4278 0846 4359424C 		.ascii	"CYBLE_ERROR_MEMORY_ALLOCATION_FAILED\000"
 4278      455F4552 
 4278      524F525F 
 4278      4D454D4F 
 4278      52595F41 
 4279              	.LASF208:
 4280 086b 496E6465 		.ascii	"Index\000"
 4280      7800
 4281              	.LASF201:
 4282 0871 53746163 		.ascii	"StackEventHandler\000"
 4282      6B457665 
 4282      6E744861 
 4282      6E646C65 
 4282      7200
 4283              	.LASF115:
 4284 0883 4359424C 		.ascii	"CYBLE_ERROR_MAX\000"
 4284      455F4552 
 4284      524F525F 
 4284      4D415800 
 4285              	.LASF75:
 4286 0893 4359424C 		.ascii	"CYBLE_EVT_L2CAP_CONN_PARAM_UPDATE_RSP\000"
 4286      455F4556 
 4286      545F4C32 
 4286      4341505F 
 4286      434F4E4E 
 4287              	.LASF125:
 4288 08b9 4359424C 		.ascii	"CYBLE_BLESS_INVALID\000"
 4288      455F424C 
 4288      4553535F 
 4288      494E5641 
 4288      4C494400 
 4289              	.LASF183:
 4290 08cd 44455649 		.ascii	"DEVICE1\000"
ARM GAS  C:\Users\ADMINI~1\AppData\Local\Temp\ccm0G0A3.s 			page 101


 4290      43453100 
 4291              	.LASF184:
 4292 08d5 44455649 		.ascii	"DEVICE2\000"
 4292      43453200 
 4293              	.LASF185:
 4294 08dd 44455649 		.ascii	"DEVICE3\000"
 4294      43453300 
 4295              	.LASF186:
 4296 08e5 44455649 		.ascii	"DEVICE4\000"
 4296      43453400 
 4297              	.LASF187:
 4298 08ed 44455649 		.ascii	"DEVICE5\000"
 4298      43453500 
 4299              	.LASF169:
 4300 08f5 4359424C 		.ascii	"CYBLE_SRVI_GATT\000"
 4300      455F5352 
 4300      56495F47 
 4300      41545400 
 4301              	.LASF33:
 4302 0905 4359424C 		.ascii	"CYBLE_EVT_GAP_AUTH_COMPLETE\000"
 4302      455F4556 
 4302      545F4741 
 4302      505F4155 
 4302      54485F43 
 4303              	.LASF34:
 4304 0921 4359424C 		.ascii	"CYBLE_EVT_GAP_AUTH_FAILED\000"
 4304      455F4556 
 4304      545F4741 
 4304      505F4155 
 4304      54485F46 
 4305              	.LASF135:
 4306 093b 4359424C 		.ascii	"CYBLE_BLESS_STATE_T\000"
 4306      455F424C 
 4306      4553535F 
 4306      53544154 
 4306      455F5400 
 4307              	.LASF173:
 4308 094f 42555454 		.ascii	"BUTTON2_DOWN\000"
 4308      4F4E325F 
 4308      444F574E 
 4308      00
 4309              	.LASF92:
 4310 095c 4359424C 		.ascii	"CYBLE_ERROR_INSUFFICIENT_RESOURCES\000"
 4310      455F4552 
 4310      524F525F 
 4310      494E5355 
 4310      46464943 
 4311              	.LASF174:
 4312 097f 42555454 		.ascii	"BUTTON3_DOWN\000"
 4312      4F4E335F 
 4312      444F574E 
 4312      00
 4313              	.LASF7:
 4314 098c 6C6F6E67 		.ascii	"long unsigned int\000"
 4314      20756E73 
 4314      69676E65 
 4314      6420696E 
ARM GAS  C:\Users\ADMINI~1\AppData\Local\Temp\ccm0G0A3.s 			page 102


 4314      7400
 4315              	.LASF241:
 4316 099e 42756666 		.ascii	"Buffer\000"
 4316      657200
 4317              	.LASF112:
 4318 09a5 4359424C 		.ascii	"CYBLE_ERROR_UNSUPPORTED_FEATURE_OR_PARAMETER_VALUE\000"
 4318      455F4552 
 4318      524F525F 
 4318      554E5355 
 4318      50504F52 
 4319              	.LASF211:
 4320 09d8 53797374 		.ascii	"SystemInit\000"
 4320      656D496E 
 4320      697400
 4321              	.LASF102:
 4322 09e3 4359424C 		.ascii	"CYBLE_ERROR_L2CAP_PSM_ALREADY_REGISTERED\000"
 4322      455F4552 
 4322      524F525F 
 4322      4C324341 
 4322      505F5053 
 4323              	.LASF214:
 4324 0a0c 4254325F 		.ascii	"BT2_IntHandler\000"
 4324      496E7448 
 4324      616E646C 
 4324      657200
 4325              	.LASF39:
 4326 0a1b 4359424C 		.ascii	"CYBLE_EVT_GAP_CONNECTION_UPDATE_COMPLETE\000"
 4326      455F4556 
 4326      545F4741 
 4326      505F434F 
 4326      4E4E4543 
 4327              	.LASF220:
 4328 0a44 736C6565 		.ascii	"sleepMode\000"
 4328      704D6F64 
 4328      6500
 4329              	.LASF79:
 4330 0a4e 4359424C 		.ascii	"CYBLE_EVT_L2CAP_CBFC_DISCONN_IND\000"
 4330      455F4556 
 4330      545F4C32 
 4330      4341505F 
 4330      43424643 
 4331              	.LASF31:
 4332 0a6f 4359424C 		.ascii	"CYBLE_EVT_GAP_PASSKEY_ENTRY_REQUEST\000"
 4332      455F4556 
 4332      545F4741 
 4332      505F5041 
 4332      53534B45 
 4333              	.LASF205:
 4334 0a93 52784461 		.ascii	"RxData\000"
 4334      746100
 4335              	.LASF8:
 4336 0a9a 6C6F6E67 		.ascii	"long long int\000"
 4336      206C6F6E 
 4336      6720696E 
 4336      7400
 4337              	.LASF123:
 4338 0aa8 4359424C 		.ascii	"CYBLE_BLESS_DEEPSLEEP\000"
ARM GAS  C:\Users\ADMINI~1\AppData\Local\Temp\ccm0G0A3.s 			page 103


 4338      455F424C 
 4338      4553535F 
 4338      44454550 
 4338      534C4545 
 4339              	.LASF239:
 4340 0abe 436F6D6D 		.ascii	"CommandList\000"
 4340      616E644C 
 4340      69737400 
 4341              	.LASF240:
 4342 0aca 436F6D6D 		.ascii	"CommandListLen\000"
 4342      616E644C 
 4342      6973744C 
 4342      656E00
 4343              	.LASF103:
 4344 0ad9 4359424C 		.ascii	"CYBLE_ERROR_L2CAP_PSM_NOT_REGISTERED\000"
 4344      455F4552 
 4344      524F525F 
 4344      4C324341 
 4344      505F5053 
 4345              	.LASF93:
 4346 0afe 4359424C 		.ascii	"CYBLE_ERROR_OOB_NOT_AVAILABLE\000"
 4346      455F4552 
 4346      524F525F 
 4346      4F4F425F 
 4346      4E4F545F 
 4347              	.LASF18:
 4348 0b1c 646F7562 		.ascii	"double\000"
 4348      6C6500
 4349              	.LASF108:
 4350 0b23 4359424C 		.ascii	"CYBLE_ERROR_DEVICE_ALREADY_EXISTS\000"
 4350      455F4552 
 4350      524F525F 
 4350      44455649 
 4350      43455F41 
 4351              	.LASF85:
 4352 0b45 4359424C 		.ascii	"CYBLE_EVT_PENDING_FLASH_WRITE\000"
 4352      455F4556 
 4352      545F5045 
 4352      4E44494E 
 4352      475F464C 
 4353              	.LASF46:
 4354 0b63 4359424C 		.ascii	"CYBLE_EVT_GAP_ENHANCE_CONN_COMPLETE\000"
 4354      455F4556 
 4354      545F4741 
 4354      505F454E 
 4354      48414E43 
 4355              	.LASF105:
 4356 0b87 4359424C 		.ascii	"CYBLE_ERROR_L2CAP_CHANNEL_NOT_FOUND\000"
 4356      455F4552 
 4356      524F525F 
 4356      4C324341 
 4356      505F4348 
 4357              	.LASF96:
 4358 0bab 4359424C 		.ascii	"CYBLE_ERROR_REPEATED_ATTEMPTS\000"
 4358      455F4552 
 4358      524F525F 
 4358      52455045 
ARM GAS  C:\Users\ADMINI~1\AppData\Local\Temp\ccm0G0A3.s 			page 104


 4358      41544544 
 4359              	.LASF17:
 4360 0bc9 666C6F61 		.ascii	"float\000"
 4360      7400
 4361              	.LASF109:
 4362 0bcf 4359424C 		.ascii	"CYBLE_ERROR_FLASH_WRITE_NOT_PERMITED\000"
 4362      455F4552 
 4362      524F525F 
 4362      464C4153 
 4362      485F5752 
 4363              	.LASF145:
 4364 0bf4 636F756E 		.ascii	"count\000"
 4364      7400
 4365              	.LASF72:
 4366 0bfa 4359424C 		.ascii	"CYBLE_EVT_GATTS_READ_CHAR_VAL_ACCESS_REQ\000"
 4366      455F4556 
 4366      545F4741 
 4366      5454535F 
 4366      52454144 
 4367              	.LASF171:
 4368 0c23 4F4E5F4F 		.ascii	"ON_OFF\000"
 4368      464600
 4369              	.LASF162:
 4370 0c2a 61747472 		.ascii	"attrHandle\000"
 4370      48616E64 
 4370      6C6500
 4371              	.LASF10:
 4372 0c35 756E7369 		.ascii	"unsigned int\000"
 4372      676E6564 
 4372      20696E74 
 4372      00
 4373              	.LASF64:
 4374 0c42 4359424C 		.ascii	"CYBLE_EVT_GATTS_PREP_WRITE_REQ\000"
 4374      455F4556 
 4374      545F4741 
 4374      5454535F 
 4374      50524550 
 4375              	.LASF198:
 4376 0c61 47656E65 		.ascii	"General_discovery_mode_Init\000"
 4376      72616C5F 
 4376      64697363 
 4376      6F766572 
 4376      795F6D6F 
 4377              	.LASF101:
 4378 0c7d 4359424C 		.ascii	"CYBLE_ERROR_L2CAP_PSM_WRONG_ENCODING\000"
 4378      455F4552 
 4378      524F525F 
 4378      4C324341 
 4378      505F5053 
 4379              	.LASF204:
 4380 0ca2 436C6965 		.ascii	"ClientData_Handler\000"
 4380      6E744461 
 4380      74615F48 
 4380      616E646C 
 4380      657200
 4381              	.LASF191:
 4382 0cb5 42757474 		.ascii	"Button3_On_Off\000"
ARM GAS  C:\Users\ADMINI~1\AppData\Local\Temp\ccm0G0A3.s 			page 105


 4382      6F6E335F 
 4382      4F6E5F4F 
 4382      666600
 4383              	.LASF218:
 4384 0cc4 414C4C5F 		.ascii	"ALL_On_Off_Handler\000"
 4384      4F6E5F4F 
 4384      66665F48 
 4384      616E646C 
 4384      657200
 4385              	.LASF87:
 4386 0cd7 4359424C 		.ascii	"CYBLE_EVT_MAX\000"
 4386      455F4556 
 4386      545F4D41 
 4386      5800
 4387              	.LASF40:
 4388 0ce5 4359424C 		.ascii	"CYBLE_EVT_GAPC_SCAN_START_STOP\000"
 4388      455F4556 
 4388      545F4741 
 4388      50435F53 
 4388      43414E5F 
 4389              	.LASF61:
 4390 0d04 4359424C 		.ascii	"CYBLE_EVT_GATTS_WRITE_REQ\000"
 4390      455F4556 
 4390      545F4741 
 4390      5454535F 
 4390      57524954 
 4391              	.LASF210:
 4392 0d1e 53747269 		.ascii	"String\000"
 4392      6E6700
 4393              	.LASF227:
 4394 0d25 44657669 		.ascii	"DeviceNum\000"
 4394      63654E75 
 4394      6D00
 4395              	.LASF32:
 4396 0d2f 4359424C 		.ascii	"CYBLE_EVT_GAP_PASSKEY_DISPLAY_REQUEST\000"
 4396      455F4556 
 4396      545F4741 
 4396      505F5041 
 4396      53534B45 
 4397              	.LASF117:
 4398 0d55 4359424C 		.ascii	"CYBLE_ERROR_IND_DISABLED\000"
 4398      455F4552 
 4398      524F525F 
 4398      494E445F 
 4398      44495341 
 4399              	.LASF116:
 4400 0d6e 4359424C 		.ascii	"CYBLE_ERROR_NTF_DISABLED\000"
 4400      455F4552 
 4400      524F525F 
 4400      4E54465F 
 4400      44495341 
 4401              	.LASF58:
 4402 0d87 4359424C 		.ascii	"CYBLE_EVT_GATTC_READ_RSP\000"
 4402      455F4556 
 4402      545F4741 
 4402      5454435F 
 4402      52454144 
ARM GAS  C:\Users\ADMINI~1\AppData\Local\Temp\ccm0G0A3.s 			page 106


 4403              	.LASF78:
 4404 0da0 4359424C 		.ascii	"CYBLE_EVT_L2CAP_CBFC_CONN_CNF\000"
 4404      455F4556 
 4404      545F4C32 
 4404      4341505F 
 4404      43424643 
 4405              	.LASF217:
 4406 0dbe 42757474 		.ascii	"ButtonHandler\000"
 4406      6F6E4861 
 4406      6E646C65 
 4406      7200
 4407              	.LASF248:
 4408 0dcc 42757474 		.ascii	"Button\000"
 4408      6F6E00
 4409              	.LASF28:
 4410 0dd3 4359424C 		.ascii	"CYBLE_EVT_MEMORY_REQUEST\000"
 4410      455F4556 
 4410      545F4D45 
 4410      4D4F5259 
 4410      5F524551 
 4411              	.LASF177:
 4412 0dec 42555454 		.ascii	"BUTTON_UP\000"
 4412      4F4E5F55 
 4412      5000
 4413              	.LASF38:
 4414 0df6 4359424C 		.ascii	"CYBLE_EVT_GAP_ENCRYPT_CHANGE\000"
 4414      455F4556 
 4414      545F4741 
 4414      505F454E 
 4414      43525950 
 4415              	.LASF223:
 4416 0e13 426F6E64 		.ascii	"BondList\000"
 4416      4C697374 
 4416      00
 4417              	.LASF250:
 4418 0e1c 2E5C6170 		.ascii	".\\application.c\000"
 4418      706C6963 
 4418      6174696F 
 4418      6E2E6300 
 4419              	.LASF52:
 4420 0e2c 4359424C 		.ascii	"CYBLE_EVT_GATTS_XCNHG_MTU_REQ\000"
 4420      455F4556 
 4420      545F4741 
 4420      5454535F 
 4420      58434E48 
 4421              	.LASF164:
 4422 0e4a 4359424C 		.ascii	"CYBLE_GATTC_WRITE_CMD_REQ_T\000"
 4422      455F4741 
 4422      5454435F 
 4422      57524954 
 4422      455F434D 
 4423              	.LASF121:
 4424 0e66 4359424C 		.ascii	"CYBLE_BLESS_ACTIVE\000"
 4424      455F424C 
 4424      4553535F 
 4424      41435449 
 4424      564500
ARM GAS  C:\Users\ADMINI~1\AppData\Local\Temp\ccm0G0A3.s 			page 107


 4425              	.LASF9:
 4426 0e79 6C6F6E67 		.ascii	"long long unsigned int\000"
 4426      206C6F6E 
 4426      6720756E 
 4426      7369676E 
 4426      65642069 
 4427              	.LASF24:
 4428 0e90 4359424C 		.ascii	"CYBLE_EVT_TIMEOUT\000"
 4428      455F4556 
 4428      545F5449 
 4428      4D454F55 
 4428      5400
 4429              	.LASF12:
 4430 0ea2 75696E74 		.ascii	"uint16_t\000"
 4430      31365F74 
 4430      00
 4431              	.LASF20:
 4432 0eab 72656733 		.ascii	"reg32\000"
 4432      3200
 4433              	.LASF237:
 4434 0eb1 57726974 		.ascii	"WriteCmd\000"
 4434      65436D64 
 4434      00
 4435              	.LASF119:
 4436 0eba 4359424C 		.ascii	"CYBLE_ERROR_INVALID_STATE\000"
 4436      455F4552 
 4436      524F525F 
 4436      494E5641 
 4436      4C49445F 
 4437              	.LASF155:
 4438 0ed4 4359424C 		.ascii	"CYBLE_GATT_DB_ATTR_HANDLE_T\000"
 4438      455F4741 
 4438      54545F44 
 4438      425F4154 
 4438      54525F48 
 4439              	.LASF81:
 4440 0ef0 4359424C 		.ascii	"CYBLE_EVT_L2CAP_CBFC_DATA_READ\000"
 4440      455F4556 
 4440      545F4C32 
 4440      4341505F 
 4440      43424643 
 4441              	.LASF161:
 4442 0f0f 76616C75 		.ascii	"value\000"
 4442      6500
 4443              	.LASF231:
 4444 0f15 54657374 		.ascii	"TestDevice\000"
 4444      44657669 
 4444      636500
 4445              	.LASF113:
 4446 0f20 4359424C 		.ascii	"CYBLE_ERROR_FLASH_WRITE\000"
 4446      455F4552 
 4446      524F525F 
 4446      464C4153 
 4446      485F5752 
 4447              	.LASF140:
 4448 0f38 4359424C 		.ascii	"CYBLE_GAPC_CONN_DIRECTED_ADV\000"
 4448      455F4741 
ARM GAS  C:\Users\ADMINI~1\AppData\Local\Temp\ccm0G0A3.s 			page 108


 4448      50435F43 
 4448      4F4E4E5F 
 4448      44495245 
 4449              	.LASF138:
 4450 0f55 4359424C 		.ascii	"CYBLE_GAP_BD_ADDR_T\000"
 4450      455F4741 
 4450      505F4244 
 4450      5F414444 
 4450      525F5400 
 4451              	.LASF249:
 4452 0f69 474E5520 		.ascii	"GNU C 4.9.3 20150303 (release) [ARM/embedded-4_9-br"
 4452      4320342E 
 4452      392E3320 
 4452      32303135 
 4452      30333033 
 4453 0f9c 616E6368 		.ascii	"anch revision 221220] -mcpu=cortex-m0 -mthumb -g -O"
 4453      20726576 
 4453      6973696F 
 4453      6E203232 
 4453      31323230 
 4454 0fcf 30202D66 		.ascii	"0 -ffunction-sections -ffat-lto-objects\000"
 4454      66756E63 
 4454      74696F6E 
 4454      2D736563 
 4454      74696F6E 
 4455              	.LASF165:
 4456 0ff7 636F6E6E 		.ascii	"connHandle\000"
 4456      48616E64 
 4456      6C6500
 4457              	.LASF230:
 4458 1002 44657669 		.ascii	"Device\000"
 4458      636500
 4459              	.LASF168:
 4460 1009 4359424C 		.ascii	"CYBLE_SRVI_GAP\000"
 4460      455F5352 
 4460      56495F47 
 4460      415000
 4461              	.LASF56:
 4462 1018 4359424C 		.ascii	"CYBLE_EVT_GATTC_FIND_INFO_RSP\000"
 4462      455F4556 
 4462      545F4741 
 4462      5454435F 
 4462      46494E44 
 4463              	.LASF55:
 4464 1036 4359424C 		.ascii	"CYBLE_EVT_GATTC_READ_BY_TYPE_RSP\000"
 4464      455F4556 
 4464      545F4741 
 4464      5454435F 
 4464      52454144 
 4465              	.LASF242:
 4466 1057 52585F49 		.ascii	"RX_ISOVER\000"
 4466      534F5645 
 4466      5200
 4467              	.LASF62:
 4468 1061 4359424C 		.ascii	"CYBLE_EVT_GATTC_WRITE_RSP\000"
 4468      455F4556 
 4468      545F4741 
ARM GAS  C:\Users\ADMINI~1\AppData\Local\Temp\ccm0G0A3.s 			page 109


 4468      5454435F 
 4468      57524954 
 4469              	.LASF233:
 4470 107b 44657669 		.ascii	"Device2\000"
 4470      63653200 
 4471              	.LASF207:
 4472 1083 4C6F6361 		.ascii	"Location\000"
 4472      74696F6E 
 4472      00
 4473              	.LASF35:
 4474 108c 4359424C 		.ascii	"CYBLE_EVT_GAPP_ADVERTISEMENT_START_STOP\000"
 4474      455F4556 
 4474      545F4741 
 4474      50505F41 
 4474      44564552 
 4475              	.LASF13:
 4476 10b4 75696E74 		.ascii	"uint8\000"
 4476      3800
 4477              	.LASF43:
 4478 10ba 4359424C 		.ascii	"CYBLE_EVT_GAP_KEYPRESS_NOTIFICATION\000"
 4478      455F4556 
 4478      545F4741 
 4478      505F4B45 
 4478      59505245 
 4479              	.LASF222:
 4480 10de 6379426C 		.ascii	"cyBle_connHandle\000"
 4480      655F636F 
 4480      6E6E4861 
 4480      6E646C65 
 4480      00
 4481              	.LASF2:
 4482 10ef 73686F72 		.ascii	"short int\000"
 4482      7420696E 
 4482      7400
 4483              	.LASF166:
 4484 10f9 68616E64 		.ascii	"handleValPair\000"
 4484      6C655661 
 4484      6C506169 
 4484      7200
 4485              	.LASF196:
 4486 1107 52656365 		.ascii	"ReceviceNotifyValue\000"
 4486      76696365 
 4486      4E6F7469 
 4486      66795661 
 4486      6C756500 
 4487              	.LASF141:
 4488 111b 4359424C 		.ascii	"CYBLE_GAPC_SCAN_UNDIRECTED_ADV\000"
 4488      455F4741 
 4488      50435F53 
 4488      43414E5F 
 4488      554E4449 
 4489              	.LASF209:
 4490 113a 4150495F 		.ascii	"API_RESULT\000"
 4490      52455355 
 4490      4C5400
 4491              	.LASF111:
 4492 1145 4359424C 		.ascii	"CYBLE_ERROR_HARDWARE_FAILURE\000"
ARM GAS  C:\Users\ADMINI~1\AppData\Local\Temp\ccm0G0A3.s 			page 110


 4492      455F4552 
 4492      524F525F 
 4492      48415244 
 4492      57415245 
 4493              	.LASF49:
 4494 1162 4359424C 		.ascii	"CYBLE_EVT_GATTC_ERROR_RSP\000"
 4494      455F4556 
 4494      545F4741 
 4494      5454435F 
 4494      4552524F 
 4495              	.LASF170:
 4496 117c 4359424C 		.ascii	"CYBLE_SRVI_COUNT\000"
 4496      455F5352 
 4496      56495F43 
 4496      4F554E54 
 4496      00
 4497              	.LASF77:
 4498 118d 4359424C 		.ascii	"CYBLE_EVT_L2CAP_CBFC_CONN_IND\000"
 4498      455F4556 
 4498      545F4C32 
 4498      4341505F 
 4498      43424643 
 4499              	.LASF65:
 4500 11ab 4359424C 		.ascii	"CYBLE_EVT_GATTS_EXEC_WRITE_REQ\000"
 4500      455F4556 
 4500      545F4741 
 4500      5454535F 
 4500      45584543 
 4501              	.LASF29:
 4502 11ca 4359424C 		.ascii	"CYBLE_EVT_GAPC_SCAN_PROGRESS_RESULT\000"
 4502      455F4556 
 4502      545F4741 
 4502      50435F53 
 4502      43414E5F 
 4503              	.LASF172:
 4504 11ee 42555454 		.ascii	"BUTTON1_DOWN\000"
 4504      4F4E315F 
 4504      444F574E 
 4504      00
 4505              	.LASF97:
 4506 11fb 4359424C 		.ascii	"CYBLE_ERROR_GAP_ROLE\000"
 4506      455F4552 
 4506      524F525F 
 4506      4741505F 
 4506      524F4C45 
 4507              	.LASF189:
 4508 1210 42757474 		.ascii	"Button1_On_Off\000"
 4508      6F6E315F 
 4508      4F6E5F4F 
 4508      666600
 4509              	.LASF136:
 4510 121f 62644164 		.ascii	"bdAddr\000"
 4510      647200
 4511              	.LASF193:
 4512 1226 42757474 		.ascii	"Button5_On_Off\000"
 4512      6F6E355F 
 4512      4F6E5F4F 
ARM GAS  C:\Users\ADMINI~1\AppData\Local\Temp\ccm0G0A3.s 			page 111


 4512      666600
 4513              	.LASF131:
 4514 1235 4359424C 		.ascii	"CYBLE_BLESS_STATE_ECO_STABLE\000"
 4514      455F424C 
 4514      4553535F 
 4514      53544154 
 4514      455F4543 
 4515              	.LASF144:
 4516 1252 4359424C 		.ascii	"CYBLE_GAPC_ADV_EVENT_T\000"
 4516      455F4741 
 4516      50435F41 
 4516      44565F45 
 4516      56454E54 
 4517              	.LASF94:
 4518 1269 4359424C 		.ascii	"CYBLE_ERROR_NO_CONNECTION\000"
 4518      455F4552 
 4518      524F525F 
 4518      4E4F5F43 
 4518      4F4E4E45 
 4519              	.LASF215:
 4520 1283 4254335F 		.ascii	"BT3_IntHandler\000"
 4520      496E7448 
 4520      616E646C 
 4520      657200
 4521              	.LASF124:
 4522 1292 4359424C 		.ascii	"CYBLE_BLESS_HIBERNATE\000"
 4522      455F424C 
 4522      4553535F 
 4522      48494245 
 4522      524E4154 
 4523              	.LASF86:
 4524 12a8 4359424C 		.ascii	"CYBLE_EVT_LE_PING_AUTH_TIMEOUT\000"
 4524      455F4556 
 4524      545F4C45 
 4524      5F50494E 
 4524      475F4155 
 4525              	.LASF120:
 4526 12c7 4359424C 		.ascii	"CYBLE_API_RESULT_T\000"
 4526      455F4150 
 4526      495F5245 
 4526      53554C54 
 4526      5F5400
 4527              	.LASF134:
 4528 12da 4359424C 		.ascii	"CYBLE_BLESS_STATE_INVALID\000"
 4528      455F424C 
 4528      4553535F 
 4528      53544154 
 4528      455F494E 
 4529              	.LASF148:
 4530 12f4 6576656E 		.ascii	"eventType\000"
 4530      74547970 
 4530      6500
 4531              	.LASF68:
 4532 12fe 4359424C 		.ascii	"CYBLE_EVT_GATTC_HANDLE_VALUE_IND\000"
 4532      455F4556 
 4532      545F4741 
 4532      5454435F 
ARM GAS  C:\Users\ADMINI~1\AppData\Local\Temp\ccm0G0A3.s 			page 112


 4532      48414E44 
 4533              	.LASF194:
 4534 131f 6576656E 		.ascii	"eventCode\000"
 4534      74436F64 
 4534      6500
 4535              	.LASF100:
 4536 1329 4359424C 		.ascii	"CYBLE_ERROR_SEC_FAILED\000"
 4536      455F4552 
 4536      524F525F 
 4536      5345435F 
 4536      4641494C 
 4537              	.LASF27:
 4538 1340 4359424C 		.ascii	"CYBLE_EVT_STACK_BUSY_STATUS\000"
 4538      455F4556 
 4538      545F5354 
 4538      41434B5F 
 4538      42555359 
 4539              	.LASF41:
 4540 135c 4359424C 		.ascii	"CYBLE_EVT_GAP_KEYINFO_EXCHNGE_CMPLT\000"
 4540      455F4556 
 4540      545F4741 
 4540      505F4B45 
 4540      59494E46 
 4541              	.LASF74:
 4542 1380 4359424C 		.ascii	"CYBLE_EVT_L2CAP_CONN_PARAM_UPDATE_REQ\000"
 4542      455F4556 
 4542      545F4C32 
 4542      4341505F 
 4542      434F4E4E 
 4543              	.LASF147:
 4544 13a6 4359424C 		.ascii	"CYBLE_GAP_BONDED_DEV_ADDR_LIST_T\000"
 4544      455F4741 
 4544      505F424F 
 4544      4E444544 
 4544      5F444556 
 4545              	.LASF5:
 4546 13c7 73686F72 		.ascii	"short unsigned int\000"
 4546      7420756E 
 4546      7369676E 
 4546      65642069 
 4546      6E7400
 4547              	.LASF244:
 4548 13da 414C4C5F 		.ascii	"ALL_ON_OFF\000"
 4548      4F4E5F4F 
 4548      464600
 4549              	.LASF159:
 4550 13e5 61637475 		.ascii	"actualLen\000"
 4550      616C4C65 
 4550      6E00
 4551              	.LASF157:
 4552 13ef 61747449 		.ascii	"attId\000"
 4552      6400
 4553              	.LASF90:
 4554 13f5 4359424C 		.ascii	"CYBLE_ERROR_INVALID_OPERATION\000"
 4554      455F4552 
 4554      524F525F 
 4554      494E5641 
ARM GAS  C:\Users\ADMINI~1\AppData\Local\Temp\ccm0G0A3.s 			page 113


 4554      4C49445F 
 4555              	.LASF203:
 4556 1413 54784461 		.ascii	"TxData\000"
 4556      746100
 4557              	.LASF26:
 4558 141a 4359424C 		.ascii	"CYBLE_EVT_HCI_STATUS\000"
 4558      455F4556 
 4558      545F4843 
 4558      495F5354 
 4558      41545553 
 4559              	.LASF51:
 4560 142f 4359424C 		.ascii	"CYBLE_EVT_GATT_DISCONNECT_IND\000"
 4560      455F4556 
 4560      545F4741 
 4560      54545F44 
 4560      4953434F 
 4561              	.LASF84:
 4562 144d 4359424C 		.ascii	"CYBLE_EVT_L2CAP_CBFC_DATA_WRITE_IND\000"
 4562      455F4556 
 4562      545F4C32 
 4562      4341505F 
 4562      43424643 
 4563              	.LASF176:
 4564 1471 42555454 		.ascii	"BUTTON5_DOWN\000"
 4564      4F4E355F 
 4564      444F574E 
 4564      00
 4565              	.LASF153:
 4566 147e 72737369 		.ascii	"rssi\000"
 4566      00
 4567              	.LASF73:
 4568 1483 4359424C 		.ascii	"CYBLE_EVT_GATTC_LONG_PROCEDURE_END\000"
 4568      455F4556 
 4568      545F4741 
 4568      5454435F 
 4568      4C4F4E47 
 4569              	.LASF152:
 4570 14a6 64617461 		.ascii	"data\000"
 4570      00
 4571              	.LASF37:
 4572 14ab 4359424C 		.ascii	"CYBLE_EVT_GAP_DEVICE_DISCONNECTED\000"
 4572      455F4556 
 4572      545F4741 
 4572      505F4445 
 4572      56494345 
 4573              	.LASF69:
 4574 14cd 4359424C 		.ascii	"CYBLE_EVT_GATTS_HANDLE_VALUE_CNF\000"
 4574      455F4556 
 4574      545F4741 
 4574      5454535F 
 4574      48414E44 
 4575              	.LASF154:
 4576 14ee 4359424C 		.ascii	"CYBLE_GAPC_ADV_REPORT_T\000"
 4576      455F4741 
 4576      50435F41 
 4576      44565F52 
 4576      45504F52 
ARM GAS  C:\Users\ADMINI~1\AppData\Local\Temp\ccm0G0A3.s 			page 114


 4577              	.LASF14:
 4578 1506 75696E74 		.ascii	"uint16\000"
 4578      313600
 4579              	.LASF98:
 4580 150d 4359424C 		.ascii	"CYBLE_ERROR_TX_POWER_READ\000"
 4580      455F4552 
 4580      524F525F 
 4580      54585F50 
 4580      4F574552 
 4581              	.LASF206:
 4582 1527 53657276 		.ascii	"ServerData_Handler\000"
 4582      65724461 
 4582      74615F48 
 4582      616E646C 
 4582      657200
 4583              	.LASF132:
 4584 153a 4359424C 		.ascii	"CYBLE_BLESS_STATE_DEEPSLEEP\000"
 4584      455F424C 
 4584      4553535F 
 4584      53544154 
 4584      455F4445 
 4585              		.ident	"GCC: (GNU Tools for ARM Embedded Processors) 4.9.3 20150303 (release) [ARM/embedded-4_9-br
