ARM GAS  C:\Users\ADMINI~1\AppData\Local\Temp\cczpe50f.s 			page 1


   1              		.cpu cortex-m0
   2              		.fpu softvfp
   3              		.eabi_attribute 20, 1
   4              		.eabi_attribute 21, 1
   5              		.eabi_attribute 23, 3
   6              		.eabi_attribute 24, 1
   7              		.eabi_attribute 25, 1
   8              		.eabi_attribute 26, 1
   9              		.eabi_attribute 30, 6
  10              		.eabi_attribute 34, 0
  11              		.eabi_attribute 18, 4
  12              		.code	16
  13              		.file	"BLE.c"
  14              		.text
  15              	.Ltext0:
  16              		.cfi_sections	.debug_frame
  17              		.global	cyBle_initVar
  18              		.bss
  19              		.type	cyBle_initVar, %object
  20              		.size	cyBle_initVar, 1
  21              	cyBle_initVar:
  22 0000 00       		.space	1
  23              		.global	cyBle_stackMemoryRam
  24              		.section	.noinit,"aw",%progbits
  25              		.align	3
  26              		.type	cyBle_stackMemoryRam, %object
  27              		.size	cyBle_stackMemoryRam, 2840
  28              	cyBle_stackMemoryRam:
  29 0000 00000000 		.space	2840
  29      00000000 
  29      00000000 
  29      00000000 
  29      00000000 
  30              		.global	cyBle_discoveryParam
  31              		.data
  32              		.align	2
  33              		.type	cyBle_discoveryParam, %object
  34              		.size	cyBle_discoveryParam, 16
  35              	cyBle_discoveryParam:
  36 0000 4001     		.short	320
  37 0002 4001     		.short	320
  38 0004 00       		.byte	0
  39 0005 00       		.byte	0
  40 0006 00       		.byte	0
  41 0007 00       		.byte	0
  42 0008 00       		.byte	0
  43 0009 00       		.byte	0
  44 000a 50       		.byte	80
  45 000b A0       		.byte	-96
  46 000c 00       		.byte	0
  47 000d 07       		.byte	7
  48 000e 00       		.byte	0
  49 000f 00       		.space	1
  50              		.global	cyBle_discoveryData
  51              		.align	2
  52              		.type	cyBle_discoveryData, %object
  53              		.size	cyBle_discoveryData, 32
ARM GAS  C:\Users\ADMINI~1\AppData\Local\Temp\cczpe50f.s 			page 2


  54              	cyBle_discoveryData:
  55 0010 02       		.byte	2
  56 0011 01       		.byte	1
  57 0012 06       		.byte	6
  58 0013 0A       		.byte	10
  59 0014 09       		.byte	9
  60 0015 46       		.byte	70
  61 0016 65       		.byte	101
  62 0017 69       		.byte	105
  63 0018 44       		.byte	68
  64 0019 69       		.byte	105
  65 001a 61       		.byte	97
  66 001b 6F       		.byte	111
  67 001c 30       		.byte	48
  68 001d 31       		.byte	49
  69 001e 00       		.byte	0
  70 001f 00       		.byte	0
  71 0020 00       		.byte	0
  72 0021 00       		.byte	0
  73 0022 00       		.byte	0
  74 0023 00       		.byte	0
  75 0024 00       		.byte	0
  76 0025 00       		.byte	0
  77 0026 00       		.byte	0
  78 0027 00       		.byte	0
  79 0028 00       		.byte	0
  80 0029 00       		.byte	0
  81 002a 00       		.byte	0
  82 002b 00       		.byte	0
  83 002c 00       		.byte	0
  84 002d 00       		.byte	0
  85 002e 00       		.byte	0
  86 002f 0E       		.byte	14
  87              		.global	cyBle_scanRspData
  88              		.bss
  89 0001 000000   		.align	2
  90              		.type	cyBle_scanRspData, %object
  91              		.size	cyBle_scanRspData, 32
  92              	cyBle_scanRspData:
  93 0004 00000000 		.space	32
  93      00000000 
  93      00000000 
  93      00000000 
  93      00000000 
  94              		.global	cyBle_discoveryModeInfo
  95              		.data
  96              		.align	2
  97              		.type	cyBle_discoveryModeInfo, %object
  98              		.size	cyBle_discoveryModeInfo, 20
  99              	cyBle_discoveryModeInfo:
 100 0030 02       		.byte	2
 101 0031 000000   		.space	3
 102 0034 00000000 		.word	cyBle_discoveryParam
 103 0038 00000000 		.word	cyBle_discoveryData
 104 003c 00000000 		.word	cyBle_scanRspData
 105 0040 0000     		.short	0
 106 0042 0000     		.space	2
ARM GAS  C:\Users\ADMINI~1\AppData\Local\Temp\cczpe50f.s 			page 3


 107              		.comm	cyBle_peerBonding,1,1
 108              		.comm	cyBle_pendingFlashWrite,1,1
 109              		.bss
 110              	cyBle_pendingFlashClearCccdHandle:
 111 0024 00       		.space	1
 112              		.comm	CyBle_ApplCallback,4,4
 113              		.global	cyBle_deviceAddress
 114 0025 000000   		.data
 115              		.align	2
 116              		.type	cyBle_deviceAddress, %object
 117              		.size	cyBle_deviceAddress, 7
 118              	cyBle_deviceAddress:
 119 0044 00       		.byte	0
 120 0045 00       		.byte	0
 121 0046 00       		.byte	0
 122 0047 50       		.byte	80
 123 0048 A0       		.byte	-96
 124 0049 00       		.byte	0
 125 004a 00       		.byte	0
 126              		.global	cyBle_sflashDeviceAddress
 127 004b 00       		.align	2
 128              		.type	cyBle_sflashDeviceAddress, %object
 129              		.size	cyBle_sflashDeviceAddress, 4
 130              	cyBle_sflashDeviceAddress:
 131 004c 00F2FF0F 		.word	268431872
 132              		.section	.text.CyBle_Init,"ax",%progbits
 133              		.align	2
 134              		.global	CyBle_Init
 135              		.code	16
 136              		.thumb_func
 137              		.type	CyBle_Init, %function
 138              	CyBle_Init:
 139              	.LFB2:
 140              		.file 1 ".\\Generated_Source\\PSoC4\\BLE.c"
   1:.\Generated_Source\PSoC4/BLE.c **** /***************************************************************************//**
   2:.\Generated_Source\PSoC4/BLE.c **** * \file CYBLE.c
   3:.\Generated_Source\PSoC4/BLE.c **** * \version 3.10
   4:.\Generated_Source\PSoC4/BLE.c **** * 
   5:.\Generated_Source\PSoC4/BLE.c **** * \brief
   6:.\Generated_Source\PSoC4/BLE.c **** *  This file contains the source code for the Common APIs of the BLE Component.
   7:.\Generated_Source\PSoC4/BLE.c **** * 
   8:.\Generated_Source\PSoC4/BLE.c **** ********************************************************************************
   9:.\Generated_Source\PSoC4/BLE.c **** * \copyright
  10:.\Generated_Source\PSoC4/BLE.c **** * Copyright 2014-2016, Cypress Semiconductor Corporation.  All rights reserved.
  11:.\Generated_Source\PSoC4/BLE.c **** * You may use this file only in accordance with the license, terms, conditions,
  12:.\Generated_Source\PSoC4/BLE.c **** * disclaimers, and limitations in the end user license agreement accompanying
  13:.\Generated_Source\PSoC4/BLE.c **** * the software package with which this file was provided.
  14:.\Generated_Source\PSoC4/BLE.c **** *******************************************************************************/
  15:.\Generated_Source\PSoC4/BLE.c **** 
  16:.\Generated_Source\PSoC4/BLE.c **** #include "BLE_eventHandler.h"
  17:.\Generated_Source\PSoC4/BLE.c **** #include "BLE_HAL_PVT.h"
  18:.\Generated_Source\PSoC4/BLE.c **** #include <stdlib.h>
  19:.\Generated_Source\PSoC4/BLE.c **** 
  20:.\Generated_Source\PSoC4/BLE.c **** 
  21:.\Generated_Source\PSoC4/BLE.c **** /***************************************
  22:.\Generated_Source\PSoC4/BLE.c **** * Function Prototypes
  23:.\Generated_Source\PSoC4/BLE.c **** ***************************************/
ARM GAS  C:\Users\ADMINI~1\AppData\Local\Temp\cczpe50f.s 			page 4


  24:.\Generated_Source\PSoC4/BLE.c **** 
  25:.\Generated_Source\PSoC4/BLE.c **** #if(CYBLE_GATT_ROLE_SERVER)
  26:.\Generated_Source\PSoC4/BLE.c ****     #if(CYBLE_GAP_ROLE_PERIPHERAL)
  27:.\Generated_Source\PSoC4/BLE.c ****         static void CyBle_ChangeAdLocalName(const char8 name[], uint8 dest);
  28:.\Generated_Source\PSoC4/BLE.c ****     #endif /* (CYBLE_GAP_ROLE_PERIPHERAL) */
  29:.\Generated_Source\PSoC4/BLE.c **** #endif /* (CYBLE_GATT_ROLE_SERVER) */
  30:.\Generated_Source\PSoC4/BLE.c ****     
  31:.\Generated_Source\PSoC4/BLE.c **** 
  32:.\Generated_Source\PSoC4/BLE.c **** /***************************************
  33:.\Generated_Source\PSoC4/BLE.c **** * Global Variables
  34:.\Generated_Source\PSoC4/BLE.c **** ***************************************/
  35:.\Generated_Source\PSoC4/BLE.c **** 
  36:.\Generated_Source\PSoC4/BLE.c **** /* Indicates whether the BLE has been initialized. The variable is initialized to
  37:.\Generated_Source\PSoC4/BLE.c ****    0 and set to 1 the first time CyBle_Start() is called. This allows the component
  38:.\Generated_Source\PSoC4/BLE.c ****    to restart without reinitialization after the first call to the CyBle_Start() 
  39:.\Generated_Source\PSoC4/BLE.c ****    routine. If reinitialization of the component is required, the variable should 
  40:.\Generated_Source\PSoC4/BLE.c ****    be set to 0 before the CyBle_Start() routine is called. Alternatively, the BLE
  41:.\Generated_Source\PSoC4/BLE.c ****    can be reinitialized by calling the CyBle_Init() function.
  42:.\Generated_Source\PSoC4/BLE.c **** */
  43:.\Generated_Source\PSoC4/BLE.c **** uint8  cyBle_initVar = 0u;
  44:.\Generated_Source\PSoC4/BLE.c **** 
  45:.\Generated_Source\PSoC4/BLE.c **** /* Allocate RAM memory for stack. This buffer could be reused by application when 
  46:.\Generated_Source\PSoC4/BLE.c ****    BLE component is stopped. For export mode buffer is allocated in heap.
  47:.\Generated_Source\PSoC4/BLE.c **** */
  48:.\Generated_Source\PSoC4/BLE.c **** #if(CYBLE_SHARING_MODE_EXPORT)
  49:.\Generated_Source\PSoC4/BLE.c ****     
  50:.\Generated_Source\PSoC4/BLE.c **** uint8 *cyBle_stackMemoryRam = NULL;
  51:.\Generated_Source\PSoC4/BLE.c **** 
  52:.\Generated_Source\PSoC4/BLE.c **** #else
  53:.\Generated_Source\PSoC4/BLE.c **** 
  54:.\Generated_Source\PSoC4/BLE.c **** CYBLE_CYALIGNED_BEGIN CY_NOINIT uint8 cyBle_stackMemoryRam[CYBLE_STACK_RAM_SIZE] CYBLE_CYALIGNED_EN
  55:.\Generated_Source\PSoC4/BLE.c **** 
  56:.\Generated_Source\PSoC4/BLE.c **** #endif  /* CYBLE_SHARING_MODE_EXPORT */
  57:.\Generated_Source\PSoC4/BLE.c **** 
  58:.\Generated_Source\PSoC4/BLE.c **** #if(CYBLE_GAP_ROLE_PERIPHERAL || CYBLE_GAP_ROLE_BROADCASTER)
  59:.\Generated_Source\PSoC4/BLE.c **** 
  60:.\Generated_Source\PSoC4/BLE.c **** CYBLE_GAPP_DISC_PARAM_T cyBle_discoveryParam =
  61:.\Generated_Source\PSoC4/BLE.c **** {
  62:.\Generated_Source\PSoC4/BLE.c ****     0x0140u,    /* uint16 advertising_interval_min */
  63:.\Generated_Source\PSoC4/BLE.c ****     0x0140u,    /* uint16 advertising_interval_max */
  64:.\Generated_Source\PSoC4/BLE.c ****     CYBLE_GAPP_CONNECTABLE_UNDIRECTED_ADV, /* uint8 advertising_type */
  65:.\Generated_Source\PSoC4/BLE.c ****     0x00u,      /* uint8 own_addr_type */
  66:.\Generated_Source\PSoC4/BLE.c ****     0x00u,      /* uint8 direct_addr_type */
  67:.\Generated_Source\PSoC4/BLE.c ****     {0x00u, 0x00u, 0x00u, 0x50u, 0xA0u, 0x00u}, /* uint8* direct_addr */
  68:.\Generated_Source\PSoC4/BLE.c ****     0x07u,      /* uint8 advertising_channel_map */
  69:.\Generated_Source\PSoC4/BLE.c ****     0x00u,      /* uint8 advertising_filter_policy */
  70:.\Generated_Source\PSoC4/BLE.c **** };
  71:.\Generated_Source\PSoC4/BLE.c **** 
  72:.\Generated_Source\PSoC4/BLE.c **** CYBLE_GAPP_DISC_DATA_T cyBle_discoveryData =
  73:.\Generated_Source\PSoC4/BLE.c **** {
  74:.\Generated_Source\PSoC4/BLE.c ****     { 0x02u, 0x01u, 0x06u, 0x0Au, 0x09u, 0x46u, 0x65u,
  75:.\Generated_Source\PSoC4/BLE.c ****     0x69u, 0x44u, 0x69u, 0x61u, 0x6Fu, 0x30u, 0x31u, 0x00u,
  76:.\Generated_Source\PSoC4/BLE.c ****     0x00u, 0x00u, 0x00u, 0x00u, 0x00u, 0x00u, 0x00u, 0x00u,
  77:.\Generated_Source\PSoC4/BLE.c ****     0x00u, 0x00u, 0x00u, 0x00u, 0x00u, 0x00u, 0x00u, 0x00u }, /* uint8 advertising_data[CYBLE_MAX_A
  78:.\Generated_Source\PSoC4/BLE.c ****     0x0Eu,      /* uint8 adv_data_length */
  79:.\Generated_Source\PSoC4/BLE.c **** };
  80:.\Generated_Source\PSoC4/BLE.c **** 
ARM GAS  C:\Users\ADMINI~1\AppData\Local\Temp\cczpe50f.s 			page 5


  81:.\Generated_Source\PSoC4/BLE.c **** CYBLE_GAPP_SCAN_RSP_DATA_T cyBle_scanRspData =
  82:.\Generated_Source\PSoC4/BLE.c **** {
  83:.\Generated_Source\PSoC4/BLE.c ****     { 0x00u, 0x00u, 0x00u, 0x00u, 0x00u, 0x00u, 0x00u,
  84:.\Generated_Source\PSoC4/BLE.c ****     0x00u, 0x00u, 0x00u, 0x00u, 0x00u, 0x00u, 0x00u, 0x00u,
  85:.\Generated_Source\PSoC4/BLE.c ****     0x00u, 0x00u, 0x00u, 0x00u, 0x00u, 0x00u, 0x00u, 0x00u,
  86:.\Generated_Source\PSoC4/BLE.c ****     0x00u, 0x00u, 0x00u, 0x00u, 0x00u, 0x00u, 0x00u, 0x00u }, /* uint8 scan_rsp_data[CYBLE_MAX_SCAN
  87:.\Generated_Source\PSoC4/BLE.c ****     0x00u,      /* uint8 scan_rsp_data_length */
  88:.\Generated_Source\PSoC4/BLE.c **** };
  89:.\Generated_Source\PSoC4/BLE.c **** 
  90:.\Generated_Source\PSoC4/BLE.c **** /* This variable of type CYBLE_GAPP_DISC_MODE_INFO_T is present only when 
  91:.\Generated_Source\PSoC4/BLE.c ****    the BLE component is configured for Peripheral GAP role or Central and 
  92:.\Generated_Source\PSoC4/BLE.c ****    Peripheral GAP role. It contains the Advertisement settings and also the 
  93:.\Generated_Source\PSoC4/BLE.c ****    Advertisement and Scan response data parameters entered in the customizer.
  94:.\Generated_Source\PSoC4/BLE.c ****    This variable can be used by advanced users to change Advertisement settings,
  95:.\Generated_Source\PSoC4/BLE.c ****    Advertisement or Scan response data in runtime. 
  96:.\Generated_Source\PSoC4/BLE.c **** */
  97:.\Generated_Source\PSoC4/BLE.c **** CYBLE_GAPP_DISC_MODE_INFO_T cyBle_discoveryModeInfo =
  98:.\Generated_Source\PSoC4/BLE.c **** {
  99:.\Generated_Source\PSoC4/BLE.c ****     0x02u,      /* uint8 discMode */
 100:.\Generated_Source\PSoC4/BLE.c ****     &cyBle_discoveryParam,
 101:.\Generated_Source\PSoC4/BLE.c ****     &cyBle_discoveryData,
 102:.\Generated_Source\PSoC4/BLE.c ****     &cyBle_scanRspData,
 103:.\Generated_Source\PSoC4/BLE.c ****     0x0000u,    /* uint16 advTo */
 104:.\Generated_Source\PSoC4/BLE.c **** };
 105:.\Generated_Source\PSoC4/BLE.c **** 
 106:.\Generated_Source\PSoC4/BLE.c **** 
 107:.\Generated_Source\PSoC4/BLE.c **** #endif /* CYBLE_GAP_ROLE_PERIPHERAL || CYBLE_GAP_ROLE_BROADCASTER */
 108:.\Generated_Source\PSoC4/BLE.c **** 
 109:.\Generated_Source\PSoC4/BLE.c **** #if(CYBLE_GAP_ROLE_CENTRAL)
 110:.\Generated_Source\PSoC4/BLE.c ****     
 111:.\Generated_Source\PSoC4/BLE.c **** CYBLE_GAPC_CONN_PARAM_T cyBle_connectionParameters;
 112:.\Generated_Source\PSoC4/BLE.c **** 
 113:.\Generated_Source\PSoC4/BLE.c **** /* Connecting timeout is set to 30 seconds in CyBle_Init function. 
 114:.\Generated_Source\PSoC4/BLE.c ****    Not zero value starts timer in CyBle_GapcConnectDevice API.
 115:.\Generated_Source\PSoC4/BLE.c **** */
 116:.\Generated_Source\PSoC4/BLE.c **** uint16 cyBle_connectingTimeout;
 117:.\Generated_Source\PSoC4/BLE.c ****     
 118:.\Generated_Source\PSoC4/BLE.c **** #endif /* CYBLE_GAP_ROLE_CENTRAL */
 119:.\Generated_Source\PSoC4/BLE.c **** 
 120:.\Generated_Source\PSoC4/BLE.c **** #if(CYBLE_GAP_ROLE_CENTRAL || CYBLE_GAP_ROLE_OBSERVER)
 121:.\Generated_Source\PSoC4/BLE.c ****     
 122:.\Generated_Source\PSoC4/BLE.c **** 
 123:.\Generated_Source\PSoC4/BLE.c ****     
 124:.\Generated_Source\PSoC4/BLE.c **** #endif /* CYBLE_GAP_ROLE_CENTRAL || CYBLE_GAP_ROLE_OBSERVER */
 125:.\Generated_Source\PSoC4/BLE.c **** 
 126:.\Generated_Source\PSoC4/BLE.c **** #if((CYBLE_GAP_ROLE_PERIPHERAL || CYBLE_GAP_ROLE_CENTRAL) && (CYBLE_BONDING_REQUIREMENT == CYBLE_BO
 127:.\Generated_Source\PSoC4/BLE.c **** 
 128:.\Generated_Source\PSoC4/BLE.c **** uint8 cyBle_peerBonding;
 129:.\Generated_Source\PSoC4/BLE.c **** uint8 cyBle_pendingFlashWrite;
 130:.\Generated_Source\PSoC4/BLE.c ****     
 131:.\Generated_Source\PSoC4/BLE.c **** #if(CYBLE_GATT_DB_CCCD_COUNT != 0u)
 132:.\Generated_Source\PSoC4/BLE.c ****     static uint8 cyBle_pendingFlashClearCccdHandle;
 133:.\Generated_Source\PSoC4/BLE.c **** #endif /* CYBLE_GATT_DB_CCCD_COUNT != 0u */
 134:.\Generated_Source\PSoC4/BLE.c ****     
 135:.\Generated_Source\PSoC4/BLE.c **** #endif  /* (CYBLE_BONDING_REQUIREMENT == CYBLE_BONDING_YES) */
 136:.\Generated_Source\PSoC4/BLE.c **** 
 137:.\Generated_Source\PSoC4/BLE.c **** CYBLE_CALLBACK_T CyBle_ApplCallback;
ARM GAS  C:\Users\ADMINI~1\AppData\Local\Temp\cczpe50f.s 			page 6


 138:.\Generated_Source\PSoC4/BLE.c **** CYBLE_GAP_BD_ADDR_T cyBle_deviceAddress = {{0x00u, 0x00u, 0x00u, 0x50u, 0xA0u, 0x00u}, 0x00u };
 139:.\Generated_Source\PSoC4/BLE.c **** CYBLE_GAP_BD_ADDR_T * cyBle_sflashDeviceAddress = CYBLE_SFLASH_DEVICE_ADDRESS_PTR;
 140:.\Generated_Source\PSoC4/BLE.c **** 
 141:.\Generated_Source\PSoC4/BLE.c **** 
 142:.\Generated_Source\PSoC4/BLE.c **** /******************************************************************************
 143:.\Generated_Source\PSoC4/BLE.c **** * Function Name: CyBle_Init
 144:.\Generated_Source\PSoC4/BLE.c **** ***************************************************************************//**
 145:.\Generated_Source\PSoC4/BLE.c **** *
 146:.\Generated_Source\PSoC4/BLE.c **** *   Initializes the component with the parameters set in the customizer.
 147:.\Generated_Source\PSoC4/BLE.c **** * 
 148:.\Generated_Source\PSoC4/BLE.c **** *  \return
 149:.\Generated_Source\PSoC4/BLE.c **** *   None
 150:.\Generated_Source\PSoC4/BLE.c **** * 
 151:.\Generated_Source\PSoC4/BLE.c **** ******************************************************************************/
 152:.\Generated_Source\PSoC4/BLE.c **** void CyBle_Init(void)
 153:.\Generated_Source\PSoC4/BLE.c **** {
 141              		.loc 1 153 0
 142              		.cfi_startproc
 143 0000 80B5     		push	{r7, lr}
 144              		.cfi_def_cfa_offset 8
 145              		.cfi_offset 7, -8
 146              		.cfi_offset 14, -4
 147 0002 00AF     		add	r7, sp, #0
 148              		.cfi_def_cfa_register 7
 154:.\Generated_Source\PSoC4/BLE.c ****     cyBle_eventHandlerFlag = 0u;
 149              		.loc 1 154 0
 150 0004 094B     		ldr	r3, .L2
 151 0006 0022     		mov	r2, #0
 152 0008 1A70     		strb	r2, [r3]
 155:.\Generated_Source\PSoC4/BLE.c ****     cyBle_busyStatus = CYBLE_STACK_STATE_FREE;
 153              		.loc 1 155 0
 154 000a 094B     		ldr	r3, .L2+4
 155 000c 0022     		mov	r2, #0
 156 000e 1A70     		strb	r2, [r3]
 156:.\Generated_Source\PSoC4/BLE.c **** 
 157:.\Generated_Source\PSoC4/BLE.c ****     #if(CYBLE_GAP_ROLE_PERIPHERAL || CYBLE_GAP_ROLE_BROADCASTER) 
 158:.\Generated_Source\PSoC4/BLE.c ****         cyBle_advertisingIntervalType = CYBLE_ADVERTISING_FAST; 
 157              		.loc 1 158 0
 158 0010 084B     		ldr	r3, .L2+8
 159 0012 0022     		mov	r2, #0
 160 0014 1A70     		strb	r2, [r3]
 159:.\Generated_Source\PSoC4/BLE.c ****     #endif /* (CYBLE_GAP_ROLE_PERIPHERAL || CYBLE_GAP_ROLE_BROADCASTER)  */
 160:.\Generated_Source\PSoC4/BLE.c ****     #if(CYBLE_GAP_ROLE_CENTRAL || CYBLE_GAP_ROLE_OBSERVER)
 161:.\Generated_Source\PSoC4/BLE.c ****         cyBle_scanningIntervalType = CYBLE_SCANNING_FAST; 
 162:.\Generated_Source\PSoC4/BLE.c ****     #endif /* (CYBLE_GAP_ROLE_CENTRAL || CYBLE_GAP_ROLE_OBSERVER) */
 163:.\Generated_Source\PSoC4/BLE.c ****         
 164:.\Generated_Source\PSoC4/BLE.c ****     /* Init default connection parameters. 
 165:.\Generated_Source\PSoC4/BLE.c ****        Application may change it before initiating a connection */
 166:.\Generated_Source\PSoC4/BLE.c ****     #if(CYBLE_GAP_ROLE_CENTRAL)
 167:.\Generated_Source\PSoC4/BLE.c ****         cyBle_connectionParameters.scanIntv = cyBle_discoveryInfo.scanIntv;
 168:.\Generated_Source\PSoC4/BLE.c ****         cyBle_connectionParameters.scanWindow = cyBle_discoveryInfo.scanWindow;
 169:.\Generated_Source\PSoC4/BLE.c ****         cyBle_connectionParameters.ownAddrType = cyBle_discoveryInfo.ownAddrType;
 170:.\Generated_Source\PSoC4/BLE.c ****         cyBle_connectionParameters.initiatorFilterPolicy = cyBle_discoveryInfo.scanFilterPolicy;
 171:.\Generated_Source\PSoC4/BLE.c ****         cyBle_connectionParameters.connIntvMin = CYBLE_GAPC_CONNECTION_INTERVAL_MIN;
 172:.\Generated_Source\PSoC4/BLE.c ****         cyBle_connectionParameters.connIntvMax = CYBLE_GAPC_CONNECTION_INTERVAL_MAX;
 173:.\Generated_Source\PSoC4/BLE.c ****         cyBle_connectionParameters.connLatency = CYBLE_GAPC_CONNECTION_SLAVE_LATENCY;
 174:.\Generated_Source\PSoC4/BLE.c ****         cyBle_connectionParameters.supervisionTO = CYBLE_GAPC_CONNECTION_TIME_OUT;
ARM GAS  C:\Users\ADMINI~1\AppData\Local\Temp\cczpe50f.s 			page 7


 175:.\Generated_Source\PSoC4/BLE.c ****         cyBle_connectionParameters.minCeLength = 0x0000u;
 176:.\Generated_Source\PSoC4/BLE.c ****         cyBle_connectionParameters.maxCeLength = 0xFFFFu;
 177:.\Generated_Source\PSoC4/BLE.c ****         
 178:.\Generated_Source\PSoC4/BLE.c ****         cyBle_connectingTimeout = CYBLE_GAPC_CONNECTING_TIMEOUT;
 179:.\Generated_Source\PSoC4/BLE.c ****     #endif /* CYBLE_GAP_ROLE_CENTRAL */
 180:.\Generated_Source\PSoC4/BLE.c **** 
 181:.\Generated_Source\PSoC4/BLE.c ****     CyBle_ServiceInit();
 161              		.loc 1 181 0
 162 0016 FFF7FEFF 		bl	CyBle_ServiceInit
 182:.\Generated_Source\PSoC4/BLE.c **** 
 183:.\Generated_Source\PSoC4/BLE.c ****     #if((CYBLE_GAP_ROLE_PERIPHERAL || CYBLE_GAP_ROLE_CENTRAL) && (CYBLE_BONDING_REQUIREMENT == CYBL
 184:.\Generated_Source\PSoC4/BLE.c ****         cyBle_pendingFlashWrite = 0u;
 163              		.loc 1 184 0
 164 001a 074B     		ldr	r3, .L2+12
 165 001c 0022     		mov	r2, #0
 166 001e 1A70     		strb	r2, [r3]
 185:.\Generated_Source\PSoC4/BLE.c ****         cyBle_peerBonding = CYBLE_GAP_BONDING_NONE;
 167              		.loc 1 185 0
 168 0020 064B     		ldr	r3, .L2+16
 169 0022 0022     		mov	r2, #0
 170 0024 1A70     		strb	r2, [r3]
 186:.\Generated_Source\PSoC4/BLE.c ****     #endif  /* (CYBLE_BONDING_REQUIREMENT == CYBLE_BONDING_YES) */
 187:.\Generated_Source\PSoC4/BLE.c **** 
 188:.\Generated_Source\PSoC4/BLE.c **** }
 171              		.loc 1 188 0
 172 0026 BD46     		mov	sp, r7
 173              		@ sp needed
 174 0028 80BD     		pop	{r7, pc}
 175              	.L3:
 176 002a C046     		.align	2
 177              	.L2:
 178 002c 00000000 		.word	cyBle_eventHandlerFlag
 179 0030 00000000 		.word	cyBle_busyStatus
 180 0034 00000000 		.word	cyBle_advertisingIntervalType
 181 0038 00000000 		.word	cyBle_pendingFlashWrite
 182 003c 00000000 		.word	cyBle_peerBonding
 183              		.cfi_endproc
 184              	.LFE2:
 185              		.size	CyBle_Init, .-CyBle_Init
 186              		.section	.text.CyBle_ServiceInit,"ax",%progbits
 187              		.align	2
 188              		.global	CyBle_ServiceInit
 189              		.code	16
 190              		.thumb_func
 191              		.type	CyBle_ServiceInit, %function
 192              	CyBle_ServiceInit:
 193              	.LFB3:
 189:.\Generated_Source\PSoC4/BLE.c **** 
 190:.\Generated_Source\PSoC4/BLE.c **** 
 191:.\Generated_Source\PSoC4/BLE.c **** /******************************************************************************
 192:.\Generated_Source\PSoC4/BLE.c **** * Function Name: CyBle_ServiceInit
 193:.\Generated_Source\PSoC4/BLE.c **** ***************************************************************************//**
 194:.\Generated_Source\PSoC4/BLE.c **** * 
 195:.\Generated_Source\PSoC4/BLE.c **** *  Initializes all included services.
 196:.\Generated_Source\PSoC4/BLE.c **** * 
 197:.\Generated_Source\PSoC4/BLE.c **** * \return
 198:.\Generated_Source\PSoC4/BLE.c **** *  None
ARM GAS  C:\Users\ADMINI~1\AppData\Local\Temp\cczpe50f.s 			page 8


 199:.\Generated_Source\PSoC4/BLE.c **** * 
 200:.\Generated_Source\PSoC4/BLE.c **** ******************************************************************************/
 201:.\Generated_Source\PSoC4/BLE.c **** void CyBle_ServiceInit(void)
 202:.\Generated_Source\PSoC4/BLE.c **** {
 194              		.loc 1 202 0
 195              		.cfi_startproc
 196 0000 80B5     		push	{r7, lr}
 197              		.cfi_def_cfa_offset 8
 198              		.cfi_offset 7, -8
 199              		.cfi_offset 14, -4
 200 0002 00AF     		add	r7, sp, #0
 201              		.cfi_def_cfa_register 7
 203:.\Generated_Source\PSoC4/BLE.c ****     #if(CYBLE_GATT_ROLE_CLIENT)
 204:.\Generated_Source\PSoC4/BLE.c ****         /* Check service range before clearing to support partial discovery */
 205:.\Generated_Source\PSoC4/BLE.c ****         if(cyBle_serverInfo[CYBLE_SRVI_GAP].range.startHandle == CYBLE_GATT_INVALID_ATTR_HANDLE_VAL
 206:.\Generated_Source\PSoC4/BLE.c ****         {
 207:.\Generated_Source\PSoC4/BLE.c ****             (void)memset(&cyBle_gapc, 0, sizeof(cyBle_gapc));
 208:.\Generated_Source\PSoC4/BLE.c ****         }
 209:.\Generated_Source\PSoC4/BLE.c ****         if(cyBle_serverInfo[CYBLE_SRVI_GATT].range.startHandle == CYBLE_GATT_INVALID_ATTR_HANDLE_VA
 210:.\Generated_Source\PSoC4/BLE.c ****         {
 211:.\Generated_Source\PSoC4/BLE.c ****             (void)memset(&cyBle_gattc, 0, sizeof(cyBle_gattc));
 212:.\Generated_Source\PSoC4/BLE.c ****         }
 213:.\Generated_Source\PSoC4/BLE.c ****     #endif /* CYBLE_GATT_ROLE_CLIENT */
 214:.\Generated_Source\PSoC4/BLE.c ****     
 215:.\Generated_Source\PSoC4/BLE.c **** 	#ifdef CYBLE_ANCS
 216:.\Generated_Source\PSoC4/BLE.c ****         CyBle_AncsInit();
 217:.\Generated_Source\PSoC4/BLE.c ****     #endif /* CYBLE_ANCS */
 218:.\Generated_Source\PSoC4/BLE.c **** 	
 219:.\Generated_Source\PSoC4/BLE.c ****     #ifdef CYBLE_ANS
 220:.\Generated_Source\PSoC4/BLE.c ****         CyBle_AnsInit();
 221:.\Generated_Source\PSoC4/BLE.c ****     #endif /* CYBLE_ANS */
 222:.\Generated_Source\PSoC4/BLE.c ****     
 223:.\Generated_Source\PSoC4/BLE.c ****     #ifdef CYBLE_BAS
 224:.\Generated_Source\PSoC4/BLE.c ****         CyBle_BasInit();
 225:.\Generated_Source\PSoC4/BLE.c ****     #endif /* CYBLE_BAS */
 226:.\Generated_Source\PSoC4/BLE.c ****     
 227:.\Generated_Source\PSoC4/BLE.c ****     #ifdef CYBLE_BCS
 228:.\Generated_Source\PSoC4/BLE.c ****         CyBle_BcsInit();
 229:.\Generated_Source\PSoC4/BLE.c ****     #endif /* CYBLE_BCS */
 230:.\Generated_Source\PSoC4/BLE.c **** 
 231:.\Generated_Source\PSoC4/BLE.c ****     #ifdef CYBLE_BLS
 232:.\Generated_Source\PSoC4/BLE.c ****         CyBle_BlsInit();
 233:.\Generated_Source\PSoC4/BLE.c ****     #endif /* CYBLE_BLS */
 234:.\Generated_Source\PSoC4/BLE.c ****     
 235:.\Generated_Source\PSoC4/BLE.c ****     #ifdef CYBLE_BMS
 236:.\Generated_Source\PSoC4/BLE.c ****         CyBle_BmsInit();
 237:.\Generated_Source\PSoC4/BLE.c ****     #endif /* CYBLE_BMS */
 238:.\Generated_Source\PSoC4/BLE.c ****     
 239:.\Generated_Source\PSoC4/BLE.c ****     #ifdef CYBLE_CGMS
 240:.\Generated_Source\PSoC4/BLE.c ****         CyBle_CgmsInit();
 241:.\Generated_Source\PSoC4/BLE.c ****     #endif /* CYBLE_CGMS */
 242:.\Generated_Source\PSoC4/BLE.c **** 
 243:.\Generated_Source\PSoC4/BLE.c ****     #ifdef CYBLE_CPS
 244:.\Generated_Source\PSoC4/BLE.c ****         CyBle_CpsInit();
 245:.\Generated_Source\PSoC4/BLE.c ****     #endif /* CYBLE_CPS */
 246:.\Generated_Source\PSoC4/BLE.c **** 
 247:.\Generated_Source\PSoC4/BLE.c ****     #ifdef CYBLE_CSCS
ARM GAS  C:\Users\ADMINI~1\AppData\Local\Temp\cczpe50f.s 			page 9


 248:.\Generated_Source\PSoC4/BLE.c ****         CyBle_CscsInit();
 249:.\Generated_Source\PSoC4/BLE.c ****     #endif /* CYBLE_CSCS */
 250:.\Generated_Source\PSoC4/BLE.c ****     
 251:.\Generated_Source\PSoC4/BLE.c ****     #ifdef CYBLE_CTS
 252:.\Generated_Source\PSoC4/BLE.c ****         CyBle_CtsInit();
 253:.\Generated_Source\PSoC4/BLE.c ****     #endif /* CYBLE_CTS */
 254:.\Generated_Source\PSoC4/BLE.c **** 
 255:.\Generated_Source\PSoC4/BLE.c ****     #ifdef CYBLE_CUSTOM
 256:.\Generated_Source\PSoC4/BLE.c ****         CyBle_CustomInit();
 202              		.loc 1 256 0
 203 0004 FFF7FEFF 		bl	CyBle_CustomInit
 257:.\Generated_Source\PSoC4/BLE.c ****     #endif /* CYBLE_CUSTOM */
 258:.\Generated_Source\PSoC4/BLE.c **** 
 259:.\Generated_Source\PSoC4/BLE.c ****     #ifdef CYBLE_DIS
 260:.\Generated_Source\PSoC4/BLE.c ****         CyBle_DisInit();
 261:.\Generated_Source\PSoC4/BLE.c ****     #endif /* CYBLE_DIS */
 262:.\Generated_Source\PSoC4/BLE.c **** 
 263:.\Generated_Source\PSoC4/BLE.c ****     #ifdef CYBLE_ESS
 264:.\Generated_Source\PSoC4/BLE.c ****         CyBle_EssInit();
 265:.\Generated_Source\PSoC4/BLE.c ****     #endif /* CYBLE_ESS */
 266:.\Generated_Source\PSoC4/BLE.c ****     
 267:.\Generated_Source\PSoC4/BLE.c ****     #ifdef CYBLE_GLS
 268:.\Generated_Source\PSoC4/BLE.c ****         CyBle_GlsInit();
 269:.\Generated_Source\PSoC4/BLE.c ****     #endif /* CYBLE_GLS */
 270:.\Generated_Source\PSoC4/BLE.c ****     
 271:.\Generated_Source\PSoC4/BLE.c ****     #ifdef CYBLE_HIDS
 272:.\Generated_Source\PSoC4/BLE.c ****         CyBle_HidsInit();
 273:.\Generated_Source\PSoC4/BLE.c ****     #endif /* CYBLE_HIDS */
 274:.\Generated_Source\PSoC4/BLE.c **** 
 275:.\Generated_Source\PSoC4/BLE.c ****     #ifdef CYBLE_HPS
 276:.\Generated_Source\PSoC4/BLE.c ****         CyBle_HpsInit();
 277:.\Generated_Source\PSoC4/BLE.c ****     #endif /* CYBLE_HPS */
 278:.\Generated_Source\PSoC4/BLE.c **** 
 279:.\Generated_Source\PSoC4/BLE.c ****     #ifdef CYBLE_HRS
 280:.\Generated_Source\PSoC4/BLE.c ****         CyBle_HrsInit();
 281:.\Generated_Source\PSoC4/BLE.c ****     #endif /* CYBLE_HRS */
 282:.\Generated_Source\PSoC4/BLE.c ****     
 283:.\Generated_Source\PSoC4/BLE.c ****     #ifdef CYBLE_HTS
 284:.\Generated_Source\PSoC4/BLE.c ****         CyBle_HtsInit();
 285:.\Generated_Source\PSoC4/BLE.c ****     #endif /* CYBLE_RSCS */
 286:.\Generated_Source\PSoC4/BLE.c **** 
 287:.\Generated_Source\PSoC4/BLE.c ****     #ifdef CYBLE_IAS
 288:.\Generated_Source\PSoC4/BLE.c ****         CyBle_IasInit();
 289:.\Generated_Source\PSoC4/BLE.c ****     #endif /* CYBLE_IAS */
 290:.\Generated_Source\PSoC4/BLE.c **** 
 291:.\Generated_Source\PSoC4/BLE.c ****     #ifdef CYBLE_IPS
 292:.\Generated_Source\PSoC4/BLE.c ****         CyBle_IpsInit();
 293:.\Generated_Source\PSoC4/BLE.c ****     #endif /* CYBLE_IPS */
 294:.\Generated_Source\PSoC4/BLE.c ****     
 295:.\Generated_Source\PSoC4/BLE.c ****     #ifdef CYBLE_LLS
 296:.\Generated_Source\PSoC4/BLE.c ****         CyBle_LlsInit();
 297:.\Generated_Source\PSoC4/BLE.c ****     #endif /* CYBLE_LLS */
 298:.\Generated_Source\PSoC4/BLE.c **** 
 299:.\Generated_Source\PSoC4/BLE.c ****     #ifdef CYBLE_LNS
 300:.\Generated_Source\PSoC4/BLE.c ****         CyBle_LnsInit();
 301:.\Generated_Source\PSoC4/BLE.c ****     #endif /* CYBLE_LNS */
 302:.\Generated_Source\PSoC4/BLE.c ****     
ARM GAS  C:\Users\ADMINI~1\AppData\Local\Temp\cczpe50f.s 			page 10


 303:.\Generated_Source\PSoC4/BLE.c ****     #ifdef CYBLE_NDCS
 304:.\Generated_Source\PSoC4/BLE.c ****         CyBle_NdcsInit();
 305:.\Generated_Source\PSoC4/BLE.c ****     #endif /* CYBLE_NDCS */
 306:.\Generated_Source\PSoC4/BLE.c ****     
 307:.\Generated_Source\PSoC4/BLE.c ****     #ifdef CYBLE_PASS
 308:.\Generated_Source\PSoC4/BLE.c ****         CyBle_PassInit();
 309:.\Generated_Source\PSoC4/BLE.c ****     #endif /* CYBLE_PASS */
 310:.\Generated_Source\PSoC4/BLE.c ****     
 311:.\Generated_Source\PSoC4/BLE.c ****     #ifdef CYBLE_RSCS
 312:.\Generated_Source\PSoC4/BLE.c ****         CyBle_RscsInit();
 313:.\Generated_Source\PSoC4/BLE.c ****     #endif /* CYBLE_RSCS */
 314:.\Generated_Source\PSoC4/BLE.c **** 
 315:.\Generated_Source\PSoC4/BLE.c ****     #ifdef CYBLE_RTUS
 316:.\Generated_Source\PSoC4/BLE.c ****         CyBle_RtusInit();
 317:.\Generated_Source\PSoC4/BLE.c ****     #endif /* CYBLE_RTUS */
 318:.\Generated_Source\PSoC4/BLE.c **** 
 319:.\Generated_Source\PSoC4/BLE.c ****     #ifdef CYBLE_SCPS
 320:.\Generated_Source\PSoC4/BLE.c ****         CyBle_ScpsInit();
 321:.\Generated_Source\PSoC4/BLE.c ****     #endif /* CYBLE_SCPS */
 322:.\Generated_Source\PSoC4/BLE.c ****     
 323:.\Generated_Source\PSoC4/BLE.c ****     #ifdef CYBLE_TPS
 324:.\Generated_Source\PSoC4/BLE.c ****         CyBle_TpsInit();
 325:.\Generated_Source\PSoC4/BLE.c ****     #endif /* CYBLE_TPS */
 326:.\Generated_Source\PSoC4/BLE.c ****     
 327:.\Generated_Source\PSoC4/BLE.c ****     #ifdef CYBLE_UDS
 328:.\Generated_Source\PSoC4/BLE.c ****         CyBle_UdsInit();
 329:.\Generated_Source\PSoC4/BLE.c ****     #endif /* CYBLE_UDS */
 330:.\Generated_Source\PSoC4/BLE.c **** 
 331:.\Generated_Source\PSoC4/BLE.c ****     #ifdef CYBLE_WPTS
 332:.\Generated_Source\PSoC4/BLE.c ****         CyBle_WptsInit();
 333:.\Generated_Source\PSoC4/BLE.c ****     #endif /* CYBLE_WPTS */
 334:.\Generated_Source\PSoC4/BLE.c **** 
 335:.\Generated_Source\PSoC4/BLE.c ****     #ifdef CYBLE_WSS
 336:.\Generated_Source\PSoC4/BLE.c ****         CyBle_WssInit();
 337:.\Generated_Source\PSoC4/BLE.c ****     #endif /* CYBLE_WSS */
 338:.\Generated_Source\PSoC4/BLE.c **** }
 204              		.loc 1 338 0
 205 0008 BD46     		mov	sp, r7
 206              		@ sp needed
 207 000a 80BD     		pop	{r7, pc}
 208              		.cfi_endproc
 209              	.LFE3:
 210              		.size	CyBle_ServiceInit, .-CyBle_ServiceInit
 211              		.section	.rodata
 212              		.align	2
 213              	.LC0:
 214 0000 2400     		.short	36
 215 0002 03       		.byte	3
 216 0003 00       		.space	1
 217 0004 3000     		.short	48
 218 0006 01       		.byte	1
 219 0007 00       		.space	1
 220 0008 2800     		.short	40
 221 000a 02       		.byte	2
 222 000b 00       		.space	1
 223 000c 2400     		.short	36
 224 000e 01       		.byte	1
ARM GAS  C:\Users\ADMINI~1\AppData\Local\Temp\cczpe50f.s 			page 11


 225 000f 00       		.space	1
 226 0010 2400     		.short	36
 227 0012 01       		.byte	1
 228 0013 00       		.space	1
 229              		.section	.text.CyBle_Start,"ax",%progbits
 230              		.align	2
 231              		.global	CyBle_Start
 232              		.code	16
 233              		.thumb_func
 234              		.type	CyBle_Start, %function
 235              	CyBle_Start:
 236              	.LFB4:
 339:.\Generated_Source\PSoC4/BLE.c **** 
 340:.\Generated_Source\PSoC4/BLE.c **** 
 341:.\Generated_Source\PSoC4/BLE.c **** /******************************************************************************
 342:.\Generated_Source\PSoC4/BLE.c **** * Function Name: CyBle_Start
 343:.\Generated_Source\PSoC4/BLE.c **** ***************************************************************************//**
 344:.\Generated_Source\PSoC4/BLE.c **** * 
 345:.\Generated_Source\PSoC4/BLE.c **** *  This function initializes the BLE Stack, which consists of the BLE Stack 
 346:.\Generated_Source\PSoC4/BLE.c **** *  Manager, BLE Controller, and BLE Host modules. It takes care of initializing
 347:.\Generated_Source\PSoC4/BLE.c **** *  the Profile layer, schedulers, Timer and other platform related
 348:.\Generated_Source\PSoC4/BLE.c **** *  resources required for the BLE component. It also registers the callback 
 349:.\Generated_Source\PSoC4/BLE.c **** *  function for BLE events that will be registered in the BLE stack.
 350:.\Generated_Source\PSoC4/BLE.c **** * 
 351:.\Generated_Source\PSoC4/BLE.c **** *  Note that this function does not reset the BLE Stack.
 352:.\Generated_Source\PSoC4/BLE.c **** * 
 353:.\Generated_Source\PSoC4/BLE.c **** *  For HCI-Mode of operation, this function will not initialize the BLE Host 
 354:.\Generated_Source\PSoC4/BLE.c **** *  module.
 355:.\Generated_Source\PSoC4/BLE.c **** * 
 356:.\Generated_Source\PSoC4/BLE.c **** *  Calling this function results in the generation of CYBLE_EVT_STACK_ON event
 357:.\Generated_Source\PSoC4/BLE.c **** *  on successful initialization of the BLE Stack.
 358:.\Generated_Source\PSoC4/BLE.c **** * 
 359:.\Generated_Source\PSoC4/BLE.c **** *  \param callbackFunc: Event callback function to receive events from BLE stack.
 360:.\Generated_Source\PSoC4/BLE.c **** *   CYBLE_CALLBACK_T is a function pointer type.
 361:.\Generated_Source\PSoC4/BLE.c **** * 
 362:.\Generated_Source\PSoC4/BLE.c **** * \return
 363:.\Generated_Source\PSoC4/BLE.c **** *  CYBLE_API_RESULT_T : Return value indicates if the function succeeded or 
 364:.\Generated_Source\PSoC4/BLE.c **** *  failed. Following are the possible error codes.
 365:.\Generated_Source\PSoC4/BLE.c **** * 
 366:.\Generated_Source\PSoC4/BLE.c **** *   <table>
 367:.\Generated_Source\PSoC4/BLE.c **** *  	  <tr>
 368:.\Generated_Source\PSoC4/BLE.c **** *       <th>Error codes</th>
 369:.\Generated_Source\PSoC4/BLE.c **** *       <th>Description</th>
 370:.\Generated_Source\PSoC4/BLE.c **** *     </tr>
 371:.\Generated_Source\PSoC4/BLE.c **** *     <tr>
 372:.\Generated_Source\PSoC4/BLE.c **** *       <td>CYBLE_ERROR_OK</td>
 373:.\Generated_Source\PSoC4/BLE.c **** *       <td>On successful operation.</td>
 374:.\Generated_Source\PSoC4/BLE.c **** *     </tr>
 375:.\Generated_Source\PSoC4/BLE.c **** *     <tr>
 376:.\Generated_Source\PSoC4/BLE.c **** *       <td>CYBLE_ERROR_INVALID_PARAMETER</td>
 377:.\Generated_Source\PSoC4/BLE.c **** *       <td>On passing a NULL pointer to the function when the BLE stack is not built in HCI mode. 
 378:.\Generated_Source\PSoC4/BLE.c **** *			CYBLE_ERROR_INVALID_PARAMETER is never returned in HCI mode.</td>
 379:.\Generated_Source\PSoC4/BLE.c **** *     </tr>
 380:.\Generated_Source\PSoC4/BLE.c **** *     <tr>
 381:.\Generated_Source\PSoC4/BLE.c **** *       <td>CYBLE_ERROR_REPEATED_ATTEMPTS</td>
 382:.\Generated_Source\PSoC4/BLE.c **** *       <td>On invoking this function more than once without calling CyBle_Shutdown() 
 383:.\Generated_Source\PSoC4/BLE.c **** *           function between calls to this function.</td>
ARM GAS  C:\Users\ADMINI~1\AppData\Local\Temp\cczpe50f.s 			page 12


 384:.\Generated_Source\PSoC4/BLE.c **** *     </tr>
 385:.\Generated_Source\PSoC4/BLE.c **** *     <tr>
 386:.\Generated_Source\PSoC4/BLE.c **** *       <td>CYBLE_ERROR_MEMORY_ALLOCATION_FAILED</td>
 387:.\Generated_Source\PSoC4/BLE.c **** *       <td>There is insufficient memory available.</td>
 388:.\Generated_Source\PSoC4/BLE.c **** *     </tr>
 389:.\Generated_Source\PSoC4/BLE.c **** *   </table>
 390:.\Generated_Source\PSoC4/BLE.c **** * 
 391:.\Generated_Source\PSoC4/BLE.c **** *  \globalvars
 392:.\Generated_Source\PSoC4/BLE.c **** *   The CyBle_initVar variable is used to indicate initial
 393:.\Generated_Source\PSoC4/BLE.c **** *   configuration of this component. The variable is initialized to zero (0u)
 394:.\Generated_Source\PSoC4/BLE.c **** *   and set to one (1u) the first time CyBle_Start() is called. This
 395:.\Generated_Source\PSoC4/BLE.c **** *   allows for component initialization without re-initialization in all
 396:.\Generated_Source\PSoC4/BLE.c **** *   subsequent calls to the CyBle_Start() routine.
 397:.\Generated_Source\PSoC4/BLE.c **** * 
 398:.\Generated_Source\PSoC4/BLE.c **** ******************************************************************************/
 399:.\Generated_Source\PSoC4/BLE.c **** CYBLE_API_RESULT_T CyBle_Start(CYBLE_CALLBACK_T callbackFunc)
 400:.\Generated_Source\PSoC4/BLE.c **** {
 237              		.loc 1 400 0
 238              		.cfi_startproc
 239 0000 B0B5     		push	{r4, r5, r7, lr}
 240              		.cfi_def_cfa_offset 16
 241              		.cfi_offset 4, -16
 242              		.cfi_offset 5, -12
 243              		.cfi_offset 7, -8
 244              		.cfi_offset 14, -4
 245 0002 94B0     		sub	sp, sp, #80
 246              		.cfi_def_cfa_offset 96
 247 0004 04AF     		add	r7, sp, #16
 248              		.cfi_def_cfa 7, 80
 249 0006 7860     		str	r0, [r7, #4]
 401:.\Generated_Source\PSoC4/BLE.c ****     CYBLE_API_RESULT_T apiResult = CYBLE_ERROR_OK;
 250              		.loc 1 401 0
 251 0008 3E23     		mov	r3, #62
 252 000a FB18     		add	r3, r7, r3
 253 000c 0022     		mov	r2, #0
 254 000e 1A80     		strh	r2, [r3]
 402:.\Generated_Source\PSoC4/BLE.c ****     
 403:.\Generated_Source\PSoC4/BLE.c ****     #if(CYBLE_MODE_PROFILE)
 404:.\Generated_Source\PSoC4/BLE.c ****     
 405:.\Generated_Source\PSoC4/BLE.c ****     CYBLE_STK_APP_DATA_BUFF_T cyBle_stackDataBuff[CYBLE_STACK_APP_MIN_POOL] = 
 255              		.loc 1 405 0
 256 0010 2823     		mov	r3, #40
 257 0012 FA18     		add	r2, r7, r3
 258 0014 3E4B     		ldr	r3, .L12
 259 0016 111C     		mov	r1, r2
 260 0018 1A1C     		mov	r2, r3
 261 001a 1423     		mov	r3, #20
 262 001c 081C     		mov	r0, r1
 263 001e 111C     		mov	r1, r2
 264 0020 1A1C     		mov	r2, r3
 265 0022 FFF7FEFF 		bl	memcpy
 406:.\Generated_Source\PSoC4/BLE.c ****     {
 407:.\Generated_Source\PSoC4/BLE.c ****         {CYBLE_GATT_MTU_PLUS_L2CAP_MEM_EXT, CYBLE_GATT_MTU_BUFF_COUNT + CYBLE_GATT_MAX_ATTR_BUFF_CO
 408:.\Generated_Source\PSoC4/BLE.c ****         {CYBLE_L2CAP_PSM_PLUS_L2CAP_MEM_EXT, CYBLE_L2CAP_PSM_COUNT},
 409:.\Generated_Source\PSoC4/BLE.c ****         {CYBLE_L2CAP_CBFC_PLUS_L2CAP_MEM_EXT, 2u * CYBLE_L2CAP_LOGICAL_CHANNEL_COUNT},
 410:.\Generated_Source\PSoC4/BLE.c ****         {CYBLE_L2CAP_MTU_PLUS_L2CAP_MEM_EXT, CYBLE_L2CAP_LOGICAL_CHANNEL_COUNT},
 411:.\Generated_Source\PSoC4/BLE.c ****         {CYBLE_L2CAP_MPS_PLUS_L2CAP_MEM_EXT, CYBLE_L2CAP_LOGICAL_CHANNEL_COUNT * (CYBLE_L2CAP_MTU_M
ARM GAS  C:\Users\ADMINI~1\AppData\Local\Temp\cczpe50f.s 			page 13


 412:.\Generated_Source\PSoC4/BLE.c ****     }; 
 413:.\Generated_Source\PSoC4/BLE.c **** 
 414:.\Generated_Source\PSoC4/BLE.c ****     #endif /* CYBLE_MODE_PROFILE */
 415:.\Generated_Source\PSoC4/BLE.c ****     
 416:.\Generated_Source\PSoC4/BLE.c ****     /* If not initialized then initialize all the required hardware and software */
 417:.\Generated_Source\PSoC4/BLE.c ****     if(cyBle_initVar == 0u)
 266              		.loc 1 417 0
 267 0026 3B4B     		ldr	r3, .L12+4
 268 0028 1B78     		ldrb	r3, [r3]
 269 002a 002B     		cmp	r3, #0
 270 002c 04D1     		bne	.L6
 418:.\Generated_Source\PSoC4/BLE.c ****     {
 419:.\Generated_Source\PSoC4/BLE.c ****         CyBle_Init();
 271              		.loc 1 419 0
 272 002e FFF7FEFF 		bl	CyBle_Init
 420:.\Generated_Source\PSoC4/BLE.c ****         cyBle_initVar = 1u;
 273              		.loc 1 420 0
 274 0032 384B     		ldr	r3, .L12+4
 275 0034 0122     		mov	r2, #1
 276 0036 1A70     		strb	r2, [r3]
 277              	.L6:
 421:.\Generated_Source\PSoC4/BLE.c ****     }
 422:.\Generated_Source\PSoC4/BLE.c ****     
 423:.\Generated_Source\PSoC4/BLE.c ****     if(callbackFunc != NULL)
 278              		.loc 1 423 0
 279 0038 7B68     		ldr	r3, [r7, #4]
 280 003a 002B     		cmp	r3, #0
 281 003c 5CD0     		beq	.L7
 424:.\Generated_Source\PSoC4/BLE.c ****     {
 425:.\Generated_Source\PSoC4/BLE.c ****         CyBle_ApplCallback = callbackFunc;
 282              		.loc 1 425 0
 283 003e 364B     		ldr	r3, .L12+8
 284 0040 7A68     		ldr	r2, [r7, #4]
 285 0042 1A60     		str	r2, [r3]
 426:.\Generated_Source\PSoC4/BLE.c ****         
 427:.\Generated_Source\PSoC4/BLE.c ****     #if(CYBLE_SHARING_MODE_EXPORT)
 428:.\Generated_Source\PSoC4/BLE.c ****         if(cyBle_stackMemoryRam == NULL)
 429:.\Generated_Source\PSoC4/BLE.c ****         {
 430:.\Generated_Source\PSoC4/BLE.c ****             cyBle_stackMemoryRam = (uint8 *)malloc(CYBLE_STACK_RAM_SIZE);
 431:.\Generated_Source\PSoC4/BLE.c ****             if(cyBle_stackMemoryRam == NULL)
 432:.\Generated_Source\PSoC4/BLE.c ****             {
 433:.\Generated_Source\PSoC4/BLE.c ****                 apiResult = CYBLE_ERROR_MEMORY_ALLOCATION_FAILED;
 434:.\Generated_Source\PSoC4/BLE.c ****             }
 435:.\Generated_Source\PSoC4/BLE.c ****         }
 436:.\Generated_Source\PSoC4/BLE.c ****     #endif /* CYBLE_SHARING_MODE_EXPORT */
 437:.\Generated_Source\PSoC4/BLE.c ****         if(apiResult == CYBLE_ERROR_OK)
 286              		.loc 1 437 0
 287 0044 3E23     		mov	r3, #62
 288 0046 FB18     		add	r3, r7, r3
 289 0048 1B88     		ldrh	r3, [r3]
 290 004a 002B     		cmp	r3, #0
 291 004c 29D1     		bne	.L8
 292              	.LBB2:
 438:.\Generated_Source\PSoC4/BLE.c ****         {
 439:.\Generated_Source\PSoC4/BLE.c ****             CYBLE_DLE_CONFIG_PARAM_T dleConfigParams;
 440:.\Generated_Source\PSoC4/BLE.c ****             CYBLE_PRIVACY_1_2_CONFIG_PARAM_T privacyConfigParams;
 441:.\Generated_Source\PSoC4/BLE.c ****             CYBLE_STACK_CONFIG_PARAM_T stackConfig;
ARM GAS  C:\Users\ADMINI~1\AppData\Local\Temp\cczpe50f.s 			page 14


 442:.\Generated_Source\PSoC4/BLE.c ****             uint16 featureHeapReq;
 443:.\Generated_Source\PSoC4/BLE.c ****             
 444:.\Generated_Source\PSoC4/BLE.c ****             stackConfig.privacyConfig = &privacyConfigParams;
 293              		.loc 1 444 0
 294 004e 1023     		mov	r3, #16
 295 0050 FB18     		add	r3, r7, r3
 296 0052 1C22     		mov	r2, #28
 297 0054 BA18     		add	r2, r7, r2
 298 0056 5A60     		str	r2, [r3, #4]
 445:.\Generated_Source\PSoC4/BLE.c ****             stackConfig.dleConfig = &dleConfigParams;
 299              		.loc 1 445 0
 300 0058 1023     		mov	r3, #16
 301 005a FB18     		add	r3, r7, r3
 302 005c 2022     		mov	r2, #32
 303 005e BA18     		add	r2, r7, r2
 304 0060 1A60     		str	r2, [r3]
 446:.\Generated_Source\PSoC4/BLE.c ****             
 447:.\Generated_Source\PSoC4/BLE.c ****             /* Configure default BLE 4.1 features and enabled 4.2 features */
 448:.\Generated_Source\PSoC4/BLE.c ****             stackConfig.feature_mask = CYBLE_DLE_FEATURE | CYBLE_LL_PRIVACY_FEATURE | 
 305              		.loc 1 448 0
 306 0062 1023     		mov	r3, #16
 307 0064 FB18     		add	r3, r7, r3
 308 0066 0022     		mov	r2, #0
 309 0068 1A81     		strh	r2, [r3, #8]
 449:.\Generated_Source\PSoC4/BLE.c ****                                        CYBLE_SECURE_CONN_FEATURE;
 450:.\Generated_Source\PSoC4/BLE.c **** 
 451:.\Generated_Source\PSoC4/BLE.c ****             /* Configure DLE */
 452:.\Generated_Source\PSoC4/BLE.c ****             dleConfigParams.dleMaxTxCapability = CYBLE_LL_MAX_TX_PAYLOAD_SIZE;
 310              		.loc 1 452 0
 311 006a 2023     		mov	r3, #32
 312 006c FB18     		add	r3, r7, r3
 313 006e 1B22     		mov	r2, #27
 314 0070 1A80     		strh	r2, [r3]
 453:.\Generated_Source\PSoC4/BLE.c ****             dleConfigParams.dleMaxRxCapability = CYBLE_LL_MAX_RX_PAYLOAD_SIZE;
 315              		.loc 1 453 0
 316 0072 2023     		mov	r3, #32
 317 0074 FB18     		add	r3, r7, r3
 318 0076 1B22     		mov	r2, #27
 319 0078 5A80     		strh	r2, [r3, #2]
 454:.\Generated_Source\PSoC4/BLE.c ****             dleConfigParams.dleNumTxBuffer = CYBLE_LL_DEFAULT_NUM_ACL_TX_PACKETS;
 320              		.loc 1 454 0
 321 007a 2023     		mov	r3, #32
 322 007c FB18     		add	r3, r7, r3
 323 007e 0422     		mov	r2, #4
 324 0080 1A71     		strb	r2, [r3, #4]
 455:.\Generated_Source\PSoC4/BLE.c ****         #if(CYBLE_DLE_FEATURE_ENABLED)
 456:.\Generated_Source\PSoC4/BLE.c ****             CyBle_EnableDleFeature();              /* Enable DLE code in stack */
 457:.\Generated_Source\PSoC4/BLE.c ****         #endif /* CYBLE_DLE_FEATURE_ENABLED */
 458:.\Generated_Source\PSoC4/BLE.c ****         
 459:.\Generated_Source\PSoC4/BLE.c ****             /* Configure LL Privacy */
 460:.\Generated_Source\PSoC4/BLE.c ****             privacyConfigParams.resolvingListSize = CYBLE_MAX_RESOLVABLE_DEVICES;
 325              		.loc 1 460 0
 326 0082 1C23     		mov	r3, #28
 327 0084 FB18     		add	r3, r7, r3
 328 0086 0022     		mov	r2, #0
 329 0088 1A70     		strb	r2, [r3]
 461:.\Generated_Source\PSoC4/BLE.c ****         #if(CYBLE_LL_PRIVACY_FEATURE_ENABLED)
ARM GAS  C:\Users\ADMINI~1\AppData\Local\Temp\cczpe50f.s 			page 15


 462:.\Generated_Source\PSoC4/BLE.c ****             CyBle_EnablePrivacyFeature();          /* Enable LL Privacy code in stack */
 463:.\Generated_Source\PSoC4/BLE.c ****         #endif /* CYBLE_LL_PRIVACY_FEATURE_ENABLED */
 464:.\Generated_Source\PSoC4/BLE.c **** 
 465:.\Generated_Source\PSoC4/BLE.c ****             apiResult = CyBle_StackSetFeatureConfig(&stackConfig, &featureHeapReq);
 330              		.loc 1 465 0
 331 008a 3E23     		mov	r3, #62
 332 008c FC18     		add	r4, r7, r3
 333 008e 1023     		mov	r3, #16
 334 0090 FA18     		add	r2, r7, r3
 335 0092 0E23     		mov	r3, #14
 336 0094 FB18     		add	r3, r7, r3
 337 0096 101C     		mov	r0, r2
 338 0098 191C     		mov	r1, r3
 339 009a FFF7FEFF 		bl	CyBle_StackSetFeatureConfig
 340 009e 031C     		mov	r3, r0
 341 00a0 2380     		strh	r3, [r4]
 342              	.L8:
 343              	.LBE2:
 466:.\Generated_Source\PSoC4/BLE.c ****             }
 467:.\Generated_Source\PSoC4/BLE.c ****     
 468:.\Generated_Source\PSoC4/BLE.c ****         if(apiResult == CYBLE_ERROR_OK)
 344              		.loc 1 468 0
 345 00a2 3E23     		mov	r3, #62
 346 00a4 FB18     		add	r3, r7, r3
 347 00a6 1B88     		ldrh	r3, [r3]
 348 00a8 002B     		cmp	r3, #0
 349 00aa 29D1     		bne	.L10
 469:.\Generated_Source\PSoC4/BLE.c ****         {
 470:.\Generated_Source\PSoC4/BLE.c ****             
 471:.\Generated_Source\PSoC4/BLE.c ****         #if(CYBLE_MODE_PROFILE)
 472:.\Generated_Source\PSoC4/BLE.c ****             #if(CYBLE_BONDING_REQUIREMENT == CYBLE_BONDING_YES)
 473:.\Generated_Source\PSoC4/BLE.c ****                 apiResult = CyBle_StackInit(&CyBle_EventHandler, cyBle_stackMemoryRam, 
 350              		.loc 1 473 0
 351 00ac 3E23     		mov	r3, #62
 352 00ae FC18     		add	r4, r7, r3
 353 00b0 1A48     		ldr	r0, .L12+12
 354 00b2 1B49     		ldr	r1, .L12+16
 355 00b4 AE23     		mov	r3, #174
 356 00b6 1A01     		lsl	r2, r3, #4
 357 00b8 2823     		mov	r3, #40
 358 00ba FD18     		add	r5, r7, r3
 359 00bc 0523     		mov	r3, #5
 360 00be 0093     		str	r3, [sp]
 361 00c0 184B     		ldr	r3, .L12+20
 362 00c2 0193     		str	r3, [sp, #4]
 363 00c4 184B     		ldr	r3, .L12+24
 364 00c6 0293     		str	r3, [sp, #8]
 365 00c8 2B1C     		mov	r3, r5
 366 00ca FFF7FEFF 		bl	CyBle_StackInit
 367 00ce 031C     		mov	r3, r0
 368 00d0 2380     		strh	r3, [r4]
 474:.\Generated_Source\PSoC4/BLE.c ****                     CYBLE_STACK_RAM_SIZE - CYBLE_GATT_PREPARE_WRITE_BUFF_LEN, cyBle_stackDataBuff, 
 475:.\Generated_Source\PSoC4/BLE.c ****                     CYBLE_STACK_APP_MIN_POOL, cyBle_flashStorage.stackFlashptr, CYBLE_STACK_FLASH_S
 476:.\Generated_Source\PSoC4/BLE.c ****             #else
 477:.\Generated_Source\PSoC4/BLE.c ****                 apiResult = CyBle_StackInit(&CyBle_EventHandler, cyBle_stackMemoryRam, 
 478:.\Generated_Source\PSoC4/BLE.c ****                     CYBLE_STACK_RAM_SIZE - CYBLE_GATT_PREPARE_WRITE_BUFF_LEN, cyBle_stackDataBuff, 
 479:.\Generated_Source\PSoC4/BLE.c ****                     CYBLE_STACK_APP_MIN_POOL, NULL, 0u);
ARM GAS  C:\Users\ADMINI~1\AppData\Local\Temp\cczpe50f.s 			page 16


 480:.\Generated_Source\PSoC4/BLE.c ****             #endif  /* CYBLE_BONDING_REQUIREMENT == CYBLE_BONDING_YES */
 481:.\Generated_Source\PSoC4/BLE.c ****         #else
 482:.\Generated_Source\PSoC4/BLE.c ****             apiResult = CyBle_StackInit(&CyBle_EventHandler, cyBle_stackMemoryRam, CYBLE_STACK_RAM_
 483:.\Generated_Source\PSoC4/BLE.c ****                 NULL, 0u, NULL, 0u);
 484:.\Generated_Source\PSoC4/BLE.c ****         #endif /* CYBLE_MODE_PROFILE */
 485:.\Generated_Source\PSoC4/BLE.c **** 
 486:.\Generated_Source\PSoC4/BLE.c ****             if(apiResult == CYBLE_ERROR_OK)
 369              		.loc 1 486 0
 370 00d2 3E23     		mov	r3, #62
 371 00d4 FB18     		add	r3, r7, r3
 372 00d6 1B88     		ldrh	r3, [r3]
 373 00d8 002B     		cmp	r3, #0
 374 00da 11D1     		bne	.L10
 487:.\Generated_Source\PSoC4/BLE.c ****             {
 488:.\Generated_Source\PSoC4/BLE.c ****                 CyBle_SetState(CYBLE_STATE_INITIALIZING);
 375              		.loc 1 488 0
 376 00dc 134B     		ldr	r3, .L12+28
 377 00de 0122     		mov	r2, #1
 378 00e0 1A70     		strb	r2, [r3]
 489:.\Generated_Source\PSoC4/BLE.c ****                 
 490:.\Generated_Source\PSoC4/BLE.c ****             #if (CYBLE_GATT_ROLE_CLIENT)
 491:.\Generated_Source\PSoC4/BLE.c ****                 CyBle_SetClientState(CYBLE_CLIENT_STATE_DISCONNECTED);
 492:.\Generated_Source\PSoC4/BLE.c ****             #endif /* CYBLE_GATT_ROLE_CLIENT */
 493:.\Generated_Source\PSoC4/BLE.c ****                 
 494:.\Generated_Source\PSoC4/BLE.c ****             #if(CYBLE_GATT_ROLE_SERVER)
 495:.\Generated_Source\PSoC4/BLE.c ****                 apiResult = CyBle_GattsDbRegister(cyBle_gattDB, CYBLE_GATT_DB_INDEX_COUNT, CYBLE_GA
 379              		.loc 1 495 0
 380 00e2 3E23     		mov	r3, #62
 381 00e4 FC18     		add	r4, r7, r3
 382 00e6 124B     		ldr	r3, .L12+32
 383 00e8 181C     		mov	r0, r3
 384 00ea 1321     		mov	r1, #19
 385 00ec 1722     		mov	r2, #23
 386 00ee FFF7FEFF 		bl	CyBle_GattsDbRegister
 387 00f2 031C     		mov	r3, r0
 388 00f4 2380     		strh	r3, [r4]
 389 00f6 03E0     		b	.L10
 390              	.L7:
 496:.\Generated_Source\PSoC4/BLE.c ****             #endif /* CYBLE_GATT_ROLE_SERVER */
 497:.\Generated_Source\PSoC4/BLE.c ****             }
 498:.\Generated_Source\PSoC4/BLE.c ****         }
 499:.\Generated_Source\PSoC4/BLE.c ****     }
 500:.\Generated_Source\PSoC4/BLE.c ****     else
 501:.\Generated_Source\PSoC4/BLE.c ****     {
 502:.\Generated_Source\PSoC4/BLE.c ****         apiResult = CYBLE_ERROR_INVALID_PARAMETER;
 391              		.loc 1 502 0
 392 00f8 3E23     		mov	r3, #62
 393 00fa FB18     		add	r3, r7, r3
 394 00fc 0122     		mov	r2, #1
 395 00fe 1A80     		strh	r2, [r3]
 396              	.L10:
 503:.\Generated_Source\PSoC4/BLE.c ****     }
 504:.\Generated_Source\PSoC4/BLE.c **** 
 505:.\Generated_Source\PSoC4/BLE.c ****     return (apiResult);
 397              		.loc 1 505 0
 398 0100 3E23     		mov	r3, #62
 399 0102 FB18     		add	r3, r7, r3
ARM GAS  C:\Users\ADMINI~1\AppData\Local\Temp\cczpe50f.s 			page 17


 400 0104 1B88     		ldrh	r3, [r3]
 506:.\Generated_Source\PSoC4/BLE.c **** }
 401              		.loc 1 506 0
 402 0106 181C     		mov	r0, r3
 403 0108 BD46     		mov	sp, r7
 404 010a 10B0     		add	sp, sp, #64
 405              		@ sp needed
 406 010c B0BD     		pop	{r4, r5, r7, pc}
 407              	.L13:
 408 010e C046     		.align	2
 409              	.L12:
 410 0110 00000000 		.word	.LC0
 411 0114 00000000 		.word	cyBle_initVar
 412 0118 00000000 		.word	CyBle_ApplCallback
 413 011c 00000000 		.word	CyBle_EventHandler
 414 0120 00000000 		.word	cyBle_stackMemoryRam
 415 0124 00000000 		.word	cyBle_flashStorage
 416 0128 79020000 		.word	633
 417 012c 00000000 		.word	cyBle_state
 418 0130 00000000 		.word	cyBle_gattDB
 419              		.cfi_endproc
 420              	.LFE4:
 421              		.size	CyBle_Start, .-CyBle_Start
 422              		.section	.text.CyBle_Stop,"ax",%progbits
 423              		.align	2
 424              		.global	CyBle_Stop
 425              		.code	16
 426              		.thumb_func
 427              		.type	CyBle_Stop, %function
 428              	CyBle_Stop:
 429              	.LFB5:
 507:.\Generated_Source\PSoC4/BLE.c **** 
 508:.\Generated_Source\PSoC4/BLE.c **** 
 509:.\Generated_Source\PSoC4/BLE.c **** /******************************************************************************
 510:.\Generated_Source\PSoC4/BLE.c **** * Function Name: CyBle_Stop
 511:.\Generated_Source\PSoC4/BLE.c **** ***************************************************************************//**
 512:.\Generated_Source\PSoC4/BLE.c **** * 
 513:.\Generated_Source\PSoC4/BLE.c **** *  This function stops any ongoing operation in the BLE Stack and forces the 
 514:.\Generated_Source\PSoC4/BLE.c **** *  BLE Stack to shut down. The only function that can be called after calling
 515:.\Generated_Source\PSoC4/BLE.c **** *  this function is CyBle_Start(). 
 516:.\Generated_Source\PSoC4/BLE.c **** * 
 517:.\Generated_Source\PSoC4/BLE.c **** * \return
 518:.\Generated_Source\PSoC4/BLE.c **** *  None
 519:.\Generated_Source\PSoC4/BLE.c **** * 
 520:.\Generated_Source\PSoC4/BLE.c **** ******************************************************************************/
 521:.\Generated_Source\PSoC4/BLE.c **** void CyBle_Stop(void)
 522:.\Generated_Source\PSoC4/BLE.c **** {
 430              		.loc 1 522 0
 431              		.cfi_startproc
 432 0000 80B5     		push	{r7, lr}
 433              		.cfi_def_cfa_offset 8
 434              		.cfi_offset 7, -8
 435              		.cfi_offset 14, -4
 436 0002 00AF     		add	r7, sp, #0
 437              		.cfi_def_cfa_register 7
 523:.\Generated_Source\PSoC4/BLE.c ****     CyBle_Shutdown();                         /* Stop all ongoing activities */
 438              		.loc 1 523 0
ARM GAS  C:\Users\ADMINI~1\AppData\Local\Temp\cczpe50f.s 			page 18


 439 0004 FFF7FEFF 		bl	CyBle_Shutdown
 524:.\Generated_Source\PSoC4/BLE.c ****     CyBle_SetState(CYBLE_STATE_STOPPED);
 440              		.loc 1 524 0
 441 0008 024B     		ldr	r3, .L15
 442 000a 0022     		mov	r2, #0
 443 000c 1A70     		strb	r2, [r3]
 525:.\Generated_Source\PSoC4/BLE.c ****     #if(CYBLE_SHARING_MODE_EXPORT)
 526:.\Generated_Source\PSoC4/BLE.c ****         if(cyBle_stackMemoryRam != NULL)
 527:.\Generated_Source\PSoC4/BLE.c ****         {
 528:.\Generated_Source\PSoC4/BLE.c ****             free(cyBle_stackMemoryRam);
 529:.\Generated_Source\PSoC4/BLE.c ****         }
 530:.\Generated_Source\PSoC4/BLE.c ****     #endif /* CYBLE_SHARING_MODE_EXPORT */
 531:.\Generated_Source\PSoC4/BLE.c **** }
 444              		.loc 1 531 0
 445 000e BD46     		mov	sp, r7
 446              		@ sp needed
 447 0010 80BD     		pop	{r7, pc}
 448              	.L16:
 449 0012 C046     		.align	2
 450              	.L15:
 451 0014 00000000 		.word	cyBle_state
 452              		.cfi_endproc
 453              	.LFE5:
 454              		.size	CyBle_Stop, .-CyBle_Stop
 455              		.section	.text.CyBle_StoreBondingData,"ax",%progbits
 456              		.align	2
 457              		.global	CyBle_StoreBondingData
 458              		.code	16
 459              		.thumb_func
 460              		.type	CyBle_StoreBondingData, %function
 461              	CyBle_StoreBondingData:
 462              	.LFB6:
 532:.\Generated_Source\PSoC4/BLE.c **** 
 533:.\Generated_Source\PSoC4/BLE.c **** 
 534:.\Generated_Source\PSoC4/BLE.c **** #if((CYBLE_GAP_ROLE_PERIPHERAL || CYBLE_GAP_ROLE_CENTRAL) && (CYBLE_BONDING_REQUIREMENT == CYBLE_BO
 535:.\Generated_Source\PSoC4/BLE.c **** 
 536:.\Generated_Source\PSoC4/BLE.c ****     
 537:.\Generated_Source\PSoC4/BLE.c **** /******************************************************************************
 538:.\Generated_Source\PSoC4/BLE.c **** * Function Name: CyBle_StoreBondingData
 539:.\Generated_Source\PSoC4/BLE.c **** ***************************************************************************//**
 540:.\Generated_Source\PSoC4/BLE.c **** * 
 541:.\Generated_Source\PSoC4/BLE.c **** *  This function writes the new bonding data from RAM to the dedicated Flash 
 542:.\Generated_Source\PSoC4/BLE.c **** *  location as defined by the component. It performs data comparing between RAM
 543:.\Generated_Source\PSoC4/BLE.c **** *  and Flash before writing to Flash. If there is no change between RAM and Flash
 544:.\Generated_Source\PSoC4/BLE.c **** *  data, then no write is performed. It writes only one flash row in one call.
 545:.\Generated_Source\PSoC4/BLE.c **** *  Application should keep calling this function till API return CYBLE_ERROR_OK. 
 546:.\Generated_Source\PSoC4/BLE.c **** *  This function is available only when Bonding requirement is selected in
 547:.\Generated_Source\PSoC4/BLE.c **** *  Security settings.    
 548:.\Generated_Source\PSoC4/BLE.c **** * 
 549:.\Generated_Source\PSoC4/BLE.c **** *  \param isForceWrite:  If value is set to 0, then stack will check if flash write 
 550:.\Generated_Source\PSoC4/BLE.c **** *                 is permissible. 
 551:.\Generated_Source\PSoC4/BLE.c **** *  
 552:.\Generated_Source\PSoC4/BLE.c **** * \return
 553:.\Generated_Source\PSoC4/BLE.c **** *  Return value is of type CYBLE_API_RESULT_T.
 554:.\Generated_Source\PSoC4/BLE.c **** *
 555:.\Generated_Source\PSoC4/BLE.c **** *   Errors codes                         | Description
 556:.\Generated_Source\PSoC4/BLE.c **** *   ----------------------------------   | ------------------------------------
ARM GAS  C:\Users\ADMINI~1\AppData\Local\Temp\cczpe50f.s 			page 19


 557:.\Generated_Source\PSoC4/BLE.c **** *   CYBLE_ERROR_OK                       | On successful operation
 558:.\Generated_Source\PSoC4/BLE.c **** *   CYBLE_ERROR_FLASH_WRITE_NOT_PERMITED | Flash Write is not complete
 559:.\Generated_Source\PSoC4/BLE.c **** *    
 560:.\Generated_Source\PSoC4/BLE.c **** *  \sideeffect
 561:.\Generated_Source\PSoC4/BLE.c **** *   For BLE devices with 128K of Flash memory this API will automatically 
 562:.\Generated_Source\PSoC4/BLE.c **** *   modify the clock settings for the device.
 563:.\Generated_Source\PSoC4/BLE.c **** *   Writing to flash requires changes to be done to the IMO (set to 48 MHz)
 564:.\Generated_Source\PSoC4/BLE.c **** *   and HFCLK (source set to IMO) settings. The configuration is restored before
 565:.\Generated_Source\PSoC4/BLE.c **** *   returning. This will impact the operation of most of the hardware in the
 566:.\Generated_Source\PSoC4/BLE.c **** *   device.
 567:.\Generated_Source\PSoC4/BLE.c **** * 
 568:.\Generated_Source\PSoC4/BLE.c **** *  \globalvars
 569:.\Generated_Source\PSoC4/BLE.c **** *   The cyBle_pendingFlashWrite variable is used to detect status
 570:.\Generated_Source\PSoC4/BLE.c **** *   of pending write to flash operation for stack data and CCCD.
 571:.\Generated_Source\PSoC4/BLE.c **** *   This API automatically clears pending bits after write operation complete.
 572:.\Generated_Source\PSoC4/BLE.c **** *     
 573:.\Generated_Source\PSoC4/BLE.c **** ******************************************************************************/
 574:.\Generated_Source\PSoC4/BLE.c **** CYBLE_API_RESULT_T CyBle_StoreBondingData(uint8 isForceWrite)
 575:.\Generated_Source\PSoC4/BLE.c **** {
 463              		.loc 1 575 0
 464              		.cfi_startproc
 465 0000 90B5     		push	{r4, r7, lr}
 466              		.cfi_def_cfa_offset 12
 467              		.cfi_offset 4, -12
 468              		.cfi_offset 7, -8
 469              		.cfi_offset 14, -4
 470 0002 8BB0     		sub	sp, sp, #44
 471              		.cfi_def_cfa_offset 56
 472 0004 00AF     		add	r7, sp, #0
 473              		.cfi_def_cfa_register 7
 474 0006 021C     		mov	r2, r0
 475 0008 FB1D     		add	r3, r7, #7
 476 000a 1A70     		strb	r2, [r3]
 576:.\Generated_Source\PSoC4/BLE.c ****     CYBLE_API_RESULT_T apiResult = CYBLE_ERROR_OK;
 477              		.loc 1 576 0
 478 000c 2623     		mov	r3, #38
 479 000e FB18     		add	r3, r7, r3
 480 0010 0022     		mov	r2, #0
 481 0012 1A80     		strh	r2, [r3]
 577:.\Generated_Source\PSoC4/BLE.c ****     
 578:.\Generated_Source\PSoC4/BLE.c ****     /* Store Stack data */
 579:.\Generated_Source\PSoC4/BLE.c ****     if((cyBle_pendingFlashWrite & CYBLE_PENDING_STACK_FLASH_WRITE_BIT) != 0u)
 482              		.loc 1 579 0
 483 0014 5C4B     		ldr	r3, .L27
 484 0016 1B78     		ldrb	r3, [r3]
 485 0018 1A1C     		mov	r2, r3
 486 001a 0123     		mov	r3, #1
 487 001c 1340     		and	r3, r2
 488 001e 1ED0     		beq	.L18
 580:.\Generated_Source\PSoC4/BLE.c ****     {
 581:.\Generated_Source\PSoC4/BLE.c ****         apiResult = CyBle_StoreStackData(isForceWrite);
 489              		.loc 1 581 0
 490 0020 2623     		mov	r3, #38
 491 0022 FC18     		add	r4, r7, r3
 492 0024 FB1D     		add	r3, r7, #7
 493 0026 1B78     		ldrb	r3, [r3]
 494 0028 181C     		mov	r0, r3
ARM GAS  C:\Users\ADMINI~1\AppData\Local\Temp\cczpe50f.s 			page 20


 495 002a FFF7FEFF 		bl	CyBle_StoreStackData
 496 002e 031C     		mov	r3, r0
 497 0030 2380     		strh	r3, [r4]
 582:.\Generated_Source\PSoC4/BLE.c ****         if(apiResult == CYBLE_ERROR_OK)
 498              		.loc 1 582 0
 499 0032 2623     		mov	r3, #38
 500 0034 FB18     		add	r3, r7, r3
 501 0036 1B88     		ldrh	r3, [r3]
 502 0038 002B     		cmp	r3, #0
 503 003a 10D1     		bne	.L18
 583:.\Generated_Source\PSoC4/BLE.c ****         {
 584:.\Generated_Source\PSoC4/BLE.c ****             cyBle_pendingFlashWrite &= (uint8)~CYBLE_PENDING_STACK_FLASH_WRITE_BIT;
 504              		.loc 1 584 0
 505 003c 524B     		ldr	r3, .L27
 506 003e 1B78     		ldrb	r3, [r3]
 507 0040 0122     		mov	r2, #1
 508 0042 9343     		bic	r3, r2
 509 0044 DAB2     		uxtb	r2, r3
 510 0046 504B     		ldr	r3, .L27
 511 0048 1A70     		strb	r2, [r3]
 585:.\Generated_Source\PSoC4/BLE.c ****             /* Change apiResult if there are more pending data to store */
 586:.\Generated_Source\PSoC4/BLE.c ****             if((cyBle_pendingFlashWrite & CYBLE_PENDING_CCCD_FLASH_WRITE_BIT) != 0u)
 512              		.loc 1 586 0
 513 004a 4F4B     		ldr	r3, .L27
 514 004c 1B78     		ldrb	r3, [r3]
 515 004e 1A1C     		mov	r2, r3
 516 0050 0223     		mov	r3, #2
 517 0052 1340     		and	r3, r2
 518 0054 03D0     		beq	.L18
 587:.\Generated_Source\PSoC4/BLE.c ****             {
 588:.\Generated_Source\PSoC4/BLE.c ****                 apiResult = CYBLE_ERROR_FLASH_WRITE_NOT_PERMITED;
 519              		.loc 1 588 0
 520 0056 2623     		mov	r3, #38
 521 0058 FB18     		add	r3, r7, r3
 522 005a 2822     		mov	r2, #40
 523 005c 1A80     		strh	r2, [r3]
 524              	.L18:
 589:.\Generated_Source\PSoC4/BLE.c ****             }
 590:.\Generated_Source\PSoC4/BLE.c ****         }
 591:.\Generated_Source\PSoC4/BLE.c ****     }
 592:.\Generated_Source\PSoC4/BLE.c **** #if(CYBLE_GATT_DB_CCCD_COUNT != 0u)
 593:.\Generated_Source\PSoC4/BLE.c ****     /* Store CCCD values */
 594:.\Generated_Source\PSoC4/BLE.c ****     if( ((apiResult == CYBLE_ERROR_OK) || (isForceWrite != 0u)) && 
 525              		.loc 1 594 0
 526 005e 2623     		mov	r3, #38
 527 0060 FB18     		add	r3, r7, r3
 528 0062 1B88     		ldrh	r3, [r3]
 529 0064 002B     		cmp	r3, #0
 530 0066 03D0     		beq	.L19
 531              		.loc 1 594 0 is_stmt 0 discriminator 2
 532 0068 FB1D     		add	r3, r7, #7
 533 006a 1B78     		ldrb	r3, [r3]
 534 006c 002B     		cmp	r3, #0
 535 006e 28D0     		beq	.L20
 536              	.L19:
 595:.\Generated_Source\PSoC4/BLE.c ****         ((cyBle_pendingFlashWrite & CYBLE_PENDING_CCCD_FLASH_WRITE_BIT) != 0u) &&
 537              		.loc 1 595 0 is_stmt 1 discriminator 3
ARM GAS  C:\Users\ADMINI~1\AppData\Local\Temp\cczpe50f.s 			page 21


 538 0070 454B     		ldr	r3, .L27
 539 0072 1B78     		ldrb	r3, [r3]
 540 0074 1A1C     		mov	r2, r3
 541 0076 0223     		mov	r3, #2
 542 0078 1340     		and	r3, r2
 594:.\Generated_Source\PSoC4/BLE.c ****         ((cyBle_pendingFlashWrite & CYBLE_PENDING_CCCD_FLASH_WRITE_BIT) != 0u) &&
 543              		.loc 1 594 0 discriminator 3
 544 007a 22D0     		beq	.L20
 596:.\Generated_Source\PSoC4/BLE.c ****         (cyBle_connHandle.bdHandle <= CYBLE_GAP_MAX_BONDED_DEVICE))
 545              		.loc 1 596 0
 546 007c 434B     		ldr	r3, .L27+4
 547 007e 1B78     		ldrb	r3, [r3]
 595:.\Generated_Source\PSoC4/BLE.c ****         ((cyBle_pendingFlashWrite & CYBLE_PENDING_CCCD_FLASH_WRITE_BIT) != 0u) &&
 548              		.loc 1 595 0
 549 0080 042B     		cmp	r3, #4
 550 0082 1ED8     		bhi	.L20
 597:.\Generated_Source\PSoC4/BLE.c ****     {
 598:.\Generated_Source\PSoC4/BLE.c ****         apiResult = CyBle_StoreAppData(cyBle_attValuesCCCD, cyBle_flashStorage.attValuesCCCDFlashMe
 599:.\Generated_Source\PSoC4/BLE.c ****                         cyBle_connHandle.bdHandle], CYBLE_GATT_DB_CCCD_COUNT, isForceWrite);
 551              		.loc 1 599 0
 552 0084 414B     		ldr	r3, .L27+4
 553 0086 1B78     		ldrb	r3, [r3]
 598:.\Generated_Source\PSoC4/BLE.c ****                         cyBle_connHandle.bdHandle], CYBLE_GATT_DB_CCCD_COUNT, isForceWrite);
 554              		.loc 1 598 0
 555 0088 9E33     		add	r3, r3, #158
 556 008a 9A00     		lsl	r2, r3, #2
 557 008c 404B     		ldr	r3, .L27+8
 558 008e D318     		add	r3, r2, r3
 559 0090 5A1C     		add	r2, r3, #1
 560 0092 2623     		mov	r3, #38
 561 0094 FC18     		add	r4, r7, r3
 562 0096 3F49     		ldr	r1, .L27+12
 563 0098 FB1D     		add	r3, r7, #7
 564 009a 1B78     		ldrb	r3, [r3]
 565 009c 081C     		mov	r0, r1
 566 009e 111C     		mov	r1, r2
 567 00a0 0422     		mov	r2, #4
 568 00a2 FFF7FEFF 		bl	CyBle_StoreAppData
 569 00a6 031C     		mov	r3, r0
 570 00a8 2380     		strh	r3, [r4]
 600:.\Generated_Source\PSoC4/BLE.c ****         if(apiResult == CYBLE_ERROR_OK)
 571              		.loc 1 600 0
 572 00aa 2623     		mov	r3, #38
 573 00ac FB18     		add	r3, r7, r3
 574 00ae 1B88     		ldrh	r3, [r3]
 575 00b0 002B     		cmp	r3, #0
 576 00b2 06D1     		bne	.L20
 601:.\Generated_Source\PSoC4/BLE.c ****         {
 602:.\Generated_Source\PSoC4/BLE.c ****             cyBle_pendingFlashWrite &= (uint8)~CYBLE_PENDING_CCCD_FLASH_WRITE_BIT;
 577              		.loc 1 602 0
 578 00b4 344B     		ldr	r3, .L27
 579 00b6 1B78     		ldrb	r3, [r3]
 580 00b8 0222     		mov	r2, #2
 581 00ba 9343     		bic	r3, r2
 582 00bc DAB2     		uxtb	r2, r3
 583 00be 324B     		ldr	r3, .L27
 584 00c0 1A70     		strb	r2, [r3]
ARM GAS  C:\Users\ADMINI~1\AppData\Local\Temp\cczpe50f.s 			page 22


 585              	.L20:
 603:.\Generated_Source\PSoC4/BLE.c ****         }
 604:.\Generated_Source\PSoC4/BLE.c ****     }
 605:.\Generated_Source\PSoC4/BLE.c ****     /* Clear requested CCCD values */
 606:.\Generated_Source\PSoC4/BLE.c ****     if( ((apiResult == CYBLE_ERROR_OK) || (isForceWrite != 0u)) && 
 586              		.loc 1 606 0
 587 00c2 2623     		mov	r3, #38
 588 00c4 FB18     		add	r3, r7, r3
 589 00c6 1B88     		ldrh	r3, [r3]
 590 00c8 002B     		cmp	r3, #0
 591 00ca 03D0     		beq	.L21
 592              		.loc 1 606 0 is_stmt 0 discriminator 2
 593 00cc FB1D     		add	r3, r7, #7
 594 00ce 1B78     		ldrb	r3, [r3]
 595 00d0 002B     		cmp	r3, #0
 596 00d2 52D0     		beq	.L22
 597              	.L21:
 607:.\Generated_Source\PSoC4/BLE.c ****         ((cyBle_pendingFlashWrite & CYBLE_PENDING_CCCD_FLASH_CLEAR_MASK) != 0u) )
 598              		.loc 1 607 0 is_stmt 1 discriminator 3
 599 00d4 2C4B     		ldr	r3, .L27
 600 00d6 1B78     		ldrb	r3, [r3]
 601 00d8 1A1C     		mov	r2, r3
 602 00da 0C23     		mov	r3, #12
 603 00dc 1340     		and	r3, r2
 606:.\Generated_Source\PSoC4/BLE.c ****         ((cyBle_pendingFlashWrite & CYBLE_PENDING_CCCD_FLASH_CLEAR_MASK) != 0u) )
 604              		.loc 1 606 0 discriminator 3
 605 00de 4CD0     		beq	.L22
 608:.\Generated_Source\PSoC4/BLE.c ****     {
 609:.\Generated_Source\PSoC4/BLE.c ****         if((cyBle_pendingFlashWrite & CYBLE_PENDING_CCCD_FLASH_CLEAR_ALL_BIT) != 0u)
 606              		.loc 1 609 0
 607 00e0 294B     		ldr	r3, .L27
 608 00e2 1B78     		ldrb	r3, [r3]
 609 00e4 1A1C     		mov	r2, r3
 610 00e6 0823     		mov	r3, #8
 611 00e8 1340     		and	r3, r2
 612 00ea 22D0     		beq	.L23
 613              	.LBB3:
 610:.\Generated_Source\PSoC4/BLE.c ****         {
 611:.\Generated_Source\PSoC4/BLE.c ****             /* Remove cccd values for all bonded devices */
 612:.\Generated_Source\PSoC4/BLE.c ****             uint8 defaultValuesCCCD[CYBLE_GAP_MAX_BONDED_DEVICE + 1u][CYBLE_GATT_DB_CCCD_COUNT];
 613:.\Generated_Source\PSoC4/BLE.c ****             
 614:.\Generated_Source\PSoC4/BLE.c ****             (void)memset(defaultValuesCCCD, 0, sizeof(defaultValuesCCCD));
 614              		.loc 1 614 0
 615 00ec 1023     		mov	r3, #16
 616 00ee FB18     		add	r3, r7, r3
 617 00f0 181C     		mov	r0, r3
 618 00f2 0021     		mov	r1, #0
 619 00f4 1422     		mov	r2, #20
 620 00f6 FFF7FEFF 		bl	memset
 615:.\Generated_Source\PSoC4/BLE.c **** 
 616:.\Generated_Source\PSoC4/BLE.c ****             apiResult = CyBle_StoreAppData((uint8 *)defaultValuesCCCD, 
 621              		.loc 1 616 0
 622 00fa 2623     		mov	r3, #38
 623 00fc FC18     		add	r4, r7, r3
 624 00fe 1023     		mov	r3, #16
 625 0100 F918     		add	r1, r7, r3
 626 0102 254A     		ldr	r2, .L27+16
ARM GAS  C:\Users\ADMINI~1\AppData\Local\Temp\cczpe50f.s 			page 23


 627 0104 FB1D     		add	r3, r7, #7
 628 0106 1B78     		ldrb	r3, [r3]
 629 0108 081C     		mov	r0, r1
 630 010a 111C     		mov	r1, r2
 631 010c 1422     		mov	r2, #20
 632 010e FFF7FEFF 		bl	CyBle_StoreAppData
 633 0112 031C     		mov	r3, r0
 634 0114 2380     		strh	r3, [r4]
 617:.\Generated_Source\PSoC4/BLE.c ****                 (const uint8 *)cyBle_flashStorage.attValuesCCCDFlashMemory, sizeof(defaultValuesCCC
 618:.\Generated_Source\PSoC4/BLE.c ****             if(apiResult == CYBLE_ERROR_OK)
 635              		.loc 1 618 0
 636 0116 2623     		mov	r3, #38
 637 0118 FB18     		add	r3, r7, r3
 638 011a 1B88     		ldrh	r3, [r3]
 639 011c 002B     		cmp	r3, #0
 640 011e 07D1     		bne	.L24
 619:.\Generated_Source\PSoC4/BLE.c ****             {
 620:.\Generated_Source\PSoC4/BLE.c ****                 cyBle_pendingFlashWrite &= (uint8)~CYBLE_PENDING_CCCD_FLASH_CLEAR_ALL_BIT;
 641              		.loc 1 620 0
 642 0120 194B     		ldr	r3, .L27
 643 0122 1B78     		ldrb	r3, [r3]
 644 0124 0822     		mov	r2, #8
 645 0126 9343     		bic	r3, r2
 646 0128 DAB2     		uxtb	r2, r3
 647 012a 174B     		ldr	r3, .L27
 648 012c 1A70     		strb	r2, [r3]
 649              	.LBE3:
 650 012e 24E0     		b	.L22
 651              	.L24:
 652 0130 23E0     		b	.L22
 653              	.L23:
 654              	.LBB4:
 621:.\Generated_Source\PSoC4/BLE.c ****             }
 622:.\Generated_Source\PSoC4/BLE.c ****         }
 623:.\Generated_Source\PSoC4/BLE.c ****         else /* Remove cccd values for particular device */
 624:.\Generated_Source\PSoC4/BLE.c ****         {
 625:.\Generated_Source\PSoC4/BLE.c ****             uint8 defaultValuesCCCD[CYBLE_GATT_DB_CCCD_COUNT] = {0u};
 655              		.loc 1 625 0
 656 0132 0C23     		mov	r3, #12
 657 0134 FB18     		add	r3, r7, r3
 658 0136 0022     		mov	r2, #0
 659 0138 1A60     		str	r2, [r3]
 626:.\Generated_Source\PSoC4/BLE.c ****             
 627:.\Generated_Source\PSoC4/BLE.c ****             apiResult = CyBle_StoreAppData(defaultValuesCCCD, cyBle_flashStorage.attValuesCCCDFlash
 660              		.loc 1 627 0
 661 013a 184B     		ldr	r3, .L27+20
 662 013c 1B78     		ldrb	r3, [r3]
 663 013e 9E33     		add	r3, r3, #158
 664 0140 9A00     		lsl	r2, r3, #2
 665 0142 134B     		ldr	r3, .L27+8
 666 0144 D318     		add	r3, r2, r3
 667 0146 5A1C     		add	r2, r3, #1
 668 0148 2623     		mov	r3, #38
 669 014a FC18     		add	r4, r7, r3
 670 014c 0C23     		mov	r3, #12
 671 014e F918     		add	r1, r7, r3
 672 0150 FB1D     		add	r3, r7, #7
ARM GAS  C:\Users\ADMINI~1\AppData\Local\Temp\cczpe50f.s 			page 24


 673 0152 1B78     		ldrb	r3, [r3]
 674 0154 081C     		mov	r0, r1
 675 0156 111C     		mov	r1, r2
 676 0158 0422     		mov	r2, #4
 677 015a FFF7FEFF 		bl	CyBle_StoreAppData
 678 015e 031C     		mov	r3, r0
 679 0160 2380     		strh	r3, [r4]
 628:.\Generated_Source\PSoC4/BLE.c ****                                     cyBle_pendingFlashClearCccdHandle], CYBLE_GATT_DB_CCCD_COUNT, i
 629:.\Generated_Source\PSoC4/BLE.c ****             if(apiResult == CYBLE_ERROR_OK)
 680              		.loc 1 629 0
 681 0162 2623     		mov	r3, #38
 682 0164 FB18     		add	r3, r7, r3
 683 0166 1B88     		ldrh	r3, [r3]
 684 0168 002B     		cmp	r3, #0
 685 016a 06D1     		bne	.L22
 630:.\Generated_Source\PSoC4/BLE.c ****             {
 631:.\Generated_Source\PSoC4/BLE.c ****                 cyBle_pendingFlashWrite &= (uint8)~CYBLE_PENDING_CCCD_FLASH_CLEAR_BIT;
 686              		.loc 1 631 0
 687 016c 064B     		ldr	r3, .L27
 688 016e 1B78     		ldrb	r3, [r3]
 689 0170 0422     		mov	r2, #4
 690 0172 9343     		bic	r3, r2
 691 0174 DAB2     		uxtb	r2, r3
 692 0176 044B     		ldr	r3, .L27
 693 0178 1A70     		strb	r2, [r3]
 694              	.L22:
 695              	.LBE4:
 632:.\Generated_Source\PSoC4/BLE.c ****             }
 633:.\Generated_Source\PSoC4/BLE.c ****         }
 634:.\Generated_Source\PSoC4/BLE.c ****     }
 635:.\Generated_Source\PSoC4/BLE.c **** #endif /* CYBLE_GATT_DB_CCCD_COUNT != 0u */
 636:.\Generated_Source\PSoC4/BLE.c ****     return(apiResult);
 696              		.loc 1 636 0
 697 017a 2623     		mov	r3, #38
 698 017c FB18     		add	r3, r7, r3
 699 017e 1B88     		ldrh	r3, [r3]
 637:.\Generated_Source\PSoC4/BLE.c **** }
 700              		.loc 1 637 0
 701 0180 181C     		mov	r0, r3
 702 0182 BD46     		mov	sp, r7
 703 0184 0BB0     		add	sp, sp, #44
 704              		@ sp needed
 705 0186 90BD     		pop	{r4, r7, pc}
 706              	.L28:
 707              		.align	2
 708              	.L27:
 709 0188 00000000 		.word	cyBle_pendingFlashWrite
 710 018c 00000000 		.word	cyBle_connHandle
 711 0190 00000000 		.word	cyBle_flashStorage
 712 0194 00000000 		.word	cyBle_attValuesCCCD
 713 0198 79020000 		.word	cyBle_flashStorage+633
 714 019c 24000000 		.word	cyBle_pendingFlashClearCccdHandle
 715              		.cfi_endproc
 716              	.LFE6:
 717              		.size	CyBle_StoreBondingData, .-CyBle_StoreBondingData
 718              		.section	.text.CyBle_GapRemoveBondedDevice,"ax",%progbits
 719              		.align	2
ARM GAS  C:\Users\ADMINI~1\AppData\Local\Temp\cczpe50f.s 			page 25


 720              		.global	CyBle_GapRemoveBondedDevice
 721              		.code	16
 722              		.thumb_func
 723              		.type	CyBle_GapRemoveBondedDevice, %function
 724              	CyBle_GapRemoveBondedDevice:
 725              	.LFB7:
 638:.\Generated_Source\PSoC4/BLE.c **** 
 639:.\Generated_Source\PSoC4/BLE.c **** 
 640:.\Generated_Source\PSoC4/BLE.c **** /******************************************************************************
 641:.\Generated_Source\PSoC4/BLE.c **** * Function Name: CyBle_GapRemoveBondedDevice
 642:.\Generated_Source\PSoC4/BLE.c **** ***************************************************************************//**
 643:.\Generated_Source\PSoC4/BLE.c **** * 
 644:.\Generated_Source\PSoC4/BLE.c **** *  This function marks the device untrusted. It removes the bonding information
 645:.\Generated_Source\PSoC4/BLE.c **** *  of the device including CCCD values. This function removes device from the
 646:.\Generated_Source\PSoC4/BLE.c **** *  white list also when autopopulate white list with bonded devices option is
 647:.\Generated_Source\PSoC4/BLE.c **** *  enabled.
 648:.\Generated_Source\PSoC4/BLE.c **** * 
 649:.\Generated_Source\PSoC4/BLE.c **** *  This function is available only when Bonding requirement is selected in
 650:.\Generated_Source\PSoC4/BLE.c **** *  Security settings.    
 651:.\Generated_Source\PSoC4/BLE.c **** *
 652:.\Generated_Source\PSoC4/BLE.c **** *  \param bdAddr: Pointer to peer device address, of type CYBLE_GAP_BD_ADDR_T.
 653:.\Generated_Source\PSoC4/BLE.c **** *                 If device address is set to 0, then all devices shall be
 654:.\Generated_Source\PSoC4/BLE.c **** *                 removed from trusted list and white list.
 655:.\Generated_Source\PSoC4/BLE.c **** *
 656:.\Generated_Source\PSoC4/BLE.c **** * \return
 657:.\Generated_Source\PSoC4/BLE.c **** *  CYBLE_API_RESULT_T : Return value indicates if the function succeeded or
 658:.\Generated_Source\PSoC4/BLE.c **** *  failed. Following are the possible error codes.
 659:.\Generated_Source\PSoC4/BLE.c **** *
 660:.\Generated_Source\PSoC4/BLE.c **** *   Errors codes                     | Description
 661:.\Generated_Source\PSoC4/BLE.c **** *   ---------------------------------| ------------------------------------
 662:.\Generated_Source\PSoC4/BLE.c **** *   CYBLE_ERROR_OK                   | On successful operation.
 663:.\Generated_Source\PSoC4/BLE.c **** *   CYBLE_ERROR_INVALID_PARAMETER    | On specifying NULL as input parameter for 'bdAddr'.
 664:.\Generated_Source\PSoC4/BLE.c **** *   CYBLE_ERROR_INVALID_OPERATION    | Whitelist is already in use or there is pending write to fla
 665:.\Generated_Source\PSoC4/BLE.c **** *   CYBLE_ERROR_NO_DEVICE_ENTITY     | Device does not exist in the bond list.
 666:.\Generated_Source\PSoC4/BLE.c **** *
 667:.\Generated_Source\PSoC4/BLE.c **** *  \globalvars
 668:.\Generated_Source\PSoC4/BLE.c **** *   The bdHandle is set in cyBle_pendingFlashWrite variable to indicate that
 669:.\Generated_Source\PSoC4/BLE.c **** *   data should be stored to flash by CyBle_StoreBondingData afterwards. 
 670:.\Generated_Source\PSoC4/BLE.c **** *     
 671:.\Generated_Source\PSoC4/BLE.c **** ******************************************************************************/
 672:.\Generated_Source\PSoC4/BLE.c **** CYBLE_API_RESULT_T CyBle_GapRemoveBondedDevice(CYBLE_GAP_BD_ADDR_T* bdAddr)
 673:.\Generated_Source\PSoC4/BLE.c **** {
 726              		.loc 1 673 0
 727              		.cfi_startproc
 728 0000 90B5     		push	{r4, r7, lr}
 729              		.cfi_def_cfa_offset 12
 730              		.cfi_offset 4, -12
 731              		.cfi_offset 7, -8
 732              		.cfi_offset 14, -4
 733 0002 87B0     		sub	sp, sp, #28
 734              		.cfi_def_cfa_offset 40
 735 0004 00AF     		add	r7, sp, #0
 736              		.cfi_def_cfa_register 7
 737 0006 7860     		str	r0, [r7, #4]
 674:.\Generated_Source\PSoC4/BLE.c ****     CYBLE_API_RESULT_T apiResult = CYBLE_ERROR_OK;
 738              		.loc 1 674 0
 739 0008 1623     		mov	r3, #22
ARM GAS  C:\Users\ADMINI~1\AppData\Local\Temp\cczpe50f.s 			page 26


 740 000a FB18     		add	r3, r7, r3
 741 000c 0022     		mov	r2, #0
 742 000e 1A80     		strh	r2, [r3]
 675:.\Generated_Source\PSoC4/BLE.c ****     
 676:.\Generated_Source\PSoC4/BLE.c ****     if(cyBle_pendingFlashWrite == 0u)
 743              		.loc 1 676 0
 744 0010 334B     		ldr	r3, .L36
 745 0012 1B78     		ldrb	r3, [r3]
 746 0014 002B     		cmp	r3, #0
 747 0016 58D1     		bne	.L30
 748              	.LBB5:
 677:.\Generated_Source\PSoC4/BLE.c ****     {
 678:.\Generated_Source\PSoC4/BLE.c ****         
 679:.\Generated_Source\PSoC4/BLE.c ****     #if(CYBLE_GATT_DB_CCCD_COUNT != 0u)
 680:.\Generated_Source\PSoC4/BLE.c ****         /* Request to clear CCCD values which will be done by CyBle_StoreBondingData API */
 681:.\Generated_Source\PSoC4/BLE.c ****         uint8 bDevHandle;
 682:.\Generated_Source\PSoC4/BLE.c ****         CYBLE_GAP_BD_ADDR_T invalidBdAddr = {{0u,0u,0u,0u,0u,0u}, 0u};
 749              		.loc 1 682 0
 750 0018 0C23     		mov	r3, #12
 751 001a FB18     		add	r3, r7, r3
 752 001c 0022     		mov	r2, #0
 753 001e 1A70     		strb	r2, [r3]
 754 0020 0C23     		mov	r3, #12
 755 0022 FB18     		add	r3, r7, r3
 756 0024 0022     		mov	r2, #0
 757 0026 5A70     		strb	r2, [r3, #1]
 758 0028 0C23     		mov	r3, #12
 759 002a FB18     		add	r3, r7, r3
 760 002c 0022     		mov	r2, #0
 761 002e 9A70     		strb	r2, [r3, #2]
 762 0030 0C23     		mov	r3, #12
 763 0032 FB18     		add	r3, r7, r3
 764 0034 0022     		mov	r2, #0
 765 0036 DA70     		strb	r2, [r3, #3]
 766 0038 0C23     		mov	r3, #12
 767 003a FB18     		add	r3, r7, r3
 768 003c 0022     		mov	r2, #0
 769 003e 1A71     		strb	r2, [r3, #4]
 770 0040 0C23     		mov	r3, #12
 771 0042 FB18     		add	r3, r7, r3
 772 0044 0022     		mov	r2, #0
 773 0046 5A71     		strb	r2, [r3, #5]
 774 0048 0C23     		mov	r3, #12
 775 004a FB18     		add	r3, r7, r3
 776 004c 0022     		mov	r2, #0
 777 004e 9A71     		strb	r2, [r3, #6]
 683:.\Generated_Source\PSoC4/BLE.c **** 
 684:.\Generated_Source\PSoC4/BLE.c ****         if(memcmp(((uint8 *) &(bdAddr->bdAddr)), ((uint8 *) &(invalidBdAddr.bdAddr)), CYBLE_GAP_BD_
 778              		.loc 1 684 0
 779 0050 7A68     		ldr	r2, [r7, #4]
 780 0052 0C23     		mov	r3, #12
 781 0054 FB18     		add	r3, r7, r3
 782 0056 101C     		mov	r0, r2
 783 0058 191C     		mov	r1, r3
 784 005a 0622     		mov	r2, #6
 785 005c FFF7FEFF 		bl	memcmp
 786 0060 031E     		sub	r3, r0, #0
ARM GAS  C:\Users\ADMINI~1\AppData\Local\Temp\cczpe50f.s 			page 27


 787 0062 07D1     		bne	.L31
 685:.\Generated_Source\PSoC4/BLE.c **** 	    {
 686:.\Generated_Source\PSoC4/BLE.c ****             /* Request to remove all bonded devices by cyBle_StoreBondingData API */
 687:.\Generated_Source\PSoC4/BLE.c ****             cyBle_pendingFlashWrite |= CYBLE_PENDING_CCCD_FLASH_CLEAR_ALL_BIT;
 788              		.loc 1 687 0
 789 0064 1E4B     		ldr	r3, .L36
 790 0066 1B78     		ldrb	r3, [r3]
 791 0068 0822     		mov	r2, #8
 792 006a 1343     		orr	r3, r2
 793 006c DAB2     		uxtb	r2, r3
 794 006e 1C4B     		ldr	r3, .L36
 795 0070 1A70     		strb	r2, [r3]
 796 0072 1BE0     		b	.L32
 797              	.L31:
 688:.\Generated_Source\PSoC4/BLE.c ****         }
 689:.\Generated_Source\PSoC4/BLE.c ****         else
 690:.\Generated_Source\PSoC4/BLE.c ****         {
 691:.\Generated_Source\PSoC4/BLE.c ****             /* Get the BD handle from Address */
 692:.\Generated_Source\PSoC4/BLE.c ****             apiResult = CyBle_GapGetPeerBdHandle(&bDevHandle, bdAddr);
 798              		.loc 1 692 0
 799 0074 1623     		mov	r3, #22
 800 0076 FC18     		add	r4, r7, r3
 801 0078 1523     		mov	r3, #21
 802 007a FA18     		add	r2, r7, r3
 803 007c 7B68     		ldr	r3, [r7, #4]
 804 007e 101C     		mov	r0, r2
 805 0080 191C     		mov	r1, r3
 806 0082 FFF7FEFF 		bl	CyBle_GapGetPeerBdHandle
 807 0086 031C     		mov	r3, r0
 808 0088 2380     		strh	r3, [r4]
 693:.\Generated_Source\PSoC4/BLE.c ****             if(apiResult == CYBLE_ERROR_OK)
 809              		.loc 1 693 0
 810 008a 1623     		mov	r3, #22
 811 008c FB18     		add	r3, r7, r3
 812 008e 1B88     		ldrh	r3, [r3]
 813 0090 002B     		cmp	r3, #0
 814 0092 0BD1     		bne	.L32
 694:.\Generated_Source\PSoC4/BLE.c ****             {
 695:.\Generated_Source\PSoC4/BLE.c ****                 /* Store BD handle to clear cccd values by CyBle_StoreBondingData API */
 696:.\Generated_Source\PSoC4/BLE.c ****                 cyBle_pendingFlashWrite |= CYBLE_PENDING_CCCD_FLASH_CLEAR_BIT;
 815              		.loc 1 696 0
 816 0094 124B     		ldr	r3, .L36
 817 0096 1B78     		ldrb	r3, [r3]
 818 0098 0422     		mov	r2, #4
 819 009a 1343     		orr	r3, r2
 820 009c DAB2     		uxtb	r2, r3
 821 009e 104B     		ldr	r3, .L36
 822 00a0 1A70     		strb	r2, [r3]
 697:.\Generated_Source\PSoC4/BLE.c ****                 cyBle_pendingFlashClearCccdHandle = bDevHandle;
 823              		.loc 1 697 0
 824 00a2 1523     		mov	r3, #21
 825 00a4 FB18     		add	r3, r7, r3
 826 00a6 1A78     		ldrb	r2, [r3]
 827 00a8 0E4B     		ldr	r3, .L36+4
 828 00aa 1A70     		strb	r2, [r3]
 829              	.L32:
 698:.\Generated_Source\PSoC4/BLE.c ****             }
ARM GAS  C:\Users\ADMINI~1\AppData\Local\Temp\cczpe50f.s 			page 28


 699:.\Generated_Source\PSoC4/BLE.c ****         }
 700:.\Generated_Source\PSoC4/BLE.c ****         if(apiResult == CYBLE_ERROR_OK)
 830              		.loc 1 700 0
 831 00ac 1623     		mov	r3, #22
 832 00ae FB18     		add	r3, r7, r3
 833 00b0 1B88     		ldrh	r3, [r3]
 834 00b2 002B     		cmp	r3, #0
 835 00b4 08D1     		bne	.L33
 701:.\Generated_Source\PSoC4/BLE.c ****         {
 702:.\Generated_Source\PSoC4/BLE.c ****             #if(CYBLE_AUTO_POPULATE_WHITELIST != 0u)
 703:.\Generated_Source\PSoC4/BLE.c ****                 apiResult = CyBle_GapRemoveDeviceFromWhiteList(bdAddr);
 836              		.loc 1 703 0
 837 00b6 1623     		mov	r3, #22
 838 00b8 FC18     		add	r4, r7, r3
 839 00ba 7B68     		ldr	r3, [r7, #4]
 840 00bc 181C     		mov	r0, r3
 841 00be FFF7FEFF 		bl	CyBle_GapRemoveDeviceFromWhiteList
 842 00c2 031C     		mov	r3, r0
 843 00c4 2380     		strh	r3, [r4]
 844              	.LBE5:
 845 00c6 04E0     		b	.L34
 846              	.L33:
 847 00c8 03E0     		b	.L34
 848              	.L30:
 704:.\Generated_Source\PSoC4/BLE.c ****             #else
 705:.\Generated_Source\PSoC4/BLE.c ****                 apiResult = CyBle_GapRemDeviceFromBondList(bdAddr);
 706:.\Generated_Source\PSoC4/BLE.c ****             #endif
 707:.\Generated_Source\PSoC4/BLE.c ****         }
 708:.\Generated_Source\PSoC4/BLE.c ****     #endif /* CYBLE_GATT_DB_CCCD_COUNT != 0u */
 709:.\Generated_Source\PSoC4/BLE.c ****     }
 710:.\Generated_Source\PSoC4/BLE.c ****     else
 711:.\Generated_Source\PSoC4/BLE.c ****     {
 712:.\Generated_Source\PSoC4/BLE.c ****         apiResult = CYBLE_ERROR_INVALID_OPERATION;
 849              		.loc 1 712 0
 850 00ca 1623     		mov	r3, #22
 851 00cc FB18     		add	r3, r7, r3
 852 00ce 0222     		mov	r2, #2
 853 00d0 1A80     		strh	r2, [r3]
 854              	.L34:
 713:.\Generated_Source\PSoC4/BLE.c ****     }
 714:.\Generated_Source\PSoC4/BLE.c ****     
 715:.\Generated_Source\PSoC4/BLE.c ****     return(apiResult);
 855              		.loc 1 715 0
 856 00d2 1623     		mov	r3, #22
 857 00d4 FB18     		add	r3, r7, r3
 858 00d6 1B88     		ldrh	r3, [r3]
 716:.\Generated_Source\PSoC4/BLE.c **** }
 859              		.loc 1 716 0
 860 00d8 181C     		mov	r0, r3
 861 00da BD46     		mov	sp, r7
 862 00dc 07B0     		add	sp, sp, #28
 863              		@ sp needed
 864 00de 90BD     		pop	{r4, r7, pc}
 865              	.L37:
 866              		.align	2
 867              	.L36:
 868 00e0 00000000 		.word	cyBle_pendingFlashWrite
ARM GAS  C:\Users\ADMINI~1\AppData\Local\Temp\cczpe50f.s 			page 29


 869 00e4 24000000 		.word	cyBle_pendingFlashClearCccdHandle
 870              		.cfi_endproc
 871              	.LFE7:
 872              		.size	CyBle_GapRemoveBondedDevice, .-CyBle_GapRemoveBondedDevice
 873              		.section	.text.CyBle_GappStartAdvertisement,"ax",%progbits
 874              		.align	2
 875              		.global	CyBle_GappStartAdvertisement
 876              		.code	16
 877              		.thumb_func
 878              		.type	CyBle_GappStartAdvertisement, %function
 879              	CyBle_GappStartAdvertisement:
 880              	.LFB8:
 717:.\Generated_Source\PSoC4/BLE.c **** 
 718:.\Generated_Source\PSoC4/BLE.c **** 
 719:.\Generated_Source\PSoC4/BLE.c **** #endif /* (CYBLE_GAP_ROLE_PERIPHERAL || CYBLE_GAP_ROLE_CENTRAL) && (CYBLE_BONDING_REQUIREMENT == CY
 720:.\Generated_Source\PSoC4/BLE.c **** 
 721:.\Generated_Source\PSoC4/BLE.c **** 
 722:.\Generated_Source\PSoC4/BLE.c **** #if(CYBLE_GAP_ROLE_PERIPHERAL || CYBLE_GAP_ROLE_BROADCASTER)
 723:.\Generated_Source\PSoC4/BLE.c **** 
 724:.\Generated_Source\PSoC4/BLE.c ****     /******************************************************************************
 725:.\Generated_Source\PSoC4/BLE.c ****     *  Function Name: CyBle_GappStartAdvertisement
 726:.\Generated_Source\PSoC4/BLE.c ****     ***************************************************************************//**
 727:.\Generated_Source\PSoC4/BLE.c ****     *     
 728:.\Generated_Source\PSoC4/BLE.c ****     *  This function is used to start the advertisement using the advertisement data 
 729:.\Generated_Source\PSoC4/BLE.c ****     *  set in the component customizer's GUI. After invoking this API, the device 
 730:.\Generated_Source\PSoC4/BLE.c ****     *  will be available for connection by the devices configured for GAP central 
 731:.\Generated_Source\PSoC4/BLE.c ****     *  role. It is only included if the device is configured for GAP Peripheral or 
 732:.\Generated_Source\PSoC4/BLE.c ****     *  GAP Peripheral + Central role.
 733:.\Generated_Source\PSoC4/BLE.c ****     *  
 734:.\Generated_Source\PSoC4/BLE.c ****     *  On start of advertisement, GAP Peripheral receives the
 735:.\Generated_Source\PSoC4/BLE.c ****     *  CYBLE_EVT_GAPP_ADVERTISEMENT_START_STOP event. The following events are 
 736:.\Generated_Source\PSoC4/BLE.c ****     *  possible on invoking this function:
 737:.\Generated_Source\PSoC4/BLE.c ****     *  
 738:.\Generated_Source\PSoC4/BLE.c ****     *  * CYBLE_EVT_GAP_DEVICE_CONNECTED - If the device connects to a GAP Central and 
 739:.\Generated_Source\PSoC4/BLE.c ****     *    Link Layer Privacy is disabled in component customizer.
 740:.\Generated_Source\PSoC4/BLE.c ****     *  * CYBLE_EVT_GAP_ENHANCE_CONN_COMPLETE - If the device connects to a GAP Central and 
 741:.\Generated_Source\PSoC4/BLE.c ****     *    Link Layer Privacy is enabled in component customizer.
 742:.\Generated_Source\PSoC4/BLE.c ****     *  * CYBLE_EVT_TIMEOUT: If no device in GAP Central mode connects to this 
 743:.\Generated_Source\PSoC4/BLE.c ****     *                       device within the specified timeout limit. Stack 
 744:.\Generated_Source\PSoC4/BLE.c ****     *                       automatically initiate stop advertising when Slow 
 745:.\Generated_Source\PSoC4/BLE.c ****     *                       advertising was initiated, or starts Slow advertising
 746:.\Generated_Source\PSoC4/BLE.c ****     *                       after Fast advertising timeout occur.
 747:.\Generated_Source\PSoC4/BLE.c ****     *  * CYBLE_EVT_GAPP_ADVERTISEMENT_START_STOP: If device started or stopped
 748:.\Generated_Source\PSoC4/BLE.c ****     *                                               advertising. Use CyBle_GetState()
 749:.\Generated_Source\PSoC4/BLE.c ****     *                                               to determine the state. Sequential 
 750:.\Generated_Source\PSoC4/BLE.c ****     *                                               advertising could be started when
 751:.\Generated_Source\PSoC4/BLE.c ****     *                                               CYBLE_STATE_DISCONNECTED state is
 752:.\Generated_Source\PSoC4/BLE.c ****     *                                               returned.
 753:.\Generated_Source\PSoC4/BLE.c ****     * 
 754:.\Generated_Source\PSoC4/BLE.c ****     *  \param advertisingIntervalType: Fast or slow advertising interval with timings
 755:.\Generated_Source\PSoC4/BLE.c ****     *                                 entered in Advertising settings section of the
 756:.\Generated_Source\PSoC4/BLE.c ****     *                                 customizer.
 757:.\Generated_Source\PSoC4/BLE.c ****     *  * CYBLE_ADVERTISING_FAST   0x00u
 758:.\Generated_Source\PSoC4/BLE.c ****     *  * CYBLE_ADVERTISING_SLOW   0x01u
 759:.\Generated_Source\PSoC4/BLE.c ****     *  * CYBLE_ADVERTISING_CUSTOM 0x02u
 760:.\Generated_Source\PSoC4/BLE.c ****     * 
 761:.\Generated_Source\PSoC4/BLE.c ****     * \return
ARM GAS  C:\Users\ADMINI~1\AppData\Local\Temp\cczpe50f.s 			page 30


 762:.\Generated_Source\PSoC4/BLE.c ****     *  CYBLE_API_RESULT_T : Return value indicates if the function succeeded or
 763:.\Generated_Source\PSoC4/BLE.c ****     *  failed. Following are the possible error codes.
 764:.\Generated_Source\PSoC4/BLE.c ****     * 
 765:.\Generated_Source\PSoC4/BLE.c ****     *   Errors codes                      |  Description
 766:.\Generated_Source\PSoC4/BLE.c ****     *   --------------------------------- |  --------------------------------
 767:.\Generated_Source\PSoC4/BLE.c ****     *   CYBLE_ERROR_OK                    |  On successful operation.
 768:.\Generated_Source\PSoC4/BLE.c ****     *   CYBLE_ERROR_INVALID_PARAMETER     |  On passing an invalid parameter.
 769:.\Generated_Source\PSoC4/BLE.c ****     *   CYBLE_ERROR_INVALID_STATE         |  On calling this API not in Disconnected state.
 770:.\Generated_Source\PSoC4/BLE.c ****     *
 771:.\Generated_Source\PSoC4/BLE.c ****     * 
 772:.\Generated_Source\PSoC4/BLE.c ****     *******************************************************************************/
 773:.\Generated_Source\PSoC4/BLE.c ****     CYBLE_API_RESULT_T CyBle_GappStartAdvertisement(uint8 advertisingIntervalType)
 774:.\Generated_Source\PSoC4/BLE.c ****     {
 881              		.loc 1 774 0
 882              		.cfi_startproc
 883 0000 90B5     		push	{r4, r7, lr}
 884              		.cfi_def_cfa_offset 12
 885              		.cfi_offset 4, -12
 886              		.cfi_offset 7, -8
 887              		.cfi_offset 14, -4
 888 0002 85B0     		sub	sp, sp, #20
 889              		.cfi_def_cfa_offset 32
 890 0004 00AF     		add	r7, sp, #0
 891              		.cfi_def_cfa_register 7
 892 0006 021C     		mov	r2, r0
 893 0008 FB1D     		add	r3, r7, #7
 894 000a 1A70     		strb	r2, [r3]
 775:.\Generated_Source\PSoC4/BLE.c ****         CYBLE_API_RESULT_T apiResult;
 776:.\Generated_Source\PSoC4/BLE.c ****         
 777:.\Generated_Source\PSoC4/BLE.c ****         if(advertisingIntervalType > CYBLE_ADVERTISING_CUSTOM)
 895              		.loc 1 777 0
 896 000c FB1D     		add	r3, r7, #7
 897 000e 1B78     		ldrb	r3, [r3]
 898 0010 022B     		cmp	r3, #2
 899 0012 04D9     		bls	.L39
 778:.\Generated_Source\PSoC4/BLE.c ****         {
 779:.\Generated_Source\PSoC4/BLE.c ****             apiResult = CYBLE_ERROR_INVALID_PARAMETER;
 900              		.loc 1 779 0
 901 0014 0E23     		mov	r3, #14
 902 0016 FB18     		add	r3, r7, r3
 903 0018 0122     		mov	r2, #1
 904 001a 1A80     		strh	r2, [r3]
 905 001c 4DE0     		b	.L40
 906              	.L39:
 780:.\Generated_Source\PSoC4/BLE.c ****         }
 781:.\Generated_Source\PSoC4/BLE.c ****         else if((CYBLE_STATE_DISCONNECTED == CyBle_GetState()) && ((cyBle_eventHandlerFlag & CYBLE_
 907              		.loc 1 781 0
 908 001e 2A4B     		ldr	r3, .L46
 909 0020 1B78     		ldrb	r3, [r3]
 910 0022 042B     		cmp	r3, #4
 911 0024 44D1     		bne	.L41
 912              		.loc 1 781 0 is_stmt 0 discriminator 1
 913 0026 294B     		ldr	r3, .L46+4
 914 0028 1B78     		ldrb	r3, [r3]
 915 002a DBB2     		uxtb	r3, r3
 916 002c 1A1C     		mov	r2, r3
 917 002e 0423     		mov	r3, #4
ARM GAS  C:\Users\ADMINI~1\AppData\Local\Temp\cczpe50f.s 			page 31


 918 0030 1340     		and	r3, r2
 919 0032 3DD1     		bne	.L41
 782:.\Generated_Source\PSoC4/BLE.c ****         {   
 783:.\Generated_Source\PSoC4/BLE.c ****             if(advertisingIntervalType == CYBLE_ADVERTISING_FAST)
 920              		.loc 1 783 0 is_stmt 1
 921 0034 FB1D     		add	r3, r7, #7
 922 0036 1B78     		ldrb	r3, [r3]
 923 0038 002B     		cmp	r3, #0
 924 003a 0DD1     		bne	.L42
 784:.\Generated_Source\PSoC4/BLE.c ****             {
 785:.\Generated_Source\PSoC4/BLE.c ****                 cyBle_discoveryModeInfo.advTo = CYBLE_FAST_ADV_TIMEOUT;
 925              		.loc 1 785 0
 926 003c 244B     		ldr	r3, .L46+8
 927 003e 0022     		mov	r2, #0
 928 0040 1A82     		strh	r2, [r3, #16]
 786:.\Generated_Source\PSoC4/BLE.c ****                 cyBle_discoveryModeInfo.advParam->advIntvMin = CYBLE_FAST_ADV_INT_MIN;
 929              		.loc 1 786 0
 930 0042 234B     		ldr	r3, .L46+8
 931 0044 5B68     		ldr	r3, [r3, #4]
 932 0046 A022     		mov	r2, #160
 933 0048 5200     		lsl	r2, r2, #1
 934 004a 1A80     		strh	r2, [r3]
 787:.\Generated_Source\PSoC4/BLE.c ****                 cyBle_discoveryModeInfo.advParam->advIntvMax = CYBLE_FAST_ADV_INT_MAX;
 935              		.loc 1 787 0
 936 004c 204B     		ldr	r3, .L46+8
 937 004e 5B68     		ldr	r3, [r3, #4]
 938 0050 A022     		mov	r2, #160
 939 0052 5200     		lsl	r2, r2, #1
 940 0054 5A80     		strh	r2, [r3, #2]
 941 0056 10E0     		b	.L43
 942              	.L42:
 788:.\Generated_Source\PSoC4/BLE.c ****             }
 789:.\Generated_Source\PSoC4/BLE.c ****             else if(advertisingIntervalType == CYBLE_ADVERTISING_SLOW)
 943              		.loc 1 789 0
 944 0058 FB1D     		add	r3, r7, #7
 945 005a 1B78     		ldrb	r3, [r3]
 946 005c 012B     		cmp	r3, #1
 947 005e 0CD1     		bne	.L43
 790:.\Generated_Source\PSoC4/BLE.c ****             {
 791:.\Generated_Source\PSoC4/BLE.c ****                 cyBle_discoveryModeInfo.advTo = CYBLE_SLOW_ADV_TIMEOUT;
 948              		.loc 1 791 0
 949 0060 1B4B     		ldr	r3, .L46+8
 950 0062 9622     		mov	r2, #150
 951 0064 1A82     		strh	r2, [r3, #16]
 792:.\Generated_Source\PSoC4/BLE.c ****                 cyBle_discoveryModeInfo.advParam->advIntvMin = CYBLE_SLOW_ADV_INT_MIN;
 952              		.loc 1 792 0
 953 0066 1A4B     		ldr	r3, .L46+8
 954 0068 5B68     		ldr	r3, [r3, #4]
 955 006a C822     		mov	r2, #200
 956 006c D200     		lsl	r2, r2, #3
 957 006e 1A80     		strh	r2, [r3]
 793:.\Generated_Source\PSoC4/BLE.c ****                 cyBle_discoveryModeInfo.advParam->advIntvMax = CYBLE_SLOW_ADV_INT_MAX;
 958              		.loc 1 793 0
 959 0070 174B     		ldr	r3, .L46+8
 960 0072 5B68     		ldr	r3, [r3, #4]
 961 0074 8022     		mov	r2, #128
 962 0076 D201     		lsl	r2, r2, #7
ARM GAS  C:\Users\ADMINI~1\AppData\Local\Temp\cczpe50f.s 			page 32


 963 0078 5A80     		strh	r2, [r3, #2]
 964              	.L43:
 794:.\Generated_Source\PSoC4/BLE.c ****             }       
 795:.\Generated_Source\PSoC4/BLE.c ****             else /* Do not update advertising intervals */
 796:.\Generated_Source\PSoC4/BLE.c ****             {
 797:.\Generated_Source\PSoC4/BLE.c ****             }
 798:.\Generated_Source\PSoC4/BLE.c ****             cyBle_advertisingIntervalType = advertisingIntervalType;
 965              		.loc 1 798 0
 966 007a 164B     		ldr	r3, .L46+12
 967 007c FA1D     		add	r2, r7, #7
 968 007e 1278     		ldrb	r2, [r2]
 969 0080 1A70     		strb	r2, [r3]
 799:.\Generated_Source\PSoC4/BLE.c ****             apiResult = CyBle_GappEnterDiscoveryMode(&cyBle_discoveryModeInfo);
 970              		.loc 1 799 0
 971 0082 0E23     		mov	r3, #14
 972 0084 FC18     		add	r4, r7, r3
 973 0086 124B     		ldr	r3, .L46+8
 974 0088 181C     		mov	r0, r3
 975 008a FFF7FEFF 		bl	CyBle_GappEnterDiscoveryMode
 976 008e 031C     		mov	r3, r0
 977 0090 2380     		strh	r3, [r4]
 800:.\Generated_Source\PSoC4/BLE.c ****         
 801:.\Generated_Source\PSoC4/BLE.c ****             if(CYBLE_ERROR_OK == apiResult)
 978              		.loc 1 801 0
 979 0092 0E23     		mov	r3, #14
 980 0094 FB18     		add	r3, r7, r3
 981 0096 1B88     		ldrh	r3, [r3]
 982 0098 002B     		cmp	r3, #0
 983 009a 08D1     		bne	.L44
 802:.\Generated_Source\PSoC4/BLE.c ****             {
 803:.\Generated_Source\PSoC4/BLE.c ****                 cyBle_eventHandlerFlag |= CYBLE_START_FLAG;
 984              		.loc 1 803 0
 985 009c 0B4B     		ldr	r3, .L46+4
 986 009e 1B78     		ldrb	r3, [r3]
 987 00a0 DBB2     		uxtb	r3, r3
 988 00a2 0422     		mov	r2, #4
 989 00a4 1343     		orr	r3, r2
 990 00a6 DAB2     		uxtb	r2, r3
 991 00a8 084B     		ldr	r3, .L46+4
 992 00aa 1A70     		strb	r2, [r3]
 801:.\Generated_Source\PSoC4/BLE.c ****             {
 993              		.loc 1 801 0
 994 00ac 05E0     		b	.L40
 995              	.L44:
 996 00ae 04E0     		b	.L40
 997              	.L41:
 804:.\Generated_Source\PSoC4/BLE.c ****             }
 805:.\Generated_Source\PSoC4/BLE.c ****         }
 806:.\Generated_Source\PSoC4/BLE.c ****         else
 807:.\Generated_Source\PSoC4/BLE.c ****         {
 808:.\Generated_Source\PSoC4/BLE.c ****             apiResult = CYBLE_ERROR_INVALID_STATE;
 998              		.loc 1 808 0
 999 00b0 0E23     		mov	r3, #14
 1000 00b2 FB18     		add	r3, r7, r3
 1001 00b4 0422     		mov	r2, #4
 1002 00b6 FF32     		add	r2, r2, #255
 1003 00b8 1A80     		strh	r2, [r3]
ARM GAS  C:\Users\ADMINI~1\AppData\Local\Temp\cczpe50f.s 			page 33


 1004              	.L40:
 809:.\Generated_Source\PSoC4/BLE.c ****         }
 810:.\Generated_Source\PSoC4/BLE.c **** 
 811:.\Generated_Source\PSoC4/BLE.c ****         return (apiResult);
 1005              		.loc 1 811 0
 1006 00ba 0E23     		mov	r3, #14
 1007 00bc FB18     		add	r3, r7, r3
 1008 00be 1B88     		ldrh	r3, [r3]
 812:.\Generated_Source\PSoC4/BLE.c ****     }
 1009              		.loc 1 812 0
 1010 00c0 181C     		mov	r0, r3
 1011 00c2 BD46     		mov	sp, r7
 1012 00c4 05B0     		add	sp, sp, #20
 1013              		@ sp needed
 1014 00c6 90BD     		pop	{r4, r7, pc}
 1015              	.L47:
 1016              		.align	2
 1017              	.L46:
 1018 00c8 00000000 		.word	cyBle_state
 1019 00cc 00000000 		.word	cyBle_eventHandlerFlag
 1020 00d0 00000000 		.word	cyBle_discoveryModeInfo
 1021 00d4 00000000 		.word	cyBle_advertisingIntervalType
 1022              		.cfi_endproc
 1023              	.LFE8:
 1024              		.size	CyBle_GappStartAdvertisement, .-CyBle_GappStartAdvertisement
 1025              		.section	.text.CyBle_GappStopAdvertisement,"ax",%progbits
 1026              		.align	2
 1027              		.global	CyBle_GappStopAdvertisement
 1028              		.code	16
 1029              		.thumb_func
 1030              		.type	CyBle_GappStopAdvertisement, %function
 1031              	CyBle_GappStopAdvertisement:
 1032              	.LFB9:
 813:.\Generated_Source\PSoC4/BLE.c **** 
 814:.\Generated_Source\PSoC4/BLE.c ****     
 815:.\Generated_Source\PSoC4/BLE.c ****     /******************************************************************************
 816:.\Generated_Source\PSoC4/BLE.c ****     * Function Name: CyBle_GappStopAdvertisement
 817:.\Generated_Source\PSoC4/BLE.c ****     ***************************************************************************//**
 818:.\Generated_Source\PSoC4/BLE.c ****     * 
 819:.\Generated_Source\PSoC4/BLE.c ****     *   This function can be used to exit from discovery mode. After the execution 
 820:.\Generated_Source\PSoC4/BLE.c ****     *   of this function, there will no longer be any advertisements. On stopping 
 821:.\Generated_Source\PSoC4/BLE.c ****     *   advertising, GAP Peripheral receives CYBLE_EVT_GAPP_ADVERTISEMENT_START_STOP
 822:.\Generated_Source\PSoC4/BLE.c ****     *   event. It is expected that the application layer tracks the function call 
 823:.\Generated_Source\PSoC4/BLE.c ****     *   performed before occurrence of this event as this event can occur on making 
 824:.\Generated_Source\PSoC4/BLE.c ****     *   a call to Cy_BleGappStartAdvertisement(), CyBle_GappEnterDiscoveryMode(), 
 825:.\Generated_Source\PSoC4/BLE.c ****     *   or CyBle_GappStartAdvertisement() functions as well.
 826:.\Generated_Source\PSoC4/BLE.c ****     *   
 827:.\Generated_Source\PSoC4/BLE.c ****     *   The following event occurs on invoking this function:
 828:.\Generated_Source\PSoC4/BLE.c ****     *   * CYBLE_EVT_GAPP_ADVERTISEMENT_START_STOP
 829:.\Generated_Source\PSoC4/BLE.c ****     * 
 830:.\Generated_Source\PSoC4/BLE.c ****     *  \return
 831:.\Generated_Source\PSoC4/BLE.c ****     *   None
 832:.\Generated_Source\PSoC4/BLE.c ****     * 
 833:.\Generated_Source\PSoC4/BLE.c ****     *******************************************************************************/
 834:.\Generated_Source\PSoC4/BLE.c ****     void CyBle_GappStopAdvertisement(void)
 835:.\Generated_Source\PSoC4/BLE.c ****     {
 1033              		.loc 1 835 0
ARM GAS  C:\Users\ADMINI~1\AppData\Local\Temp\cczpe50f.s 			page 34


 1034              		.cfi_startproc
 1035 0000 80B5     		push	{r7, lr}
 1036              		.cfi_def_cfa_offset 8
 1037              		.cfi_offset 7, -8
 1038              		.cfi_offset 14, -4
 1039 0002 00AF     		add	r7, sp, #0
 1040              		.cfi_def_cfa_register 7
 836:.\Generated_Source\PSoC4/BLE.c ****         CyBle_GappExitDiscoveryMode();
 1041              		.loc 1 836 0
 1042 0004 FFF7FEFF 		bl	CyBle_GappExitDiscoveryMode
 837:.\Generated_Source\PSoC4/BLE.c ****         cyBle_eventHandlerFlag |= CYBLE_STOP_FLAG;
 1043              		.loc 1 837 0
 1044 0008 044B     		ldr	r3, .L49
 1045 000a 1B78     		ldrb	r3, [r3]
 1046 000c DBB2     		uxtb	r3, r3
 1047 000e 0822     		mov	r2, #8
 1048 0010 1343     		orr	r3, r2
 1049 0012 DAB2     		uxtb	r2, r3
 1050 0014 014B     		ldr	r3, .L49
 1051 0016 1A70     		strb	r2, [r3]
 838:.\Generated_Source\PSoC4/BLE.c ****     }
 1052              		.loc 1 838 0
 1053 0018 BD46     		mov	sp, r7
 1054              		@ sp needed
 1055 001a 80BD     		pop	{r7, pc}
 1056              	.L50:
 1057              		.align	2
 1058              	.L49:
 1059 001c 00000000 		.word	cyBle_eventHandlerFlag
 1060              		.cfi_endproc
 1061              	.LFE9:
 1062              		.size	CyBle_GappStopAdvertisement, .-CyBle_GappStopAdvertisement
 1063              		.section	.text.CyBle_ChangeAdDeviceAddress,"ax",%progbits
 1064              		.align	2
 1065              		.global	CyBle_ChangeAdDeviceAddress
 1066              		.code	16
 1067              		.thumb_func
 1068              		.type	CyBle_ChangeAdDeviceAddress, %function
 1069              	CyBle_ChangeAdDeviceAddress:
 1070              	.LFB10:
 839:.\Generated_Source\PSoC4/BLE.c ****     
 840:.\Generated_Source\PSoC4/BLE.c ****     
 841:.\Generated_Source\PSoC4/BLE.c ****     /******************************************************************************
 842:.\Generated_Source\PSoC4/BLE.c ****     * Function Name: CyBle_ChangeAdDeviceAddress
 843:.\Generated_Source\PSoC4/BLE.c ****     ***************************************************************************//**
 844:.\Generated_Source\PSoC4/BLE.c ****     * 
 845:.\Generated_Source\PSoC4/BLE.c ****     *  This API is used to set the Bluetooth device address into the advertisement 
 846:.\Generated_Source\PSoC4/BLE.c ****     *  or scan response data structure.
 847:.\Generated_Source\PSoC4/BLE.c ****     * 
 848:.\Generated_Source\PSoC4/BLE.c ****     *  \param bdAddr: Bluetooth Device address. The variable is of type CYBLE_GAP_BD_ADDR_T
 849:.\Generated_Source\PSoC4/BLE.c ****     *  \param dest: 0 - selects advertisement structure, not zero value selects scan 
 850:.\Generated_Source\PSoC4/BLE.c ****     *               response structure.
 851:.\Generated_Source\PSoC4/BLE.c ****     * 
 852:.\Generated_Source\PSoC4/BLE.c ****     * \return
 853:.\Generated_Source\PSoC4/BLE.c ****     *  None
 854:.\Generated_Source\PSoC4/BLE.c ****     *  
 855:.\Generated_Source\PSoC4/BLE.c ****     *******************************************************************************/
ARM GAS  C:\Users\ADMINI~1\AppData\Local\Temp\cczpe50f.s 			page 35


 856:.\Generated_Source\PSoC4/BLE.c ****     void CyBle_ChangeAdDeviceAddress(const CYBLE_GAP_BD_ADDR_T* bdAddr, uint8 dest)
 857:.\Generated_Source\PSoC4/BLE.c ****     {
 1071              		.loc 1 857 0
 1072              		.cfi_startproc
 1073 0000 80B5     		push	{r7, lr}
 1074              		.cfi_def_cfa_offset 8
 1075              		.cfi_offset 7, -8
 1076              		.cfi_offset 14, -4
 1077 0002 84B0     		sub	sp, sp, #16
 1078              		.cfi_def_cfa_offset 24
 1079 0004 00AF     		add	r7, sp, #0
 1080              		.cfi_def_cfa_register 7
 1081 0006 7860     		str	r0, [r7, #4]
 1082 0008 0A1C     		mov	r2, r1
 1083 000a FB1C     		add	r3, r7, #3
 1084 000c 1A70     		strb	r2, [r3]
 858:.\Generated_Source\PSoC4/BLE.c ****         uint8 i;
 859:.\Generated_Source\PSoC4/BLE.c ****         uint8 *destBuffer = NULL;
 1085              		.loc 1 859 0
 1086 000e 0023     		mov	r3, #0
 1087 0010 BB60     		str	r3, [r7, #8]
 860:.\Generated_Source\PSoC4/BLE.c ****         
 861:.\Generated_Source\PSoC4/BLE.c ****         if(dest == 0u)      /* Destination - advertising structure */
 862:.\Generated_Source\PSoC4/BLE.c ****         {
 863:.\Generated_Source\PSoC4/BLE.c ****             #ifdef CYBLE_ADV_PKT_INDEX_BLUETOOTH_DEVICE_ADDRESS
 864:.\Generated_Source\PSoC4/BLE.c ****                 destBuffer = &cyBle_discoveryData.advData[CYBLE_ADV_PKT_INDEX_BLUETOOTH_DEVICE_ADDR
 865:.\Generated_Source\PSoC4/BLE.c ****             #endif /* CYBLE_ADV_PKT_INDEX_BLUETOOTH_DEVICE_ADDRESS */
 866:.\Generated_Source\PSoC4/BLE.c ****         }
 867:.\Generated_Source\PSoC4/BLE.c ****         else                /* Destination - scan response structure */
 868:.\Generated_Source\PSoC4/BLE.c ****         {
 869:.\Generated_Source\PSoC4/BLE.c ****             #ifdef CYBLE_SCN_PKT_INDEX_BLUETOOTH_DEVICE_ADDRESS
 870:.\Generated_Source\PSoC4/BLE.c ****                 destBuffer = &cyBle_scanRspData.scanRspData[CYBLE_SCN_PKT_INDEX_BLUETOOTH_DEVICE_AD
 871:.\Generated_Source\PSoC4/BLE.c ****             #endif /* CYBLE_SCN_PKT_INDEX_BLUETOOTH_DEVICE_ADDRESS */    
 872:.\Generated_Source\PSoC4/BLE.c ****         }
 873:.\Generated_Source\PSoC4/BLE.c ****         
 874:.\Generated_Source\PSoC4/BLE.c ****         if(destBuffer != NULL)
 1088              		.loc 1 874 0
 1089 0012 BB68     		ldr	r3, [r7, #8]
 1090 0014 002B     		cmp	r3, #0
 1091 0016 20D0     		beq	.L51
 875:.\Generated_Source\PSoC4/BLE.c ****         {
 876:.\Generated_Source\PSoC4/BLE.c ****             /* Update Device Address type */
 877:.\Generated_Source\PSoC4/BLE.c ****             destBuffer[0u] = bdAddr->type;
 1092              		.loc 1 877 0
 1093 0018 7B68     		ldr	r3, [r7, #4]
 1094 001a 9A79     		ldrb	r2, [r3, #6]
 1095 001c BB68     		ldr	r3, [r7, #8]
 1096 001e 1A70     		strb	r2, [r3]
 878:.\Generated_Source\PSoC4/BLE.c ****             
 879:.\Generated_Source\PSoC4/BLE.c ****             for(i = 0u; i < CYBLE_GAP_BD_ADDR_SIZE; i++)
 1097              		.loc 1 879 0
 1098 0020 0F23     		mov	r3, #15
 1099 0022 FB18     		add	r3, r7, r3
 1100 0024 0022     		mov	r2, #0
 1101 0026 1A70     		strb	r2, [r3]
 1102 0028 12E0     		b	.L53
 1103              	.L54:
ARM GAS  C:\Users\ADMINI~1\AppData\Local\Temp\cczpe50f.s 			page 36


 880:.\Generated_Source\PSoC4/BLE.c ****             {
 881:.\Generated_Source\PSoC4/BLE.c ****                 destBuffer[i + 1u] = bdAddr->bdAddr[i];
 1104              		.loc 1 881 0 discriminator 3
 1105 002a 0F23     		mov	r3, #15
 1106 002c FB18     		add	r3, r7, r3
 1107 002e 1B78     		ldrb	r3, [r3]
 1108 0030 0133     		add	r3, r3, #1
 1109 0032 BA68     		ldr	r2, [r7, #8]
 1110 0034 D318     		add	r3, r2, r3
 1111 0036 0F22     		mov	r2, #15
 1112 0038 BA18     		add	r2, r7, r2
 1113 003a 1278     		ldrb	r2, [r2]
 1114 003c 7968     		ldr	r1, [r7, #4]
 1115 003e 8A5C     		ldrb	r2, [r1, r2]
 1116 0040 1A70     		strb	r2, [r3]
 879:.\Generated_Source\PSoC4/BLE.c ****             {
 1117              		.loc 1 879 0 discriminator 3
 1118 0042 0F23     		mov	r3, #15
 1119 0044 FB18     		add	r3, r7, r3
 1120 0046 1A78     		ldrb	r2, [r3]
 1121 0048 0F23     		mov	r3, #15
 1122 004a FB18     		add	r3, r7, r3
 1123 004c 0132     		add	r2, r2, #1
 1124 004e 1A70     		strb	r2, [r3]
 1125              	.L53:
 879:.\Generated_Source\PSoC4/BLE.c ****             {
 1126              		.loc 1 879 0 is_stmt 0 discriminator 1
 1127 0050 0F23     		mov	r3, #15
 1128 0052 FB18     		add	r3, r7, r3
 1129 0054 1B78     		ldrb	r3, [r3]
 1130 0056 052B     		cmp	r3, #5
 1131 0058 E7D9     		bls	.L54
 1132              	.L51:
 882:.\Generated_Source\PSoC4/BLE.c ****             }
 883:.\Generated_Source\PSoC4/BLE.c ****         }
 884:.\Generated_Source\PSoC4/BLE.c ****     }
 1133              		.loc 1 884 0 is_stmt 1
 1134 005a BD46     		mov	sp, r7
 1135 005c 04B0     		add	sp, sp, #16
 1136              		@ sp needed
 1137 005e 80BD     		pop	{r7, pc}
 1138              		.cfi_endproc
 1139              	.LFE10:
 1140              		.size	CyBle_ChangeAdDeviceAddress, .-CyBle_ChangeAdDeviceAddress
 1141              		.section	.text.CyBle_ChangeAdLocalName,"ax",%progbits
 1142              		.align	2
 1143              		.code	16
 1144              		.thumb_func
 1145              		.type	CyBle_ChangeAdLocalName, %function
 1146              	CyBle_ChangeAdLocalName:
 1147              	.LFB11:
 885:.\Generated_Source\PSoC4/BLE.c ****   
 886:.\Generated_Source\PSoC4/BLE.c **** #endif /* CYBLE_GAP_ROLE_PERIPHERAL || CYBLE_GAP_ROLE_BROADCASTER */
 887:.\Generated_Source\PSoC4/BLE.c **** 
 888:.\Generated_Source\PSoC4/BLE.c **** 
 889:.\Generated_Source\PSoC4/BLE.c **** #if(CYBLE_GAP_ROLE_CENTRAL || CYBLE_GAP_ROLE_OBSERVER)
 890:.\Generated_Source\PSoC4/BLE.c **** 
ARM GAS  C:\Users\ADMINI~1\AppData\Local\Temp\cczpe50f.s 			page 37


 891:.\Generated_Source\PSoC4/BLE.c ****     /******************************************************************************
 892:.\Generated_Source\PSoC4/BLE.c ****     * Function Name: CyBle_GapcStartScan
 893:.\Generated_Source\PSoC4/BLE.c ****     ***************************************************************************//**
 894:.\Generated_Source\PSoC4/BLE.c ****     * 
 895:.\Generated_Source\PSoC4/BLE.c ****     *   This function is used for discovering GAP peripheral devices that are 
 896:.\Generated_Source\PSoC4/BLE.c ****     *   available for connection. It performs the scanning routine using the 
 897:.\Generated_Source\PSoC4/BLE.c ****     *   parameters entered in the component's customizer.
 898:.\Generated_Source\PSoC4/BLE.c ****     *   
 899:.\Generated_Source\PSoC4/BLE.c ****     *   As soon as the discovery operation starts, CYBLE_EVT_GAPC_SCAN_START_STOP 
 900:.\Generated_Source\PSoC4/BLE.c ****     *   event is generated. The CYBLE_EVT_GAPC_SCAN_PROGRESS_RESULT event is 
 901:.\Generated_Source\PSoC4/BLE.c ****     *   generated when a GAP peripheral device is located. There are three discovery
 902:.\Generated_Source\PSoC4/BLE.c ****     *   procedures can be selected in the customizer's GUI:
 903:.\Generated_Source\PSoC4/BLE.c ****     *   
 904:.\Generated_Source\PSoC4/BLE.c ****     *   * Observation procedure: A device performing the observer role receives only
 905:.\Generated_Source\PSoC4/BLE.c ****     *                            advertisement data from devices irrespective of 
 906:.\Generated_Source\PSoC4/BLE.c ****     *                            their discoverable mode settings. Advertisement 
 907:.\Generated_Source\PSoC4/BLE.c ****     *                            data received is provided by the event,      
 908:.\Generated_Source\PSoC4/BLE.c ****     *                            CYBLE_EVT_GAPC_SCAN_PROGRESS_RESULT. This procedure
 909:.\Generated_Source\PSoC4/BLE.c ****     *                            requires the scanType sub parameter to be passive
 910:.\Generated_Source\PSoC4/BLE.c ****     *                            scanning. 
 911:.\Generated_Source\PSoC4/BLE.c ****     *   
 912:.\Generated_Source\PSoC4/BLE.c ****     *   * Limited Discovery procedure: A device performing the limited discovery
 913:.\Generated_Source\PSoC4/BLE.c ****     *                                  procedure receives advertisement data and 
 914:.\Generated_Source\PSoC4/BLE.c ****     *                                  scan# response data from devices in the 
 915:.\Generated_Source\PSoC4/BLE.c ****     *                                  limited discoverable mode only. Received data
 916:.\Generated_Source\PSoC4/BLE.c ****     *                                  is provided by the event, 
 917:.\Generated_Source\PSoC4/BLE.c ****     *                                  CYBLE_EVT_GAPC_SCAN_PROGRESS_RESULT. This 
 918:.\Generated_Source\PSoC4/BLE.c ****     *                                  procedure requires the scanType sub-parameter 
 919:.\Generated_Source\PSoC4/BLE.c ****     *                                  to be active scanning.
 920:.\Generated_Source\PSoC4/BLE.c ****     *   
 921:.\Generated_Source\PSoC4/BLE.c ****     *   * General Discovery procedure: A device performing the general discovery 
 922:.\Generated_Source\PSoC4/BLE.c ****     *                                  procedure receives the advertisement data and
 923:.\Generated_Source\PSoC4/BLE.c ****     *                                  scan response data from devices in both 
 924:.\Generated_Source\PSoC4/BLE.c ****     *                                  limited discoverable mode and the general 
 925:.\Generated_Source\PSoC4/BLE.c ****     *                                  discoverable mode. Received data is provided
 926:.\Generated_Source\PSoC4/BLE.c ****     *                                  by the event,
 927:.\Generated_Source\PSoC4/BLE.c ****     *                                  CYBLE_EVT_GAPC_SCAN_PROGRESS_RESULT. This 
 928:.\Generated_Source\PSoC4/BLE.c ****     *                                  procedure requires the scanType sub-parameter
 929:.\Generated_Source\PSoC4/BLE.c ****     *                                  to be active scanning.
 930:.\Generated_Source\PSoC4/BLE.c ****     *   
 931:.\Generated_Source\PSoC4/BLE.c ****     *   Every Advertisement / Scan response packet received results in a new event, 
 932:.\Generated_Source\PSoC4/BLE.c ****     *   CYBLE_EVT_GAPC_SCAN_PROGRESS_RESULT.
 933:.\Generated_Source\PSoC4/BLE.c ****     *   If 'scanTo' sub-parameter is a non-zero value, then upon commencement of 
 934:.\Generated_Source\PSoC4/BLE.c ****     *   discovery procedure and elapsed time = 'scanTo', CYBLE_EVT_TIMEOUT event
 935:.\Generated_Source\PSoC4/BLE.c ****     *   is generated with the event parameter indicating CYBLE_GAP_SCAN_TO.
 936:.\Generated_Source\PSoC4/BLE.c ****     *   Possible generated events are:
 937:.\Generated_Source\PSoC4/BLE.c ****     *   * CYBLE_EVT_GAPC_SCAN_START_STOP: If a device started or stopped scanning. 
 938:.\Generated_Source\PSoC4/BLE.c ****     *                                     Use CyBle_GetState() to determine the 
 939:.\Generated_Source\PSoC4/BLE.c ****     *                                     state. Sequential scanning could be 
 940:.\Generated_Source\PSoC4/BLE.c ****     *                                     started when CYBLE_STATE_DISCONNECTED 
 941:.\Generated_Source\PSoC4/BLE.c ****     *                                     state is returned. 
 942:.\Generated_Source\PSoC4/BLE.c ****     *   * CYBLE_EVT_GAPC_SCAN_PROGRESS_RESULT 
 943:.\Generated_Source\PSoC4/BLE.c ****     *   * CYBLE_EVT_TIMEOUT (CYBLE_GAP_SCAN_TO)
 944:.\Generated_Source\PSoC4/BLE.c ****     * 
 945:.\Generated_Source\PSoC4/BLE.c ****     *   \param scanningIntervalType:  Fast or slow scanning interval with
 946:.\Generated_Source\PSoC4/BLE.c ****     *       timings entered in Scan settings section of the customizer.
 947:.\Generated_Source\PSoC4/BLE.c ****     * 	  * CYBLE_SCANNING_FAST   0x00u
ARM GAS  C:\Users\ADMINI~1\AppData\Local\Temp\cczpe50f.s 			page 38


 948:.\Generated_Source\PSoC4/BLE.c ****     * 	  * CYBLE_SCANNING_SLOW   0x01u
 949:.\Generated_Source\PSoC4/BLE.c ****     * 	  * CYBLE_SCANNING_CUSTOM 0x02u
 950:.\Generated_Source\PSoC4/BLE.c ****     * 
 951:.\Generated_Source\PSoC4/BLE.c ****     * \return
 952:.\Generated_Source\PSoC4/BLE.c ****     *  CYBLE_API_RESULT_T : Return value indicates if the function succeeded or
 953:.\Generated_Source\PSoC4/BLE.c ****     *  failed. Following are the possible error codes.
 954:.\Generated_Source\PSoC4/BLE.c ****     *
 955:.\Generated_Source\PSoC4/BLE.c ****     *   Errors codes                       | Description
 956:.\Generated_Source\PSoC4/BLE.c ****     *   ---------------------------------- | -----------------------------------
 957:.\Generated_Source\PSoC4/BLE.c ****     *   CYBLE_ERROR_OK                     | On successful operation.
 958:.\Generated_Source\PSoC4/BLE.c ****     *   CYBLE_ERROR_STACK_INTERNAL         | An error occurred in the BLE stack.
 959:.\Generated_Source\PSoC4/BLE.c ****     *   CYBLE_ERROR_INVALID_PARAMETER      | On passing an invalid parameter.
 960:.\Generated_Source\PSoC4/BLE.c ****     *  
 961:.\Generated_Source\PSoC4/BLE.c ****     *******************************************************************************/
 962:.\Generated_Source\PSoC4/BLE.c ****     CYBLE_API_RESULT_T CyBle_GapcStartScan(uint8 scanningIntervalType)
 963:.\Generated_Source\PSoC4/BLE.c ****     {
 964:.\Generated_Source\PSoC4/BLE.c ****         CYBLE_API_RESULT_T apiResult;
 965:.\Generated_Source\PSoC4/BLE.c **** 
 966:.\Generated_Source\PSoC4/BLE.c ****         if(scanningIntervalType > CYBLE_SCANNING_CUSTOM)
 967:.\Generated_Source\PSoC4/BLE.c ****         {
 968:.\Generated_Source\PSoC4/BLE.c ****             apiResult = CYBLE_ERROR_INVALID_PARAMETER;
 969:.\Generated_Source\PSoC4/BLE.c ****         }
 970:.\Generated_Source\PSoC4/BLE.c ****         else
 971:.\Generated_Source\PSoC4/BLE.c ****         {
 972:.\Generated_Source\PSoC4/BLE.c ****             if(scanningIntervalType == CYBLE_SCANNING_FAST)
 973:.\Generated_Source\PSoC4/BLE.c ****             {
 974:.\Generated_Source\PSoC4/BLE.c ****                 cyBle_discoveryInfo.scanTo = CYBLE_FAST_SCAN_TIMEOUT;
 975:.\Generated_Source\PSoC4/BLE.c ****                 cyBle_discoveryInfo.scanIntv = CYBLE_FAST_SCAN_INTERVAL;
 976:.\Generated_Source\PSoC4/BLE.c ****                 cyBle_discoveryInfo.scanWindow = CYBLE_FAST_SCAN_WINDOW;
 977:.\Generated_Source\PSoC4/BLE.c ****             }
 978:.\Generated_Source\PSoC4/BLE.c ****             else if(scanningIntervalType == CYBLE_SCANNING_SLOW)
 979:.\Generated_Source\PSoC4/BLE.c ****             {
 980:.\Generated_Source\PSoC4/BLE.c ****                 cyBle_discoveryInfo.scanTo = CYBLE_SLOW_SCAN_TIMEOUT;
 981:.\Generated_Source\PSoC4/BLE.c ****                 cyBle_discoveryInfo.scanIntv = CYBLE_SLOW_SCAN_INTERVAL;
 982:.\Generated_Source\PSoC4/BLE.c ****                 cyBle_discoveryInfo.scanWindow = CYBLE_SLOW_SCAN_WINDOW;
 983:.\Generated_Source\PSoC4/BLE.c ****             }       
 984:.\Generated_Source\PSoC4/BLE.c ****             else /* Do not update scanning intervals */
 985:.\Generated_Source\PSoC4/BLE.c ****             {
 986:.\Generated_Source\PSoC4/BLE.c ****             }
 987:.\Generated_Source\PSoC4/BLE.c ****             
 988:.\Generated_Source\PSoC4/BLE.c ****             cyBle_scanningIntervalType = scanningIntervalType;
 989:.\Generated_Source\PSoC4/BLE.c ****             apiResult = CyBle_GapcStartDiscovery(&cyBle_discoveryInfo);
 990:.\Generated_Source\PSoC4/BLE.c ****         
 991:.\Generated_Source\PSoC4/BLE.c ****             if(CYBLE_ERROR_OK == apiResult)
 992:.\Generated_Source\PSoC4/BLE.c ****             {
 993:.\Generated_Source\PSoC4/BLE.c ****                 cyBle_eventHandlerFlag |= CYBLE_START_FLAG;
 994:.\Generated_Source\PSoC4/BLE.c ****             }
 995:.\Generated_Source\PSoC4/BLE.c ****         }
 996:.\Generated_Source\PSoC4/BLE.c ****        
 997:.\Generated_Source\PSoC4/BLE.c ****         return (apiResult);
 998:.\Generated_Source\PSoC4/BLE.c ****     }
 999:.\Generated_Source\PSoC4/BLE.c ****     
1000:.\Generated_Source\PSoC4/BLE.c ****     
1001:.\Generated_Source\PSoC4/BLE.c ****     /******************************************************************************
1002:.\Generated_Source\PSoC4/BLE.c ****     * Function Name: CyBle_GapcStopScan
1003:.\Generated_Source\PSoC4/BLE.c ****     ***************************************************************************//**
1004:.\Generated_Source\PSoC4/BLE.c ****     * 
ARM GAS  C:\Users\ADMINI~1\AppData\Local\Temp\cczpe50f.s 			page 39


1005:.\Generated_Source\PSoC4/BLE.c ****     *   This function used to stop the discovery of devices. On stopping discovery
1006:.\Generated_Source\PSoC4/BLE.c ****     *   operation, CYBLE_EVT_GAPC_SCAN_START_STOP event is generated. Application
1007:.\Generated_Source\PSoC4/BLE.c ****     *   layer needs to keep track of the function call made before receiving this
1008:.\Generated_Source\PSoC4/BLE.c ****     *   event to associate this event with either the start or stop discovery
1009:.\Generated_Source\PSoC4/BLE.c ****     *   function.
1010:.\Generated_Source\PSoC4/BLE.c ****     * 
1011:.\Generated_Source\PSoC4/BLE.c ****     *   Possible events generated are:
1012:.\Generated_Source\PSoC4/BLE.c ****     *    * CYBLE_EVT_GAPC_SCAN_START_STOP
1013:.\Generated_Source\PSoC4/BLE.c ****     * 
1014:.\Generated_Source\PSoC4/BLE.c ****     *  \return
1015:.\Generated_Source\PSoC4/BLE.c ****     *   None
1016:.\Generated_Source\PSoC4/BLE.c ****     * 
1017:.\Generated_Source\PSoC4/BLE.c ****     *******************************************************************************/
1018:.\Generated_Source\PSoC4/BLE.c ****     void CyBle_GapcStopScan(void)
1019:.\Generated_Source\PSoC4/BLE.c ****     {
1020:.\Generated_Source\PSoC4/BLE.c ****         CyBle_GapcStopDiscovery();
1021:.\Generated_Source\PSoC4/BLE.c ****         
1022:.\Generated_Source\PSoC4/BLE.c ****         cyBle_eventHandlerFlag |= CYBLE_STOP_FLAG;
1023:.\Generated_Source\PSoC4/BLE.c ****     }
1024:.\Generated_Source\PSoC4/BLE.c **** 
1025:.\Generated_Source\PSoC4/BLE.c ****     
1026:.\Generated_Source\PSoC4/BLE.c **** #endif /* CYBLE_GAP_ROLE_CENTRAL || CYBLE_GAP_ROLE_OBSERVER */
1027:.\Generated_Source\PSoC4/BLE.c **** 
1028:.\Generated_Source\PSoC4/BLE.c **** 
1029:.\Generated_Source\PSoC4/BLE.c **** #if(CYBLE_GAP_ROLE_CENTRAL)
1030:.\Generated_Source\PSoC4/BLE.c **** 
1031:.\Generated_Source\PSoC4/BLE.c ****     /******************************************************************************
1032:.\Generated_Source\PSoC4/BLE.c ****     * Function Name: CyBle_GapcConnectDevice
1033:.\Generated_Source\PSoC4/BLE.c ****     ***************************************************************************//**
1034:.\Generated_Source\PSoC4/BLE.c ****     * 
1035:.\Generated_Source\PSoC4/BLE.c ****     *  This function is used to send a connection request to the remote device with
1036:.\Generated_Source\PSoC4/BLE.c ****     *  the connection parameters set in the component customizer. This function needs
1037:.\Generated_Source\PSoC4/BLE.c ****     *  to be called only once after the target device is discovered by 
1038:.\Generated_Source\PSoC4/BLE.c ****     *  CyBle_GapcStartScan() and further scanning has stopped. Scanning is 
1039:.\Generated_Source\PSoC4/BLE.c ****     *  successfully stopped on invoking CyBle_GapcStopScan() and then receiving the
1040:.\Generated_Source\PSoC4/BLE.c ****     *  event CYBLE_EVT_GAPC_SCAN_START_STOP with sub-parameter 'success' = 0x01u.
1041:.\Generated_Source\PSoC4/BLE.c ****     *  
1042:.\Generated_Source\PSoC4/BLE.c ****     *  On successful connection, the following events are generated at the GAP 
1043:.\Generated_Source\PSoC4/BLE.c ****     *  Central device (as well as the GAP Peripheral device), in the following order.
1044:.\Generated_Source\PSoC4/BLE.c ****     *  * CYBLE_EVT_GATT_CONNECT_IND
1045:.\Generated_Source\PSoC4/BLE.c ****     *  * CYBLE_EVT_GAP_DEVICE_CONNECTED - If the device connects to a GAP Central and 
1046:.\Generated_Source\PSoC4/BLE.c ****     *    Link Layer Privacy is disabled in component customizer.
1047:.\Generated_Source\PSoC4/BLE.c ****     *  * CYBLE_EVT_GAP_ENHANCE_CONN_COMPLETE - If the device connects to a GAP Central and 
1048:.\Generated_Source\PSoC4/BLE.c ****     *    Link Layer Privacy is enabled in component customizer.
1049:.\Generated_Source\PSoC4/BLE.c ****     *  * CYBLE_EVT_GAP_DEVICE_CONNECTED
1050:.\Generated_Source\PSoC4/BLE.c ****     *  
1051:.\Generated_Source\PSoC4/BLE.c ****     *  A procedure is considered to have timed out if a connection response packet is 
1052:.\Generated_Source\PSoC4/BLE.c ****     *  not received within time set by cyBle_connectingTimeout global variable
1053:.\Generated_Source\PSoC4/BLE.c ****     *  (30 seconds by default). CYBLE_EVT_TIMEOUT event with CYBLE_GENERIC_TO parameter
1054:.\Generated_Source\PSoC4/BLE.c ****     *  will indicate about connection procedure timeout. Connection will automatically
1055:.\Generated_Source\PSoC4/BLE.c ****     *  be canceled and state will be changed to CYBLE_STATE_DISCONNECTED.
1056:.\Generated_Source\PSoC4/BLE.c ****     * 
1057:.\Generated_Source\PSoC4/BLE.c ****     *  \param address: The device address of the remote device to connect to. 
1058:.\Generated_Source\PSoC4/BLE.c ****     *  
1059:.\Generated_Source\PSoC4/BLE.c ****     * \return
1060:.\Generated_Source\PSoC4/BLE.c ****     *  CYBLE_API_RESULT_T : Return value indicates if the function succeeded or 
1061:.\Generated_Source\PSoC4/BLE.c ****     *  failed. Following are the possible error codes.
ARM GAS  C:\Users\ADMINI~1\AppData\Local\Temp\cczpe50f.s 			page 40


1062:.\Generated_Source\PSoC4/BLE.c ****     *
1063:.\Generated_Source\PSoC4/BLE.c ****     *   Errors codes                       | Description
1064:.\Generated_Source\PSoC4/BLE.c ****     *   ------------                       | -----------
1065:.\Generated_Source\PSoC4/BLE.c ****     *   CYBLE_ERROR_OK                     | On successful operation.
1066:.\Generated_Source\PSoC4/BLE.c ****     *   CYBLE_ERROR_STACK_INTERNAL         | On error occurred in the BLE stack.
1067:.\Generated_Source\PSoC4/BLE.c ****     *   CYBLE_ERROR_INVALID_PARAMETER      | On passing an invalid parameter.
1068:.\Generated_Source\PSoC4/BLE.c ****     *   CYBLE_ERROR_INVALID_STATE          | On calling this API not in Disconnected state.
1069:.\Generated_Source\PSoC4/BLE.c ****     *  
1070:.\Generated_Source\PSoC4/BLE.c ****     ******************************************************************************/
1071:.\Generated_Source\PSoC4/BLE.c ****     CYBLE_API_RESULT_T CyBle_GapcConnectDevice(const CYBLE_GAP_BD_ADDR_T * address)
1072:.\Generated_Source\PSoC4/BLE.c ****     {
1073:.\Generated_Source\PSoC4/BLE.c ****         CYBLE_API_RESULT_T apiResult;
1074:.\Generated_Source\PSoC4/BLE.c ****         uint8 i;
1075:.\Generated_Source\PSoC4/BLE.c **** 
1076:.\Generated_Source\PSoC4/BLE.c ****         if(CyBle_GetState() != CYBLE_STATE_DISCONNECTED)
1077:.\Generated_Source\PSoC4/BLE.c ****         {
1078:.\Generated_Source\PSoC4/BLE.c ****             apiResult = CYBLE_ERROR_INVALID_STATE;
1079:.\Generated_Source\PSoC4/BLE.c ****         }
1080:.\Generated_Source\PSoC4/BLE.c ****         else if(address == NULL)
1081:.\Generated_Source\PSoC4/BLE.c ****         {
1082:.\Generated_Source\PSoC4/BLE.c ****             apiResult = CYBLE_ERROR_INVALID_PARAMETER;
1083:.\Generated_Source\PSoC4/BLE.c ****         }
1084:.\Generated_Source\PSoC4/BLE.c ****         else
1085:.\Generated_Source\PSoC4/BLE.c ****         {
1086:.\Generated_Source\PSoC4/BLE.c ****             for(i = 0u; i < CYBLE_GAP_BD_ADDR_SIZE; i++)
1087:.\Generated_Source\PSoC4/BLE.c ****             {
1088:.\Generated_Source\PSoC4/BLE.c ****                 cyBle_connectionParameters.peerBdAddr[i] = address->bdAddr[i];
1089:.\Generated_Source\PSoC4/BLE.c ****             }
1090:.\Generated_Source\PSoC4/BLE.c ****             cyBle_connectionParameters.peerAddrType = address -> type;
1091:.\Generated_Source\PSoC4/BLE.c ****             apiResult = CyBle_GapcInitConnection(&cyBle_connectionParameters);
1092:.\Generated_Source\PSoC4/BLE.c ****             
1093:.\Generated_Source\PSoC4/BLE.c ****             if(apiResult == CYBLE_ERROR_OK)
1094:.\Generated_Source\PSoC4/BLE.c ****             {
1095:.\Generated_Source\PSoC4/BLE.c ****                 CyBle_SetState(CYBLE_STATE_CONNECTING);
1096:.\Generated_Source\PSoC4/BLE.c ****                 if(cyBle_connectingTimeout != 0u)
1097:.\Generated_Source\PSoC4/BLE.c ****                 {
1098:.\Generated_Source\PSoC4/BLE.c ****                     (void)CyBle_StartTimer(cyBle_connectingTimeout);
1099:.\Generated_Source\PSoC4/BLE.c ****                 }
1100:.\Generated_Source\PSoC4/BLE.c ****             }
1101:.\Generated_Source\PSoC4/BLE.c ****         }
1102:.\Generated_Source\PSoC4/BLE.c ****         return (apiResult);
1103:.\Generated_Source\PSoC4/BLE.c ****     }
1104:.\Generated_Source\PSoC4/BLE.c ****     
1105:.\Generated_Source\PSoC4/BLE.c **** 
1106:.\Generated_Source\PSoC4/BLE.c ****     /******************************************************************************
1107:.\Generated_Source\PSoC4/BLE.c ****     * Function Name: CyBle_GapcCancelDeviceConnection
1108:.\Generated_Source\PSoC4/BLE.c ****     ***************************************************************************//**
1109:.\Generated_Source\PSoC4/BLE.c ****     * 
1110:.\Generated_Source\PSoC4/BLE.c ****     *  This function cancels a previously initiated connection with the remote 
1111:.\Generated_Source\PSoC4/BLE.c ****     *  device. It is a blocking function. No event is generated on calling this 
1112:.\Generated_Source\PSoC4/BLE.c ****     *  function. If the devices are already connected then this function should not
1113:.\Generated_Source\PSoC4/BLE.c ****     *  be used. If you intend to disconnect from an existing connection, the function
1114:.\Generated_Source\PSoC4/BLE.c ****     *  CyBle_GapDisconnect() should be used.
1115:.\Generated_Source\PSoC4/BLE.c ****     * 
1116:.\Generated_Source\PSoC4/BLE.c ****     * \return
1117:.\Generated_Source\PSoC4/BLE.c ****     *  CYBLE_API_RESULT_T : Return value indicates if the function succeeded or 
1118:.\Generated_Source\PSoC4/BLE.c ****     *  failed. Following are the possible error codes.
ARM GAS  C:\Users\ADMINI~1\AppData\Local\Temp\cczpe50f.s 			page 41


1119:.\Generated_Source\PSoC4/BLE.c ****     *
1120:.\Generated_Source\PSoC4/BLE.c ****     *   Errors codes                       | Description
1121:.\Generated_Source\PSoC4/BLE.c ****     *   ---------------------------------- | --------------------------------------
1122:.\Generated_Source\PSoC4/BLE.c ****     *   CYBLE_ERROR_OK                     | On successful operation.
1123:.\Generated_Source\PSoC4/BLE.c ****     *   CYBLE_ERROR_STACK_INTERNAL         | An error occurred in the BLE stack.
1124:.\Generated_Source\PSoC4/BLE.c ****     *   CYBLE_ERROR_INVALID_STATE          | On calling this API not in Connecting state.
1125:.\Generated_Source\PSoC4/BLE.c ****     *  
1126:.\Generated_Source\PSoC4/BLE.c ****     *******************************************************************************/
1127:.\Generated_Source\PSoC4/BLE.c ****     CYBLE_API_RESULT_T CyBle_GapcCancelDeviceConnection(void)
1128:.\Generated_Source\PSoC4/BLE.c ****     {
1129:.\Generated_Source\PSoC4/BLE.c ****         CYBLE_API_RESULT_T apiResult;
1130:.\Generated_Source\PSoC4/BLE.c ****         
1131:.\Generated_Source\PSoC4/BLE.c ****         if(CyBle_GetState() != CYBLE_STATE_CONNECTING)
1132:.\Generated_Source\PSoC4/BLE.c ****         {
1133:.\Generated_Source\PSoC4/BLE.c ****             apiResult = CYBLE_ERROR_INVALID_STATE;
1134:.\Generated_Source\PSoC4/BLE.c ****         }
1135:.\Generated_Source\PSoC4/BLE.c ****         else 
1136:.\Generated_Source\PSoC4/BLE.c ****         {
1137:.\Generated_Source\PSoC4/BLE.c ****             apiResult = CyBle_GapcCancelConnection();
1138:.\Generated_Source\PSoC4/BLE.c ****             
1139:.\Generated_Source\PSoC4/BLE.c ****             if(cyBle_connectingTimeout != 0u)
1140:.\Generated_Source\PSoC4/BLE.c ****             {
1141:.\Generated_Source\PSoC4/BLE.c ****                 (void)CyBle_StopTimer();
1142:.\Generated_Source\PSoC4/BLE.c ****             }
1143:.\Generated_Source\PSoC4/BLE.c **** 
1144:.\Generated_Source\PSoC4/BLE.c ****             if(apiResult == CYBLE_ERROR_OK)
1145:.\Generated_Source\PSoC4/BLE.c ****             {
1146:.\Generated_Source\PSoC4/BLE.c ****                 CyBle_SetState(CYBLE_STATE_DISCONNECTED);
1147:.\Generated_Source\PSoC4/BLE.c ****             }
1148:.\Generated_Source\PSoC4/BLE.c ****         }
1149:.\Generated_Source\PSoC4/BLE.c ****         return (apiResult);
1150:.\Generated_Source\PSoC4/BLE.c ****     }    
1151:.\Generated_Source\PSoC4/BLE.c **** 
1152:.\Generated_Source\PSoC4/BLE.c ****     
1153:.\Generated_Source\PSoC4/BLE.c **** #endif /* CYBLE_GAP_ROLE_CENTRAL */
1154:.\Generated_Source\PSoC4/BLE.c **** 
1155:.\Generated_Source\PSoC4/BLE.c **** 
1156:.\Generated_Source\PSoC4/BLE.c **** #if(CYBLE_GATT_ROLE_SERVER)
1157:.\Generated_Source\PSoC4/BLE.c **** 
1158:.\Generated_Source\PSoC4/BLE.c **** #if(CYBLE_GAP_ROLE_PERIPHERAL)
1159:.\Generated_Source\PSoC4/BLE.c **** 
1160:.\Generated_Source\PSoC4/BLE.c ****         /******************************************************************************
1161:.\Generated_Source\PSoC4/BLE.c ****         * Function Name: CyBle_ChangeAdLocalName
1162:.\Generated_Source\PSoC4/BLE.c ****         ***************************************************************************//**
1163:.\Generated_Source\PSoC4/BLE.c ****         *  This API is used to set the local device name in the advertisement or scan 
1164:.\Generated_Source\PSoC4/BLE.c ****         *  response data structure.
1165:.\Generated_Source\PSoC4/BLE.c ****         * 
1166:.\Generated_Source\PSoC4/BLE.c ****         *  \param name: The local device name string to be set in advertisement data 
1167:.\Generated_Source\PSoC4/BLE.c ****         *            structure.
1168:.\Generated_Source\PSoC4/BLE.c ****         *  \param dest: 0 - advertisement structure, not zero value selects scan response
1169:.\Generated_Source\PSoC4/BLE.c ****         *              structure.
1170:.\Generated_Source\PSoC4/BLE.c ****         * 
1171:.\Generated_Source\PSoC4/BLE.c ****         * \return
1172:.\Generated_Source\PSoC4/BLE.c ****         *  None
1173:.\Generated_Source\PSoC4/BLE.c ****         *  
1174:.\Generated_Source\PSoC4/BLE.c ****         *******************************************************************************/
1175:.\Generated_Source\PSoC4/BLE.c ****         static void CyBle_ChangeAdLocalName(const char8 name[], uint8 dest)
ARM GAS  C:\Users\ADMINI~1\AppData\Local\Temp\cczpe50f.s 			page 42


1176:.\Generated_Source\PSoC4/BLE.c ****         {
 1148              		.loc 1 1176 0
 1149              		.cfi_startproc
 1150 0000 80B5     		push	{r7, lr}
 1151              		.cfi_def_cfa_offset 8
 1152              		.cfi_offset 7, -8
 1153              		.cfi_offset 14, -4
 1154 0002 86B0     		sub	sp, sp, #24
 1155              		.cfi_def_cfa_offset 32
 1156 0004 00AF     		add	r7, sp, #0
 1157              		.cfi_def_cfa_register 7
 1158 0006 7860     		str	r0, [r7, #4]
 1159 0008 0A1C     		mov	r2, r1
 1160 000a FB1C     		add	r3, r7, #3
 1161 000c 1A70     		strb	r2, [r3]
1177:.\Generated_Source\PSoC4/BLE.c ****             uint8 i;
1178:.\Generated_Source\PSoC4/BLE.c ****             uint8 flag = 0u;
 1162              		.loc 1 1178 0
 1163 000e 1623     		mov	r3, #22
 1164 0010 FB18     		add	r3, r7, r3
 1165 0012 0022     		mov	r2, #0
 1166 0014 1A70     		strb	r2, [r3]
1179:.\Generated_Source\PSoC4/BLE.c ****             uint8 adLength = 0u;
 1167              		.loc 1 1179 0
 1168 0016 1523     		mov	r3, #21
 1169 0018 FB18     		add	r3, r7, r3
 1170 001a 0022     		mov	r2, #0
 1171 001c 1A70     		strb	r2, [r3]
1180:.\Generated_Source\PSoC4/BLE.c ****             uint8 byteCounter = 0u;
 1172              		.loc 1 1180 0
 1173 001e 1423     		mov	r3, #20
 1174 0020 FB18     		add	r3, r7, r3
 1175 0022 0022     		mov	r2, #0
 1176 0024 1A70     		strb	r2, [r3]
1181:.\Generated_Source\PSoC4/BLE.c ****             uint8 *destBuffer;
1182:.\Generated_Source\PSoC4/BLE.c ****             uint8 maxLength;
1183:.\Generated_Source\PSoC4/BLE.c ****             
1184:.\Generated_Source\PSoC4/BLE.c ****             if(dest == 0u)      /* Destination - advertising structure */
 1177              		.loc 1 1184 0
 1178 0026 FB1C     		add	r3, r7, #3
 1179 0028 1B78     		ldrb	r3, [r3]
 1180 002a 002B     		cmp	r3, #0
 1181 002c 07D1     		bne	.L56
1185:.\Generated_Source\PSoC4/BLE.c ****             {
1186:.\Generated_Source\PSoC4/BLE.c ****                 destBuffer = cyBle_discoveryData.advData;
 1182              		.loc 1 1186 0
 1183 002e 5B4B     		ldr	r3, .L71
 1184 0030 3B61     		str	r3, [r7, #16]
1187:.\Generated_Source\PSoC4/BLE.c ****                 maxLength = cyBle_discoveryData.advDataLen;
 1185              		.loc 1 1187 0
 1186 0032 0F23     		mov	r3, #15
 1187 0034 FB18     		add	r3, r7, r3
 1188 0036 594A     		ldr	r2, .L71
 1189 0038 D27F     		ldrb	r2, [r2, #31]
 1190 003a 1A70     		strb	r2, [r3]
 1191 003c 06E0     		b	.L57
 1192              	.L56:
ARM GAS  C:\Users\ADMINI~1\AppData\Local\Temp\cczpe50f.s 			page 43


1188:.\Generated_Source\PSoC4/BLE.c ****             }
1189:.\Generated_Source\PSoC4/BLE.c ****             else                /* Destination - scan response structure */
1190:.\Generated_Source\PSoC4/BLE.c ****             {
1191:.\Generated_Source\PSoC4/BLE.c ****                 destBuffer = cyBle_scanRspData.scanRspData;
 1193              		.loc 1 1191 0
 1194 003e 584B     		ldr	r3, .L71+4
 1195 0040 3B61     		str	r3, [r7, #16]
1192:.\Generated_Source\PSoC4/BLE.c ****                 maxLength = cyBle_scanRspData.scanRspDataLen;
 1196              		.loc 1 1192 0
 1197 0042 0F23     		mov	r3, #15
 1198 0044 FB18     		add	r3, r7, r3
 1199 0046 564A     		ldr	r2, .L71+4
 1200 0048 D27F     		ldrb	r2, [r2, #31]
 1201 004a 1A70     		strb	r2, [r3]
 1202              	.L57:
1193:.\Generated_Source\PSoC4/BLE.c ****             }
1194:.\Generated_Source\PSoC4/BLE.c ****             
1195:.\Generated_Source\PSoC4/BLE.c ****             while((byteCounter < maxLength) && (0u == flag))
 1203              		.loc 1 1195 0
 1204 004c 35E0     		b	.L58
 1205              	.L64:
1196:.\Generated_Source\PSoC4/BLE.c ****             {
1197:.\Generated_Source\PSoC4/BLE.c ****                 adLength = destBuffer[byteCounter];
 1206              		.loc 1 1197 0
 1207 004e 1423     		mov	r3, #20
 1208 0050 FB18     		add	r3, r7, r3
 1209 0052 1B78     		ldrb	r3, [r3]
 1210 0054 3A69     		ldr	r2, [r7, #16]
 1211 0056 D218     		add	r2, r2, r3
 1212 0058 1523     		mov	r3, #21
 1213 005a FB18     		add	r3, r7, r3
 1214 005c 1278     		ldrb	r2, [r2]
 1215 005e 1A70     		strb	r2, [r3]
1198:.\Generated_Source\PSoC4/BLE.c ****                 
1199:.\Generated_Source\PSoC4/BLE.c ****                 if(0u != adLength)
 1216              		.loc 1 1199 0
 1217 0060 1523     		mov	r3, #21
 1218 0062 FB18     		add	r3, r7, r3
 1219 0064 1B78     		ldrb	r3, [r3]
 1220 0066 002B     		cmp	r3, #0
 1221 0068 26D0     		beq	.L59
1200:.\Generated_Source\PSoC4/BLE.c ****                 {
1201:.\Generated_Source\PSoC4/BLE.c ****                     /* Increment byte counter so it can point to AD type */
1202:.\Generated_Source\PSoC4/BLE.c ****                     byteCounter++;
 1222              		.loc 1 1202 0
 1223 006a 1423     		mov	r3, #20
 1224 006c FB18     		add	r3, r7, r3
 1225 006e 1A78     		ldrb	r2, [r3]
 1226 0070 1423     		mov	r3, #20
 1227 0072 FB18     		add	r3, r7, r3
 1228 0074 0132     		add	r2, r2, #1
 1229 0076 1A70     		strb	r2, [r3]
1203:.\Generated_Source\PSoC4/BLE.c ****                     
1204:.\Generated_Source\PSoC4/BLE.c ****                     if((CYBLE_SHORT_LOCAL_NAME == destBuffer[byteCounter]) || 
 1230              		.loc 1 1204 0
 1231 0078 1423     		mov	r3, #20
 1232 007a FB18     		add	r3, r7, r3
ARM GAS  C:\Users\ADMINI~1\AppData\Local\Temp\cczpe50f.s 			page 44


 1233 007c 1B78     		ldrb	r3, [r3]
 1234 007e 3A69     		ldr	r2, [r7, #16]
 1235 0080 D318     		add	r3, r2, r3
 1236 0082 1B78     		ldrb	r3, [r3]
 1237 0084 082B     		cmp	r3, #8
 1238 0086 07D0     		beq	.L60
1205:.\Generated_Source\PSoC4/BLE.c ****                        (CYBLE_COMPLETE_LOCAL_NAME == destBuffer[byteCounter]))
 1239              		.loc 1 1205 0 discriminator 1
 1240 0088 1423     		mov	r3, #20
 1241 008a FB18     		add	r3, r7, r3
 1242 008c 1B78     		ldrb	r3, [r3]
 1243 008e 3A69     		ldr	r2, [r7, #16]
 1244 0090 D318     		add	r3, r2, r3
 1245 0092 1B78     		ldrb	r3, [r3]
1204:.\Generated_Source\PSoC4/BLE.c ****                        (CYBLE_COMPLETE_LOCAL_NAME == destBuffer[byteCounter]))
 1246              		.loc 1 1204 0 discriminator 1
 1247 0094 092B     		cmp	r3, #9
 1248 0096 04D1     		bne	.L61
 1249              	.L60:
1206:.\Generated_Source\PSoC4/BLE.c ****                     {
1207:.\Generated_Source\PSoC4/BLE.c ****                         /* Start of the Local Name AD type was fount. Set flag and exit the loop. *
1208:.\Generated_Source\PSoC4/BLE.c ****                         flag = 1u;
 1250              		.loc 1 1208 0
 1251 0098 1623     		mov	r3, #22
 1252 009a FB18     		add	r3, r7, r3
 1253 009c 0122     		mov	r2, #1
 1254 009e 1A70     		strb	r2, [r3]
 1255 00a0 09E0     		b	.L62
 1256              	.L61:
1209:.\Generated_Source\PSoC4/BLE.c ****                     }
1210:.\Generated_Source\PSoC4/BLE.c ****                     else
1211:.\Generated_Source\PSoC4/BLE.c ****                     {
1212:.\Generated_Source\PSoC4/BLE.c ****                         byteCounter += adLength;
 1257              		.loc 1 1212 0
 1258 00a2 1423     		mov	r3, #20
 1259 00a4 FB18     		add	r3, r7, r3
 1260 00a6 1422     		mov	r2, #20
 1261 00a8 B918     		add	r1, r7, r2
 1262 00aa 1522     		mov	r2, #21
 1263 00ac BA18     		add	r2, r7, r2
 1264 00ae 0978     		ldrb	r1, [r1]
 1265 00b0 1278     		ldrb	r2, [r2]
 1266 00b2 8A18     		add	r2, r1, r2
 1267 00b4 1A70     		strb	r2, [r3]
 1268              	.L62:
 1269 00b6 00E0     		b	.L58
 1270              	.L59:
1213:.\Generated_Source\PSoC4/BLE.c ****                     }
1214:.\Generated_Source\PSoC4/BLE.c ****                 }
1215:.\Generated_Source\PSoC4/BLE.c ****                 else
1216:.\Generated_Source\PSoC4/BLE.c ****                 {
1217:.\Generated_Source\PSoC4/BLE.c ****                     /* The end of advertisement data structure was encountered though exit the loop
1218:.\Generated_Source\PSoC4/BLE.c ****                     break;
 1271              		.loc 1 1218 0
 1272 00b8 0CE0     		b	.L63
 1273              	.L58:
1195:.\Generated_Source\PSoC4/BLE.c ****             {
ARM GAS  C:\Users\ADMINI~1\AppData\Local\Temp\cczpe50f.s 			page 45


 1274              		.loc 1 1195 0
 1275 00ba 1423     		mov	r3, #20
 1276 00bc FA18     		add	r2, r7, r3
 1277 00be 0F23     		mov	r3, #15
 1278 00c0 FB18     		add	r3, r7, r3
 1279 00c2 1278     		ldrb	r2, [r2]
 1280 00c4 1B78     		ldrb	r3, [r3]
 1281 00c6 9A42     		cmp	r2, r3
 1282 00c8 04D2     		bcs	.L63
1195:.\Generated_Source\PSoC4/BLE.c ****             {
 1283              		.loc 1 1195 0 is_stmt 0 discriminator 1
 1284 00ca 1623     		mov	r3, #22
 1285 00cc FB18     		add	r3, r7, r3
 1286 00ce 1B78     		ldrb	r3, [r3]
 1287 00d0 002B     		cmp	r3, #0
 1288 00d2 BCD0     		beq	.L64
 1289              	.L63:
1219:.\Generated_Source\PSoC4/BLE.c ****                 }
1220:.\Generated_Source\PSoC4/BLE.c ****             }
1221:.\Generated_Source\PSoC4/BLE.c ****             
1222:.\Generated_Source\PSoC4/BLE.c ****             if(0u != flag)
 1290              		.loc 1 1222 0 is_stmt 1
 1291 00d4 1623     		mov	r3, #22
 1292 00d6 FB18     		add	r3, r7, r3
 1293 00d8 1B78     		ldrb	r3, [r3]
 1294 00da 002B     		cmp	r3, #0
 1295 00dc 5BD0     		beq	.L55
1223:.\Generated_Source\PSoC4/BLE.c ****             {
1224:.\Generated_Source\PSoC4/BLE.c ****                 /* Reuse "adLength" to hold location of the last character of local name in 
1225:.\Generated_Source\PSoC4/BLE.c ****                    AD structure. */
1226:.\Generated_Source\PSoC4/BLE.c ****                 adLength += byteCounter;
 1296              		.loc 1 1226 0
 1297 00de 1523     		mov	r3, #21
 1298 00e0 FB18     		add	r3, r7, r3
 1299 00e2 1522     		mov	r2, #21
 1300 00e4 B918     		add	r1, r7, r2
 1301 00e6 1422     		mov	r2, #20
 1302 00e8 BA18     		add	r2, r7, r2
 1303 00ea 0978     		ldrb	r1, [r1]
 1304 00ec 1278     		ldrb	r2, [r2]
 1305 00ee 8A18     		add	r2, r1, r2
 1306 00f0 1A70     		strb	r2, [r3]
1227:.\Generated_Source\PSoC4/BLE.c ****                 
1228:.\Generated_Source\PSoC4/BLE.c ****                 /* Increment byte counter to point to start of the local Name string */
1229:.\Generated_Source\PSoC4/BLE.c ****                 byteCounter++;
 1307              		.loc 1 1229 0
 1308 00f2 1423     		mov	r3, #20
 1309 00f4 FB18     		add	r3, r7, r3
 1310 00f6 1A78     		ldrb	r2, [r3]
 1311 00f8 1423     		mov	r3, #20
 1312 00fa FB18     		add	r3, r7, r3
 1313 00fc 0132     		add	r2, r2, #1
 1314 00fe 1A70     		strb	r2, [r3]
1230:.\Generated_Source\PSoC4/BLE.c ****                 
1231:.\Generated_Source\PSoC4/BLE.c ****                 for(i = byteCounter; ((i < (adLength)) && (CYBLE_NULL_CHARCTER != name[i - byteCoun
 1315              		.loc 1 1231 0
 1316 0100 1723     		mov	r3, #23
ARM GAS  C:\Users\ADMINI~1\AppData\Local\Temp\cczpe50f.s 			page 46


 1317 0102 FB18     		add	r3, r7, r3
 1318 0104 1422     		mov	r2, #20
 1319 0106 BA18     		add	r2, r7, r2
 1320 0108 1278     		ldrb	r2, [r2]
 1321 010a 1A70     		strb	r2, [r3]
 1322 010c 17E0     		b	.L66
 1323              	.L68:
1232:.\Generated_Source\PSoC4/BLE.c ****                 {
1233:.\Generated_Source\PSoC4/BLE.c ****                     destBuffer[i] = (uint8)name[i - byteCounter];
 1324              		.loc 1 1233 0 discriminator 4
 1325 010e 1723     		mov	r3, #23
 1326 0110 FB18     		add	r3, r7, r3
 1327 0112 1B78     		ldrb	r3, [r3]
 1328 0114 3A69     		ldr	r2, [r7, #16]
 1329 0116 D318     		add	r3, r2, r3
 1330 0118 1722     		mov	r2, #23
 1331 011a BA18     		add	r2, r7, r2
 1332 011c 1178     		ldrb	r1, [r2]
 1333 011e 1422     		mov	r2, #20
 1334 0120 BA18     		add	r2, r7, r2
 1335 0122 1278     		ldrb	r2, [r2]
 1336 0124 8A1A     		sub	r2, r1, r2
 1337 0126 111C     		mov	r1, r2
 1338 0128 7A68     		ldr	r2, [r7, #4]
 1339 012a 5218     		add	r2, r2, r1
 1340 012c 1278     		ldrb	r2, [r2]
 1341 012e 1A70     		strb	r2, [r3]
1231:.\Generated_Source\PSoC4/BLE.c ****                 {
 1342              		.loc 1 1231 0 discriminator 4
 1343 0130 1723     		mov	r3, #23
 1344 0132 FB18     		add	r3, r7, r3
 1345 0134 1A78     		ldrb	r2, [r3]
 1346 0136 1723     		mov	r3, #23
 1347 0138 FB18     		add	r3, r7, r3
 1348 013a 0132     		add	r2, r2, #1
 1349 013c 1A70     		strb	r2, [r3]
 1350              	.L66:
1231:.\Generated_Source\PSoC4/BLE.c ****                 {
 1351              		.loc 1 1231 0 is_stmt 0 discriminator 1
 1352 013e 1723     		mov	r3, #23
 1353 0140 FA18     		add	r2, r7, r3
 1354 0142 1523     		mov	r3, #21
 1355 0144 FB18     		add	r3, r7, r3
 1356 0146 1278     		ldrb	r2, [r2]
 1357 0148 1B78     		ldrb	r3, [r3]
 1358 014a 9A42     		cmp	r2, r3
 1359 014c 0CD2     		bcs	.L67
1231:.\Generated_Source\PSoC4/BLE.c ****                 {
 1360              		.loc 1 1231 0 discriminator 3
 1361 014e 1723     		mov	r3, #23
 1362 0150 FB18     		add	r3, r7, r3
 1363 0152 1A78     		ldrb	r2, [r3]
 1364 0154 1423     		mov	r3, #20
 1365 0156 FB18     		add	r3, r7, r3
 1366 0158 1B78     		ldrb	r3, [r3]
 1367 015a D31A     		sub	r3, r2, r3
 1368 015c 1A1C     		mov	r2, r3
ARM GAS  C:\Users\ADMINI~1\AppData\Local\Temp\cczpe50f.s 			page 47


 1369 015e 7B68     		ldr	r3, [r7, #4]
 1370 0160 9B18     		add	r3, r3, r2
 1371 0162 1B78     		ldrb	r3, [r3]
 1372 0164 002B     		cmp	r3, #0
 1373 0166 D2D1     		bne	.L68
 1374              	.L67:
1234:.\Generated_Source\PSoC4/BLE.c ****                 }
1235:.\Generated_Source\PSoC4/BLE.c ****                 
1236:.\Generated_Source\PSoC4/BLE.c ****                 /* This loop handles the case when new local name is shorted than old one.
1237:.\Generated_Source\PSoC4/BLE.c ****                    In this case all remaining characters should be null characters. */
1238:.\Generated_Source\PSoC4/BLE.c ****                 while(adLength > i)
 1375              		.loc 1 1238 0 is_stmt 1
 1376 0168 0DE0     		b	.L69
 1377              	.L70:
1239:.\Generated_Source\PSoC4/BLE.c ****                 {
1240:.\Generated_Source\PSoC4/BLE.c ****                     /* Terminate string */
1241:.\Generated_Source\PSoC4/BLE.c ****                     destBuffer[i] = (uint8)CYBLE_NULL_CHARCTER;
 1378              		.loc 1 1241 0
 1379 016a 1723     		mov	r3, #23
 1380 016c FB18     		add	r3, r7, r3
 1381 016e 1B78     		ldrb	r3, [r3]
 1382 0170 3A69     		ldr	r2, [r7, #16]
 1383 0172 D318     		add	r3, r2, r3
 1384 0174 0022     		mov	r2, #0
 1385 0176 1A70     		strb	r2, [r3]
1242:.\Generated_Source\PSoC4/BLE.c ****                     i++;
 1386              		.loc 1 1242 0
 1387 0178 1723     		mov	r3, #23
 1388 017a FB18     		add	r3, r7, r3
 1389 017c 1A78     		ldrb	r2, [r3]
 1390 017e 1723     		mov	r3, #23
 1391 0180 FB18     		add	r3, r7, r3
 1392 0182 0132     		add	r2, r2, #1
 1393 0184 1A70     		strb	r2, [r3]
 1394              	.L69:
1238:.\Generated_Source\PSoC4/BLE.c ****                 {
 1395              		.loc 1 1238 0
 1396 0186 1523     		mov	r3, #21
 1397 0188 FA18     		add	r2, r7, r3
 1398 018a 1723     		mov	r3, #23
 1399 018c FB18     		add	r3, r7, r3
 1400 018e 1278     		ldrb	r2, [r2]
 1401 0190 1B78     		ldrb	r3, [r3]
 1402 0192 9A42     		cmp	r2, r3
 1403 0194 E9D8     		bhi	.L70
 1404              	.L55:
1243:.\Generated_Source\PSoC4/BLE.c ****                 }
1244:.\Generated_Source\PSoC4/BLE.c ****             }
1245:.\Generated_Source\PSoC4/BLE.c ****         }
 1405              		.loc 1 1245 0
 1406 0196 BD46     		mov	sp, r7
 1407 0198 06B0     		add	sp, sp, #24
 1408              		@ sp needed
 1409 019a 80BD     		pop	{r7, pc}
 1410              	.L72:
 1411              		.align	2
 1412              	.L71:
ARM GAS  C:\Users\ADMINI~1\AppData\Local\Temp\cczpe50f.s 			page 48


 1413 019c 00000000 		.word	cyBle_discoveryData
 1414 01a0 00000000 		.word	cyBle_scanRspData
 1415              		.cfi_endproc
 1416              	.LFE11:
 1417              		.size	CyBle_ChangeAdLocalName, .-CyBle_ChangeAdLocalName
 1418              		.section	.text.CyBle_GapSetLocalName,"ax",%progbits
 1419              		.align	2
 1420              		.global	CyBle_GapSetLocalName
 1421              		.code	16
 1422              		.thumb_func
 1423              		.type	CyBle_GapSetLocalName, %function
 1424              	CyBle_GapSetLocalName:
 1425              	.LFB12:
1246:.\Generated_Source\PSoC4/BLE.c ****         
1247:.\Generated_Source\PSoC4/BLE.c **** #endif /* (CYBLE_GAP_ROLE_PERIPHERAL) */  
1248:.\Generated_Source\PSoC4/BLE.c ****     
1249:.\Generated_Source\PSoC4/BLE.c ****     
1250:.\Generated_Source\PSoC4/BLE.c ****     /******************************************************************************
1251:.\Generated_Source\PSoC4/BLE.c ****     * Function Name: CyBle_GapSetLocalName
1252:.\Generated_Source\PSoC4/BLE.c ****     ***************************************************************************//**
1253:.\Generated_Source\PSoC4/BLE.c ****     *  This API is used to set the local device name - a Characteristic of the 
1254:.\Generated_Source\PSoC4/BLE.c ****     *  GAP Service. If the characteristic length entered in the component customizer
1255:.\Generated_Source\PSoC4/BLE.c ****     *  is shorter than the string specified by the "name" parameter, the local device
1256:.\Generated_Source\PSoC4/BLE.c ****     *  name will be cut to the length specified in the customizer.
1257:.\Generated_Source\PSoC4/BLE.c ****     * 
1258:.\Generated_Source\PSoC4/BLE.c ****     *  \param name: The local device name string. The name string to be written as
1259:.\Generated_Source\PSoC4/BLE.c ****     *              the local device name. It represents a UTF-8 encoded User
1260:.\Generated_Source\PSoC4/BLE.c ****     *              Friendly Descriptive Name for the device. The length of the local
1261:.\Generated_Source\PSoC4/BLE.c ****     *              device string is entered into the component customizer and it can
1262:.\Generated_Source\PSoC4/BLE.c ****     *              be set to a value from 0 to 248 bytes. If the name contained in
1263:.\Generated_Source\PSoC4/BLE.c ****     *              the parameter is shorter than the length from the customizer, the
1264:.\Generated_Source\PSoC4/BLE.c ****     *              end of the name is indicated by a NULL octet (0x00).
1265:.\Generated_Source\PSoC4/BLE.c ****     * 
1266:.\Generated_Source\PSoC4/BLE.c ****     * \return
1267:.\Generated_Source\PSoC4/BLE.c ****     *  CYBLE_API_RESULT_T : Return value indicates if the function succeeded or 
1268:.\Generated_Source\PSoC4/BLE.c ****     *  failed. Following are the possible error codes.
1269:.\Generated_Source\PSoC4/BLE.c ****     *
1270:.\Generated_Source\PSoC4/BLE.c ****     *   Errors codes                       | Description
1271:.\Generated_Source\PSoC4/BLE.c ****     *   ------------                       | -----------
1272:.\Generated_Source\PSoC4/BLE.c ****     *   CYBLE_ERROR_OK                     | Function completed successfully.
1273:.\Generated_Source\PSoC4/BLE.c ****     *   CYBLE_ERROR_INVALID_PARAMETER      | On specifying NULL as input parameter
1274:.\Generated_Source\PSoC4/BLE.c ****     *  
1275:.\Generated_Source\PSoC4/BLE.c ****     *******************************************************************************/
1276:.\Generated_Source\PSoC4/BLE.c ****     CYBLE_API_RESULT_T CyBle_GapSetLocalName(const char8 name[])
1277:.\Generated_Source\PSoC4/BLE.c ****     {
 1426              		.loc 1 1277 0
 1427              		.cfi_startproc
 1428 0000 80B5     		push	{r7, lr}
 1429              		.cfi_def_cfa_offset 8
 1430              		.cfi_offset 7, -8
 1431              		.cfi_offset 14, -4
 1432 0002 86B0     		sub	sp, sp, #24
 1433              		.cfi_def_cfa_offset 32
 1434 0004 00AF     		add	r7, sp, #0
 1435              		.cfi_def_cfa_register 7
 1436 0006 7860     		str	r0, [r7, #4]
1278:.\Generated_Source\PSoC4/BLE.c ****         CYBLE_API_RESULT_T apiResult = CYBLE_ERROR_OK;
ARM GAS  C:\Users\ADMINI~1\AppData\Local\Temp\cczpe50f.s 			page 49


 1437              		.loc 1 1278 0
 1438 0008 1623     		mov	r3, #22
 1439 000a FB18     		add	r3, r7, r3
 1440 000c 0022     		mov	r2, #0
 1441 000e 1A80     		strh	r2, [r3]
1279:.\Generated_Source\PSoC4/BLE.c ****         uint8 i;
1280:.\Generated_Source\PSoC4/BLE.c ****         char8 *ptr;
1281:.\Generated_Source\PSoC4/BLE.c ****         uint8 charLen;
1282:.\Generated_Source\PSoC4/BLE.c **** 
1283:.\Generated_Source\PSoC4/BLE.c ****         if(NULL != name)
 1442              		.loc 1 1283 0
 1443 0010 7B68     		ldr	r3, [r7, #4]
 1444 0012 002B     		cmp	r3, #0
 1445 0014 4AD0     		beq	.L74
1284:.\Generated_Source\PSoC4/BLE.c ****         {
1285:.\Generated_Source\PSoC4/BLE.c ****             /* Get the pointer to the Device Name characteristic  */
1286:.\Generated_Source\PSoC4/BLE.c ****             ptr = (char8 *) CYBLE_GATT_DB_ATTR_GET_ATTR_GEN_PTR(CYBLE_GAP_DEVICE_NAME_INDEX + 1u);
 1446              		.loc 1 1286 0
 1447 0016 2B4B     		ldr	r3, .L81
 1448 0018 9B6B     		ldr	r3, [r3, #56]
 1449 001a 5B68     		ldr	r3, [r3, #4]
 1450 001c 3B61     		str	r3, [r7, #16]
1287:.\Generated_Source\PSoC4/BLE.c **** 
1288:.\Generated_Source\PSoC4/BLE.c ****             /* First need to get the maximum length of the characteristic data in the GATT
1289:.\Generated_Source\PSoC4/BLE.c ****                 database to make sure there is enough place for the data. The length
1290:.\Generated_Source\PSoC4/BLE.c ****                 can't be longer than 248, so only the LSB of 16 bit of length is to
1291:.\Generated_Source\PSoC4/BLE.c ****                 be used. */
1292:.\Generated_Source\PSoC4/BLE.c ****             charLen = (uint8)CYBLE_GATT_DB_ATTR_GET_ATTR_GEN_MAX_LEN(CYBLE_GAP_DEVICE_NAME_INDEX + 
 1451              		.loc 1 1292 0
 1452 001e 294B     		ldr	r3, .L81
 1453 0020 9A8E     		ldrh	r2, [r3, #52]
 1454 0022 0F23     		mov	r3, #15
 1455 0024 FB18     		add	r3, r7, r3
 1456 0026 1A70     		strb	r2, [r3]
1293:.\Generated_Source\PSoC4/BLE.c **** 
1294:.\Generated_Source\PSoC4/BLE.c ****             /* Copy name into characteristic */
1295:.\Generated_Source\PSoC4/BLE.c ****             for(i = 0u; ((i < charLen) && (CYBLE_NULL_CHARCTER != name[i])); i++)
 1457              		.loc 1 1295 0
 1458 0028 1523     		mov	r3, #21
 1459 002a FB18     		add	r3, r7, r3
 1460 002c 0022     		mov	r2, #0
 1461 002e 1A70     		strb	r2, [r3]
 1462 0030 12E0     		b	.L75
 1463              	.L77:
1296:.\Generated_Source\PSoC4/BLE.c ****             {
1297:.\Generated_Source\PSoC4/BLE.c ****                 ptr[i] = name[i];
 1464              		.loc 1 1297 0 discriminator 4
 1465 0032 1523     		mov	r3, #21
 1466 0034 FB18     		add	r3, r7, r3
 1467 0036 1B78     		ldrb	r3, [r3]
 1468 0038 3A69     		ldr	r2, [r7, #16]
 1469 003a D318     		add	r3, r2, r3
 1470 003c 1522     		mov	r2, #21
 1471 003e BA18     		add	r2, r7, r2
 1472 0040 1278     		ldrb	r2, [r2]
 1473 0042 7968     		ldr	r1, [r7, #4]
 1474 0044 8A18     		add	r2, r1, r2
ARM GAS  C:\Users\ADMINI~1\AppData\Local\Temp\cczpe50f.s 			page 50


 1475 0046 1278     		ldrb	r2, [r2]
 1476 0048 1A70     		strb	r2, [r3]
1295:.\Generated_Source\PSoC4/BLE.c ****             {
 1477              		.loc 1 1295 0 discriminator 4
 1478 004a 1523     		mov	r3, #21
 1479 004c FB18     		add	r3, r7, r3
 1480 004e 1A78     		ldrb	r2, [r3]
 1481 0050 1523     		mov	r3, #21
 1482 0052 FB18     		add	r3, r7, r3
 1483 0054 0132     		add	r2, r2, #1
 1484 0056 1A70     		strb	r2, [r3]
 1485              	.L75:
1295:.\Generated_Source\PSoC4/BLE.c ****             {
 1486              		.loc 1 1295 0 is_stmt 0 discriminator 1
 1487 0058 1523     		mov	r3, #21
 1488 005a FA18     		add	r2, r7, r3
 1489 005c 0F23     		mov	r3, #15
 1490 005e FB18     		add	r3, r7, r3
 1491 0060 1278     		ldrb	r2, [r2]
 1492 0062 1B78     		ldrb	r3, [r3]
 1493 0064 9A42     		cmp	r2, r3
 1494 0066 07D2     		bcs	.L76
1295:.\Generated_Source\PSoC4/BLE.c ****             {
 1495              		.loc 1 1295 0 discriminator 3
 1496 0068 1523     		mov	r3, #21
 1497 006a FB18     		add	r3, r7, r3
 1498 006c 1B78     		ldrb	r3, [r3]
 1499 006e 7A68     		ldr	r2, [r7, #4]
 1500 0070 D318     		add	r3, r2, r3
 1501 0072 1B78     		ldrb	r3, [r3]
 1502 0074 002B     		cmp	r3, #0
 1503 0076 DCD1     		bne	.L77
 1504              	.L76:
1298:.\Generated_Source\PSoC4/BLE.c ****             }
1299:.\Generated_Source\PSoC4/BLE.c **** 
1300:.\Generated_Source\PSoC4/BLE.c ****             if(i < charLen)
 1505              		.loc 1 1300 0 is_stmt 1
 1506 0078 1523     		mov	r3, #21
 1507 007a FA18     		add	r2, r7, r3
 1508 007c 0F23     		mov	r3, #15
 1509 007e FB18     		add	r3, r7, r3
 1510 0080 1278     		ldrb	r2, [r2]
 1511 0082 1B78     		ldrb	r3, [r3]
 1512 0084 9A42     		cmp	r2, r3
 1513 0086 06D2     		bcs	.L78
1301:.\Generated_Source\PSoC4/BLE.c ****             {
1302:.\Generated_Source\PSoC4/BLE.c ****                 /* Terminate string */
1303:.\Generated_Source\PSoC4/BLE.c ****                 ptr[i] = CYBLE_NULL_CHARCTER;
 1514              		.loc 1 1303 0
 1515 0088 1523     		mov	r3, #21
 1516 008a FB18     		add	r3, r7, r3
 1517 008c 1B78     		ldrb	r3, [r3]
 1518 008e 3A69     		ldr	r2, [r7, #16]
 1519 0090 D318     		add	r3, r2, r3
 1520 0092 0022     		mov	r2, #0
 1521 0094 1A70     		strb	r2, [r3]
 1522              	.L78:
ARM GAS  C:\Users\ADMINI~1\AppData\Local\Temp\cczpe50f.s 			page 51


1304:.\Generated_Source\PSoC4/BLE.c ****             }
1305:.\Generated_Source\PSoC4/BLE.c ****             
1306:.\Generated_Source\PSoC4/BLE.c ****             /* Set new actual length */
1307:.\Generated_Source\PSoC4/BLE.c ****             
1308:.\Generated_Source\PSoC4/BLE.c ****             /* Update device name in advertising and scan response structure */
1309:.\Generated_Source\PSoC4/BLE.c ****             #if(CYBLE_GAP_ROLE_PERIPHERAL)
1310:.\Generated_Source\PSoC4/BLE.c ****                 CyBle_ChangeAdLocalName(name, 0u);
 1523              		.loc 1 1310 0
 1524 0096 7B68     		ldr	r3, [r7, #4]
 1525 0098 181C     		mov	r0, r3
 1526 009a 0021     		mov	r1, #0
 1527 009c FFF7FEFF 		bl	CyBle_ChangeAdLocalName
1311:.\Generated_Source\PSoC4/BLE.c ****                 CyBle_ChangeAdLocalName(name, 1u);
 1528              		.loc 1 1311 0
 1529 00a0 7B68     		ldr	r3, [r7, #4]
 1530 00a2 181C     		mov	r0, r3
 1531 00a4 0121     		mov	r1, #1
 1532 00a6 FFF7FEFF 		bl	CyBle_ChangeAdLocalName
 1533 00aa 03E0     		b	.L79
 1534              	.L74:
1312:.\Generated_Source\PSoC4/BLE.c ****             #endif /* (CYBLE_GAP_ROLE_PERIPHERAL) */
1313:.\Generated_Source\PSoC4/BLE.c ****         }
1314:.\Generated_Source\PSoC4/BLE.c ****         else
1315:.\Generated_Source\PSoC4/BLE.c ****         {
1316:.\Generated_Source\PSoC4/BLE.c ****             apiResult = CYBLE_ERROR_INVALID_PARAMETER;
 1535              		.loc 1 1316 0
 1536 00ac 1623     		mov	r3, #22
 1537 00ae FB18     		add	r3, r7, r3
 1538 00b0 0122     		mov	r2, #1
 1539 00b2 1A80     		strh	r2, [r3]
 1540              	.L79:
1317:.\Generated_Source\PSoC4/BLE.c ****         }
1318:.\Generated_Source\PSoC4/BLE.c ****         
1319:.\Generated_Source\PSoC4/BLE.c ****         return(apiResult);
 1541              		.loc 1 1319 0
 1542 00b4 1623     		mov	r3, #22
 1543 00b6 FB18     		add	r3, r7, r3
 1544 00b8 1B88     		ldrh	r3, [r3]
1320:.\Generated_Source\PSoC4/BLE.c ****     }
 1545              		.loc 1 1320 0
 1546 00ba 181C     		mov	r0, r3
 1547 00bc BD46     		mov	sp, r7
 1548 00be 06B0     		add	sp, sp, #24
 1549              		@ sp needed
 1550 00c0 80BD     		pop	{r7, pc}
 1551              	.L82:
 1552 00c2 C046     		.align	2
 1553              	.L81:
 1554 00c4 00000000 		.word	cyBle_gattDB
 1555              		.cfi_endproc
 1556              	.LFE12:
 1557              		.size	CyBle_GapSetLocalName, .-CyBle_GapSetLocalName
 1558              		.section	.text.CyBle_GapGetLocalName,"ax",%progbits
 1559              		.align	2
 1560              		.global	CyBle_GapGetLocalName
 1561              		.code	16
 1562              		.thumb_func
ARM GAS  C:\Users\ADMINI~1\AppData\Local\Temp\cczpe50f.s 			page 52


 1563              		.type	CyBle_GapGetLocalName, %function
 1564              	CyBle_GapGetLocalName:
 1565              	.LFB13:
1321:.\Generated_Source\PSoC4/BLE.c **** 
1322:.\Generated_Source\PSoC4/BLE.c **** 
1323:.\Generated_Source\PSoC4/BLE.c ****     /******************************************************************************
1324:.\Generated_Source\PSoC4/BLE.c ****     * Function Name: CyBle_GapGetLocalName
1325:.\Generated_Source\PSoC4/BLE.c ****     ***************************************************************************//**
1326:.\Generated_Source\PSoC4/BLE.c ****     *  
1327:.\Generated_Source\PSoC4/BLE.c ****     *  This API is used to read the local device name - a Characteristic of the 
1328:.\Generated_Source\PSoC4/BLE.c ****     *  GAP Service.
1329:.\Generated_Source\PSoC4/BLE.c ****     * 
1330:.\Generated_Source\PSoC4/BLE.c ****     * \param name: The local device name string. Used to read the local name to the
1331:.\Generated_Source\PSoC4/BLE.c ****     *             given string array. It represents a UTF-8 encoded User Friendly 
1332:.\Generated_Source\PSoC4/BLE.c ****     *             Descriptive Name for the device. The length of the local device
1333:.\Generated_Source\PSoC4/BLE.c ****     *             string is entered into the component customizer and it can be set
1334:.\Generated_Source\PSoC4/BLE.c ****     *             to a value from 0 to 248 bytes. If the name contained in the
1335:.\Generated_Source\PSoC4/BLE.c ****     *             parameter is shorter than the length from the customizer, the end
1336:.\Generated_Source\PSoC4/BLE.c ****     *             of the name is indicated by a NULL octet (0x00).
1337:.\Generated_Source\PSoC4/BLE.c ****     * 
1338:.\Generated_Source\PSoC4/BLE.c ****     * \return
1339:.\Generated_Source\PSoC4/BLE.c ****     *  CYBLE_API_RESULT_T : Return value indicates if the function succeeded or 
1340:.\Generated_Source\PSoC4/BLE.c ****     *  failed. Following are the possible error codes.
1341:.\Generated_Source\PSoC4/BLE.c ****     *
1342:.\Generated_Source\PSoC4/BLE.c ****     *   Errors codes                       | Description
1343:.\Generated_Source\PSoC4/BLE.c ****     *   ------------                       | -----------
1344:.\Generated_Source\PSoC4/BLE.c ****     *   CYBLE_ERROR_OK                     | Function completed successfully.
1345:.\Generated_Source\PSoC4/BLE.c ****     *   CYBLE_ERROR_INVALID_PARAMETER      | On specifying NULL as input parameter
1346:.\Generated_Source\PSoC4/BLE.c ****     *
1347:.\Generated_Source\PSoC4/BLE.c ****     *******************************************************************************/
1348:.\Generated_Source\PSoC4/BLE.c ****     CYBLE_API_RESULT_T CyBle_GapGetLocalName(char8 name[])
1349:.\Generated_Source\PSoC4/BLE.c ****     {
 1566              		.loc 1 1349 0
 1567              		.cfi_startproc
 1568 0000 80B5     		push	{r7, lr}
 1569              		.cfi_def_cfa_offset 8
 1570              		.cfi_offset 7, -8
 1571              		.cfi_offset 14, -4
 1572 0002 86B0     		sub	sp, sp, #24
 1573              		.cfi_def_cfa_offset 32
 1574 0004 00AF     		add	r7, sp, #0
 1575              		.cfi_def_cfa_register 7
 1576 0006 7860     		str	r0, [r7, #4]
1350:.\Generated_Source\PSoC4/BLE.c ****         CYBLE_API_RESULT_T apiResult = CYBLE_ERROR_OK;
 1577              		.loc 1 1350 0
 1578 0008 1623     		mov	r3, #22
 1579 000a FB18     		add	r3, r7, r3
 1580 000c 0022     		mov	r2, #0
 1581 000e 1A80     		strh	r2, [r3]
1351:.\Generated_Source\PSoC4/BLE.c ****         uint8 charLen;
1352:.\Generated_Source\PSoC4/BLE.c ****         uint8 i;
1353:.\Generated_Source\PSoC4/BLE.c ****         char8 *ptr;
1354:.\Generated_Source\PSoC4/BLE.c **** 
1355:.\Generated_Source\PSoC4/BLE.c ****         if(NULL != name)
 1582              		.loc 1 1355 0
 1583 0010 7B68     		ldr	r3, [r7, #4]
 1584 0012 002B     		cmp	r3, #0
ARM GAS  C:\Users\ADMINI~1\AppData\Local\Temp\cczpe50f.s 			page 53


 1585 0014 39D0     		beq	.L84
1356:.\Generated_Source\PSoC4/BLE.c ****         {
1357:.\Generated_Source\PSoC4/BLE.c ****             /* Get the pointer to the Device Name characteristic  */
1358:.\Generated_Source\PSoC4/BLE.c ****             ptr = (char8 *) CYBLE_GATT_DB_ATTR_GET_ATTR_GEN_PTR(CYBLE_GAP_DEVICE_NAME_INDEX + 1u);
 1586              		.loc 1 1358 0
 1587 0016 224B     		ldr	r3, .L90
 1588 0018 9B6B     		ldr	r3, [r3, #56]
 1589 001a 5B68     		ldr	r3, [r3, #4]
 1590 001c 3B61     		str	r3, [r7, #16]
1359:.\Generated_Source\PSoC4/BLE.c **** 
1360:.\Generated_Source\PSoC4/BLE.c ****             /* First need to get the length of the characteristic data in the GATT
1361:.\Generated_Source\PSoC4/BLE.c ****                 database to make sure there is enough place for the data. The length
1362:.\Generated_Source\PSoC4/BLE.c ****                 can't be longer than 248, so only the LSB of 16 bit of length is to
1363:.\Generated_Source\PSoC4/BLE.c ****                 be used. */
1364:.\Generated_Source\PSoC4/BLE.c ****             charLen = (uint8)CYBLE_GATT_DB_ATTR_GET_ATTR_GEN_LEN(CYBLE_GAP_DEVICE_NAME_INDEX + 1u);
 1591              		.loc 1 1364 0
 1592 001e 204B     		ldr	r3, .L90
 1593 0020 9B6B     		ldr	r3, [r3, #56]
 1594 0022 1A88     		ldrh	r2, [r3]
 1595 0024 0F23     		mov	r3, #15
 1596 0026 FB18     		add	r3, r7, r3
 1597 0028 1A70     		strb	r2, [r3]
1365:.\Generated_Source\PSoC4/BLE.c **** 
1366:.\Generated_Source\PSoC4/BLE.c ****             /* Copy name from characteristic */
1367:.\Generated_Source\PSoC4/BLE.c ****             for(i = 0u; ((i < charLen) && (CYBLE_NULL_CHARCTER != ptr[i])); i++)
 1598              		.loc 1 1367 0
 1599 002a 1523     		mov	r3, #21
 1600 002c FB18     		add	r3, r7, r3
 1601 002e 0022     		mov	r2, #0
 1602 0030 1A70     		strb	r2, [r3]
 1603 0032 12E0     		b	.L85
 1604              	.L87:
1368:.\Generated_Source\PSoC4/BLE.c ****             {
1369:.\Generated_Source\PSoC4/BLE.c ****                 name[i] = ptr[i];
 1605              		.loc 1 1369 0 discriminator 4
 1606 0034 1523     		mov	r3, #21
 1607 0036 FB18     		add	r3, r7, r3
 1608 0038 1B78     		ldrb	r3, [r3]
 1609 003a 7A68     		ldr	r2, [r7, #4]
 1610 003c D318     		add	r3, r2, r3
 1611 003e 1522     		mov	r2, #21
 1612 0040 BA18     		add	r2, r7, r2
 1613 0042 1278     		ldrb	r2, [r2]
 1614 0044 3969     		ldr	r1, [r7, #16]
 1615 0046 8A18     		add	r2, r1, r2
 1616 0048 1278     		ldrb	r2, [r2]
 1617 004a 1A70     		strb	r2, [r3]
1367:.\Generated_Source\PSoC4/BLE.c ****             {
 1618              		.loc 1 1367 0 discriminator 4
 1619 004c 1523     		mov	r3, #21
 1620 004e FB18     		add	r3, r7, r3
 1621 0050 1A78     		ldrb	r2, [r3]
 1622 0052 1523     		mov	r3, #21
 1623 0054 FB18     		add	r3, r7, r3
 1624 0056 0132     		add	r2, r2, #1
 1625 0058 1A70     		strb	r2, [r3]
 1626              	.L85:
ARM GAS  C:\Users\ADMINI~1\AppData\Local\Temp\cczpe50f.s 			page 54


1367:.\Generated_Source\PSoC4/BLE.c ****             {
 1627              		.loc 1 1367 0 is_stmt 0 discriminator 1
 1628 005a 1523     		mov	r3, #21
 1629 005c FA18     		add	r2, r7, r3
 1630 005e 0F23     		mov	r3, #15
 1631 0060 FB18     		add	r3, r7, r3
 1632 0062 1278     		ldrb	r2, [r2]
 1633 0064 1B78     		ldrb	r3, [r3]
 1634 0066 9A42     		cmp	r2, r3
 1635 0068 07D2     		bcs	.L86
1367:.\Generated_Source\PSoC4/BLE.c ****             {
 1636              		.loc 1 1367 0 discriminator 3
 1637 006a 1523     		mov	r3, #21
 1638 006c FB18     		add	r3, r7, r3
 1639 006e 1B78     		ldrb	r3, [r3]
 1640 0070 3A69     		ldr	r2, [r7, #16]
 1641 0072 D318     		add	r3, r2, r3
 1642 0074 1B78     		ldrb	r3, [r3]
 1643 0076 002B     		cmp	r3, #0
 1644 0078 DCD1     		bne	.L87
 1645              	.L86:
1370:.\Generated_Source\PSoC4/BLE.c ****             }
1371:.\Generated_Source\PSoC4/BLE.c **** 
1372:.\Generated_Source\PSoC4/BLE.c ****             /* Terminate string */
1373:.\Generated_Source\PSoC4/BLE.c ****             name[i] = CYBLE_NULL_CHARCTER;
 1646              		.loc 1 1373 0 is_stmt 1
 1647 007a 1523     		mov	r3, #21
 1648 007c FB18     		add	r3, r7, r3
 1649 007e 1B78     		ldrb	r3, [r3]
 1650 0080 7A68     		ldr	r2, [r7, #4]
 1651 0082 D318     		add	r3, r2, r3
 1652 0084 0022     		mov	r2, #0
 1653 0086 1A70     		strb	r2, [r3]
 1654 0088 03E0     		b	.L88
 1655              	.L84:
1374:.\Generated_Source\PSoC4/BLE.c ****         }
1375:.\Generated_Source\PSoC4/BLE.c ****         else
1376:.\Generated_Source\PSoC4/BLE.c ****         {
1377:.\Generated_Source\PSoC4/BLE.c ****             apiResult = CYBLE_ERROR_INVALID_PARAMETER;
 1656              		.loc 1 1377 0
 1657 008a 1623     		mov	r3, #22
 1658 008c FB18     		add	r3, r7, r3
 1659 008e 0122     		mov	r2, #1
 1660 0090 1A80     		strh	r2, [r3]
 1661              	.L88:
1378:.\Generated_Source\PSoC4/BLE.c ****         }
1379:.\Generated_Source\PSoC4/BLE.c ****         
1380:.\Generated_Source\PSoC4/BLE.c ****         return(apiResult);
 1662              		.loc 1 1380 0
 1663 0092 1623     		mov	r3, #22
 1664 0094 FB18     		add	r3, r7, r3
 1665 0096 1B88     		ldrh	r3, [r3]
1381:.\Generated_Source\PSoC4/BLE.c ****     }
 1666              		.loc 1 1381 0
 1667 0098 181C     		mov	r0, r3
 1668 009a BD46     		mov	sp, r7
 1669 009c 06B0     		add	sp, sp, #24
ARM GAS  C:\Users\ADMINI~1\AppData\Local\Temp\cczpe50f.s 			page 55


 1670              		@ sp needed
 1671 009e 80BD     		pop	{r7, pc}
 1672              	.L91:
 1673              		.align	2
 1674              	.L90:
 1675 00a0 00000000 		.word	cyBle_gattDB
 1676              		.cfi_endproc
 1677              	.LFE13:
 1678              		.size	CyBle_GapGetLocalName, .-CyBle_GapGetLocalName
 1679              		.section	.text.CyBle_Get16ByPtr,"ax",%progbits
 1680              		.align	2
 1681              		.global	CyBle_Get16ByPtr
 1682              		.code	16
 1683              		.thumb_func
 1684              		.type	CyBle_Get16ByPtr, %function
 1685              	CyBle_Get16ByPtr:
 1686              	.LFB14:
1382:.\Generated_Source\PSoC4/BLE.c **** 
1383:.\Generated_Source\PSoC4/BLE.c **** #endif /* (CYBLE_GATT_ROLE_SERVER) */
1384:.\Generated_Source\PSoC4/BLE.c **** 
1385:.\Generated_Source\PSoC4/BLE.c **** 
1386:.\Generated_Source\PSoC4/BLE.c **** /******************************************************************************
1387:.\Generated_Source\PSoC4/BLE.c **** * Function Name: CyBle_Get16ByPtr
1388:.\Generated_Source\PSoC4/BLE.c **** ***************************************************************************//**
1389:.\Generated_Source\PSoC4/BLE.c **** * 
1390:.\Generated_Source\PSoC4/BLE.c **** *  Returns the two-bytes value by using a pointer to the LSB.
1391:.\Generated_Source\PSoC4/BLE.c **** * 
1392:.\Generated_Source\PSoC4/BLE.c **** *  \param ptr: Pointer to the LSB of two-bytes data (little endian).
1393:.\Generated_Source\PSoC4/BLE.c **** * 
1394:.\Generated_Source\PSoC4/BLE.c **** *  \return
1395:.\Generated_Source\PSoC4/BLE.c **** *  uint16: Two-bytes data.
1396:.\Generated_Source\PSoC4/BLE.c **** * 
1397:.\Generated_Source\PSoC4/BLE.c **** ******************************************************************************/
1398:.\Generated_Source\PSoC4/BLE.c **** uint16 CyBle_Get16ByPtr(const uint8 ptr[])
1399:.\Generated_Source\PSoC4/BLE.c **** {
 1687              		.loc 1 1399 0
 1688              		.cfi_startproc
 1689 0000 80B5     		push	{r7, lr}
 1690              		.cfi_def_cfa_offset 8
 1691              		.cfi_offset 7, -8
 1692              		.cfi_offset 14, -4
 1693 0002 82B0     		sub	sp, sp, #8
 1694              		.cfi_def_cfa_offset 16
 1695 0004 00AF     		add	r7, sp, #0
 1696              		.cfi_def_cfa_register 7
 1697 0006 7860     		str	r0, [r7, #4]
1400:.\Generated_Source\PSoC4/BLE.c ****     return ((uint16) ptr[0u] | ((uint16) (((uint16) ptr[1u]) << 8u)));
 1698              		.loc 1 1400 0
 1699 0008 7B68     		ldr	r3, [r7, #4]
 1700 000a 1B78     		ldrb	r3, [r3]
 1701 000c 9AB2     		uxth	r2, r3
 1702 000e 7B68     		ldr	r3, [r7, #4]
 1703 0010 0133     		add	r3, r3, #1
 1704 0012 1B78     		ldrb	r3, [r3]
 1705 0014 9BB2     		uxth	r3, r3
 1706 0016 1B02     		lsl	r3, r3, #8
 1707 0018 9BB2     		uxth	r3, r3
ARM GAS  C:\Users\ADMINI~1\AppData\Local\Temp\cczpe50f.s 			page 56


 1708 001a 1343     		orr	r3, r2
 1709 001c 9BB2     		uxth	r3, r3
1401:.\Generated_Source\PSoC4/BLE.c **** }
 1710              		.loc 1 1401 0
 1711 001e 181C     		mov	r0, r3
 1712 0020 BD46     		mov	sp, r7
 1713 0022 02B0     		add	sp, sp, #8
 1714              		@ sp needed
 1715 0024 80BD     		pop	{r7, pc}
 1716              		.cfi_endproc
 1717              	.LFE14:
 1718              		.size	CyBle_Get16ByPtr, .-CyBle_Get16ByPtr
 1719 0026 C046     		.section	.text.CyBle_Set16ByPtr,"ax",%progbits
 1720              		.align	2
 1721              		.global	CyBle_Set16ByPtr
 1722              		.code	16
 1723              		.thumb_func
 1724              		.type	CyBle_Set16ByPtr, %function
 1725              	CyBle_Set16ByPtr:
 1726              	.LFB15:
1402:.\Generated_Source\PSoC4/BLE.c **** 
1403:.\Generated_Source\PSoC4/BLE.c **** 
1404:.\Generated_Source\PSoC4/BLE.c **** /******************************************************************************
1405:.\Generated_Source\PSoC4/BLE.c **** * Function Name: CyBle_Set16ByPtr
1406:.\Generated_Source\PSoC4/BLE.c **** ***************************************************************************//**
1407:.\Generated_Source\PSoC4/BLE.c **** * 
1408:.\Generated_Source\PSoC4/BLE.c **** *  Sets the two-bytes value by using a pointer to the LSB.
1409:.\Generated_Source\PSoC4/BLE.c **** * 
1410:.\Generated_Source\PSoC4/BLE.c **** *  \param ptr:    Pointer to the LSB of two-bytes data (little endian).
1411:.\Generated_Source\PSoC4/BLE.c **** *  \param value:  Two-bytes data to be written.
1412:.\Generated_Source\PSoC4/BLE.c **** * 
1413:.\Generated_Source\PSoC4/BLE.c **** *  \return
1414:.\Generated_Source\PSoC4/BLE.c **** *  None
1415:.\Generated_Source\PSoC4/BLE.c **** * 
1416:.\Generated_Source\PSoC4/BLE.c **** ******************************************************************************/
1417:.\Generated_Source\PSoC4/BLE.c **** void CyBle_Set16ByPtr(uint8 ptr[], uint16 value)
1418:.\Generated_Source\PSoC4/BLE.c **** {
 1727              		.loc 1 1418 0
 1728              		.cfi_startproc
 1729 0000 80B5     		push	{r7, lr}
 1730              		.cfi_def_cfa_offset 8
 1731              		.cfi_offset 7, -8
 1732              		.cfi_offset 14, -4
 1733 0002 82B0     		sub	sp, sp, #8
 1734              		.cfi_def_cfa_offset 16
 1735 0004 00AF     		add	r7, sp, #0
 1736              		.cfi_def_cfa_register 7
 1737 0006 7860     		str	r0, [r7, #4]
 1738 0008 0A1C     		mov	r2, r1
 1739 000a BB1C     		add	r3, r7, #2
 1740 000c 1A80     		strh	r2, [r3]
1419:.\Generated_Source\PSoC4/BLE.c ****     ptr[0u] = (uint8) value;
 1741              		.loc 1 1419 0
 1742 000e BB1C     		add	r3, r7, #2
 1743 0010 1B88     		ldrh	r3, [r3]
 1744 0012 DAB2     		uxtb	r2, r3
 1745 0014 7B68     		ldr	r3, [r7, #4]
ARM GAS  C:\Users\ADMINI~1\AppData\Local\Temp\cczpe50f.s 			page 57


 1746 0016 1A70     		strb	r2, [r3]
1420:.\Generated_Source\PSoC4/BLE.c ****     ptr[1u] = (uint8) (value >> 8u);
 1747              		.loc 1 1420 0
 1748 0018 7B68     		ldr	r3, [r7, #4]
 1749 001a 0133     		add	r3, r3, #1
 1750 001c BA1C     		add	r2, r7, #2
 1751 001e 1288     		ldrh	r2, [r2]
 1752 0020 120A     		lsr	r2, r2, #8
 1753 0022 92B2     		uxth	r2, r2
 1754 0024 D2B2     		uxtb	r2, r2
 1755 0026 1A70     		strb	r2, [r3]
1421:.\Generated_Source\PSoC4/BLE.c **** }
 1756              		.loc 1 1421 0
 1757 0028 BD46     		mov	sp, r7
 1758 002a 02B0     		add	sp, sp, #8
 1759              		@ sp needed
 1760 002c 80BD     		pop	{r7, pc}
 1761              		.cfi_endproc
 1762              	.LFE15:
 1763              		.size	CyBle_Set16ByPtr, .-CyBle_Set16ByPtr
 1764 002e C046     		.text
 1765              	.Letext0:
 1766              		.file 2 ".\\Generated_Source\\PSoC4\\cytypes.h"
 1767              		.file 3 ".\\Generated_Source\\PSoC4\\BLE_Stack.h"
 1768              		.file 4 ".\\Generated_Source\\PSoC4\\BLE_StackGap.h"
 1769              		.file 5 ".\\Generated_Source\\PSoC4\\BLE_StackGatt.h"
 1770              		.file 6 ".\\Generated_Source\\PSoC4\\BLE_StackGattDb.h"
 1771              		.file 7 ".\\Generated_Source\\PSoC4\\BLE.h"
 1772              		.file 8 ".\\Generated_Source\\PSoC4\\BLE_gatt.h"
 1773              		.file 9 ".\\Generated_Source\\PSoC4\\BLE_eventHandler.h"