ARM GAS  C:\Users\ADMINI~1\AppData\Local\Temp\ccieeocD.s 			page 1


   1              		.cpu cortex-m0
   2              		.fpu softvfp
   3              		.eabi_attribute 20, 1
   4              		.eabi_attribute 21, 1
   5              		.eabi_attribute 23, 3
   6              		.eabi_attribute 24, 1
   7              		.eabi_attribute 25, 1
   8              		.eabi_attribute 26, 1
   9              		.eabi_attribute 30, 6
  10              		.eabi_attribute 34, 0
  11              		.eabi_attribute 18, 4
  12              		.code	16
  13              		.file	"BLE.c"
  14              		.text
  15              	.Ltext0:
  16              		.cfi_sections	.debug_frame
  17              		.global	cyBle_initVar
  18              		.bss
  19              		.type	cyBle_initVar, %object
  20              		.size	cyBle_initVar, 1
  21              	cyBle_initVar:
  22 0000 00       		.space	1
  23              		.global	cyBle_stackMemoryRam
  24              		.section	.noinit,"aw",%progbits
  25              		.align	3
  26              		.type	cyBle_stackMemoryRam, %object
  27              		.size	cyBle_stackMemoryRam, 2840
  28              	cyBle_stackMemoryRam:
  29 0000 00000000 		.space	2840
  29      00000000 
  29      00000000 
  29      00000000 
  29      00000000 
  30              		.global	cyBle_discoveryParam
  31              		.data
  32              		.align	2
  33              		.type	cyBle_discoveryParam, %object
  34              		.size	cyBle_discoveryParam, 16
  35              	cyBle_discoveryParam:
  36 0000 F000     		.short	240
  37 0002 F000     		.short	240
  38 0004 00       		.byte	0
  39 0005 00       		.byte	0
  40 0006 00       		.byte	0
  41 0007 00       		.byte	0
  42 0008 00       		.byte	0
  43 0009 00       		.byte	0
  44 000a 50       		.byte	80
  45 000b A0       		.byte	-96
  46 000c 00       		.byte	0
  47 000d 07       		.byte	7
  48 000e 00       		.byte	0
  49 000f 00       		.space	1
  50              		.global	cyBle_discoveryData
  51              		.align	2
  52              		.type	cyBle_discoveryData, %object
  53              		.size	cyBle_discoveryData, 32
ARM GAS  C:\Users\ADMINI~1\AppData\Local\Temp\ccieeocD.s 			page 2


  54              	cyBle_discoveryData:
  55 0010 02       		.byte	2
  56 0011 01       		.byte	1
  57 0012 06       		.byte	6
  58 0013 0A       		.byte	10
  59 0014 09       		.byte	9
  60 0015 46       		.byte	70
  61 0016 65       		.byte	101
  62 0017 69       		.byte	105
  63 0018 44       		.byte	68
  64 0019 69       		.byte	105
  65 001a 61       		.byte	97
  66 001b 6F       		.byte	111
  67 001c 30       		.byte	48
  68 001d 31       		.byte	49
  69 001e 00       		.byte	0
  70 001f 00       		.byte	0
  71 0020 00       		.byte	0
  72 0021 00       		.byte	0
  73 0022 00       		.byte	0
  74 0023 00       		.byte	0
  75 0024 00       		.byte	0
  76 0025 00       		.byte	0
  77 0026 00       		.byte	0
  78 0027 00       		.byte	0
  79 0028 00       		.byte	0
  80 0029 00       		.byte	0
  81 002a 00       		.byte	0
  82 002b 00       		.byte	0
  83 002c 00       		.byte	0
  84 002d 00       		.byte	0
  85 002e 00       		.byte	0
  86 002f 0E       		.byte	14
  87              		.global	cyBle_scanRspData
  88              		.bss
  89 0001 000000   		.align	2
  90              		.type	cyBle_scanRspData, %object
  91              		.size	cyBle_scanRspData, 32
  92              	cyBle_scanRspData:
  93 0004 00000000 		.space	32
  93      00000000 
  93      00000000 
  93      00000000 
  93      00000000 
  94              		.global	cyBle_discoveryModeInfo
  95              		.data
  96              		.align	2
  97              		.type	cyBle_discoveryModeInfo, %object
  98              		.size	cyBle_discoveryModeInfo, 20
  99              	cyBle_discoveryModeInfo:
 100 0030 02       		.byte	2
 101 0031 000000   		.space	3
 102 0034 00000000 		.word	cyBle_discoveryParam
 103 0038 00000000 		.word	cyBle_discoveryData
 104 003c 00000000 		.word	cyBle_scanRspData
 105 0040 0000     		.short	0
 106 0042 0000     		.space	2
ARM GAS  C:\Users\ADMINI~1\AppData\Local\Temp\ccieeocD.s 			page 3


 107              		.comm	cyBle_peerBonding,1,1
 108              		.comm	cyBle_pendingFlashWrite,1,1
 109              		.bss
 110              	cyBle_pendingFlashClearCccdHandle:
 111 0024 00       		.space	1
 112              		.comm	CyBle_ApplCallback,4,4
 113              		.global	cyBle_deviceAddress
 114 0025 000000   		.data
 115              		.align	2
 116              		.type	cyBle_deviceAddress, %object
 117              		.size	cyBle_deviceAddress, 7
 118              	cyBle_deviceAddress:
 119 0044 00       		.byte	0
 120 0045 00       		.byte	0
 121 0046 00       		.byte	0
 122 0047 50       		.byte	80
 123 0048 A0       		.byte	-96
 124 0049 00       		.byte	0
 125 004a 00       		.byte	0
 126              		.global	cyBle_sflashDeviceAddress
 127 004b 00       		.align	2
 128              		.type	cyBle_sflashDeviceAddress, %object
 129              		.size	cyBle_sflashDeviceAddress, 4
 130              	cyBle_sflashDeviceAddress:
 131 004c 00F2FF0F 		.word	268431872
 132              		.section	.text.CyBle_Init,"ax",%progbits
 133              		.align	2
 134              		.global	CyBle_Init
 135              		.code	16
 136              		.thumb_func
 137              		.type	CyBle_Init, %function
 138              	CyBle_Init:
 139              	.LFB2:
 140              		.file 1 ".\\Generated_Source\\PSoC4\\BLE.c"
   1:.\Generated_Source\PSoC4/BLE.c **** /***************************************************************************//**
   2:.\Generated_Source\PSoC4/BLE.c **** * \file CYBLE.c
   3:.\Generated_Source\PSoC4/BLE.c **** * \version 3.10
   4:.\Generated_Source\PSoC4/BLE.c **** * 
   5:.\Generated_Source\PSoC4/BLE.c **** * \brief
   6:.\Generated_Source\PSoC4/BLE.c **** *  This file contains the source code for the Common APIs of the BLE Component.
   7:.\Generated_Source\PSoC4/BLE.c **** * 
   8:.\Generated_Source\PSoC4/BLE.c **** ********************************************************************************
   9:.\Generated_Source\PSoC4/BLE.c **** * \copyright
  10:.\Generated_Source\PSoC4/BLE.c **** * Copyright 2014-2016, Cypress Semiconductor Corporation.  All rights reserved.
  11:.\Generated_Source\PSoC4/BLE.c **** * You may use this file only in accordance with the license, terms, conditions,
  12:.\Generated_Source\PSoC4/BLE.c **** * disclaimers, and limitations in the end user license agreement accompanying
  13:.\Generated_Source\PSoC4/BLE.c **** * the software package with which this file was provided.
  14:.\Generated_Source\PSoC4/BLE.c **** *******************************************************************************/
  15:.\Generated_Source\PSoC4/BLE.c **** 
  16:.\Generated_Source\PSoC4/BLE.c **** #include "BLE_eventHandler.h"
  17:.\Generated_Source\PSoC4/BLE.c **** #include "BLE_HAL_PVT.h"
  18:.\Generated_Source\PSoC4/BLE.c **** #include <stdlib.h>
  19:.\Generated_Source\PSoC4/BLE.c **** 
  20:.\Generated_Source\PSoC4/BLE.c **** 
  21:.\Generated_Source\PSoC4/BLE.c **** /***************************************
  22:.\Generated_Source\PSoC4/BLE.c **** * Function Prototypes
  23:.\Generated_Source\PSoC4/BLE.c **** ***************************************/
ARM GAS  C:\Users\ADMINI~1\AppData\Local\Temp\ccieeocD.s 			page 4


  24:.\Generated_Source\PSoC4/BLE.c **** 
  25:.\Generated_Source\PSoC4/BLE.c **** #if(CYBLE_GATT_ROLE_SERVER)
  26:.\Generated_Source\PSoC4/BLE.c ****     #if(CYBLE_GAP_ROLE_PERIPHERAL)
  27:.\Generated_Source\PSoC4/BLE.c ****         static void CyBle_ChangeAdLocalName(const char8 name[], uint8 dest);
  28:.\Generated_Source\PSoC4/BLE.c ****     #endif /* (CYBLE_GAP_ROLE_PERIPHERAL) */
  29:.\Generated_Source\PSoC4/BLE.c **** #endif /* (CYBLE_GATT_ROLE_SERVER) */
  30:.\Generated_Source\PSoC4/BLE.c ****     
  31:.\Generated_Source\PSoC4/BLE.c **** 
  32:.\Generated_Source\PSoC4/BLE.c **** /***************************************
  33:.\Generated_Source\PSoC4/BLE.c **** * Global Variables
  34:.\Generated_Source\PSoC4/BLE.c **** ***************************************/
  35:.\Generated_Source\PSoC4/BLE.c **** 
  36:.\Generated_Source\PSoC4/BLE.c **** /* Indicates whether the BLE has been initialized. The variable is initialized to
  37:.\Generated_Source\PSoC4/BLE.c ****    0 and set to 1 the first time CyBle_Start() is called. This allows the component
  38:.\Generated_Source\PSoC4/BLE.c ****    to restart without reinitialization after the first call to the CyBle_Start() 
  39:.\Generated_Source\PSoC4/BLE.c ****    routine. If reinitialization of the component is required, the variable should 
  40:.\Generated_Source\PSoC4/BLE.c ****    be set to 0 before the CyBle_Start() routine is called. Alternatively, the BLE
  41:.\Generated_Source\PSoC4/BLE.c ****    can be reinitialized by calling the CyBle_Init() function.
  42:.\Generated_Source\PSoC4/BLE.c **** */
  43:.\Generated_Source\PSoC4/BLE.c **** uint8  cyBle_initVar = 0u;
  44:.\Generated_Source\PSoC4/BLE.c **** 
  45:.\Generated_Source\PSoC4/BLE.c **** /* Allocate RAM memory for stack. This buffer could be reused by application when 
  46:.\Generated_Source\PSoC4/BLE.c ****    BLE component is stopped. For export mode buffer is allocated in heap.
  47:.\Generated_Source\PSoC4/BLE.c **** */
  48:.\Generated_Source\PSoC4/BLE.c **** #if(CYBLE_SHARING_MODE_EXPORT)
  49:.\Generated_Source\PSoC4/BLE.c ****     
  50:.\Generated_Source\PSoC4/BLE.c **** uint8 *cyBle_stackMemoryRam = NULL;
  51:.\Generated_Source\PSoC4/BLE.c **** 
  52:.\Generated_Source\PSoC4/BLE.c **** #else
  53:.\Generated_Source\PSoC4/BLE.c **** 
  54:.\Generated_Source\PSoC4/BLE.c **** CYBLE_CYALIGNED_BEGIN CY_NOINIT uint8 cyBle_stackMemoryRam[CYBLE_STACK_RAM_SIZE] CYBLE_CYALIGNED_EN
  55:.\Generated_Source\PSoC4/BLE.c **** 
  56:.\Generated_Source\PSoC4/BLE.c **** #endif  /* CYBLE_SHARING_MODE_EXPORT */
  57:.\Generated_Source\PSoC4/BLE.c **** 
  58:.\Generated_Source\PSoC4/BLE.c **** #if(CYBLE_GAP_ROLE_PERIPHERAL || CYBLE_GAP_ROLE_BROADCASTER)
  59:.\Generated_Source\PSoC4/BLE.c **** 
  60:.\Generated_Source\PSoC4/BLE.c **** CYBLE_GAPP_DISC_PARAM_T cyBle_discoveryParam =
  61:.\Generated_Source\PSoC4/BLE.c **** {
  62:.\Generated_Source\PSoC4/BLE.c ****     0x00F0u,    /* uint16 advertising_interval_min */
  63:.\Generated_Source\PSoC4/BLE.c ****     0x00F0u,    /* uint16 advertising_interval_max */
  64:.\Generated_Source\PSoC4/BLE.c ****     CYBLE_GAPP_CONNECTABLE_UNDIRECTED_ADV, /* uint8 advertising_type */
  65:.\Generated_Source\PSoC4/BLE.c ****     0x00u,      /* uint8 own_addr_type */
  66:.\Generated_Source\PSoC4/BLE.c ****     0x00u,      /* uint8 direct_addr_type */
  67:.\Generated_Source\PSoC4/BLE.c ****     {0x00u, 0x00u, 0x00u, 0x50u, 0xA0u, 0x00u}, /* uint8* direct_addr */
  68:.\Generated_Source\PSoC4/BLE.c ****     0x07u,      /* uint8 advertising_channel_map */
  69:.\Generated_Source\PSoC4/BLE.c ****     0x00u,      /* uint8 advertising_filter_policy */
  70:.\Generated_Source\PSoC4/BLE.c **** };
  71:.\Generated_Source\PSoC4/BLE.c **** 
  72:.\Generated_Source\PSoC4/BLE.c **** CYBLE_GAPP_DISC_DATA_T cyBle_discoveryData =
  73:.\Generated_Source\PSoC4/BLE.c **** {
  74:.\Generated_Source\PSoC4/BLE.c ****     { 0x02u, 0x01u, 0x06u, 0x0Au, 0x09u, 0x46u, 0x65u,
  75:.\Generated_Source\PSoC4/BLE.c ****     0x69u, 0x44u, 0x69u, 0x61u, 0x6Fu, 0x30u, 0x31u, 0x00u,
  76:.\Generated_Source\PSoC4/BLE.c ****     0x00u, 0x00u, 0x00u, 0x00u, 0x00u, 0x00u, 0x00u, 0x00u,
  77:.\Generated_Source\PSoC4/BLE.c ****     0x00u, 0x00u, 0x00u, 0x00u, 0x00u, 0x00u, 0x00u, 0x00u }, /* uint8 advertising_data[CYBLE_MAX_A
  78:.\Generated_Source\PSoC4/BLE.c ****     0x0Eu,      /* uint8 adv_data_length */
  79:.\Generated_Source\PSoC4/BLE.c **** };
  80:.\Generated_Source\PSoC4/BLE.c **** 
ARM GAS  C:\Users\ADMINI~1\AppData\Local\Temp\ccieeocD.s 			page 5


  81:.\Generated_Source\PSoC4/BLE.c **** CYBLE_GAPP_SCAN_RSP_DATA_T cyBle_scanRspData =
  82:.\Generated_Source\PSoC4/BLE.c **** {
  83:.\Generated_Source\PSoC4/BLE.c ****     { 0x00u, 0x00u, 0x00u, 0x00u, 0x00u, 0x00u, 0x00u,
  84:.\Generated_Source\PSoC4/BLE.c ****     0x00u, 0x00u, 0x00u, 0x00u, 0x00u, 0x00u, 0x00u, 0x00u,
  85:.\Generated_Source\PSoC4/BLE.c ****     0x00u, 0x00u, 0x00u, 0x00u, 0x00u, 0x00u, 0x00u, 0x00u,
  86:.\Generated_Source\PSoC4/BLE.c ****     0x00u, 0x00u, 0x00u, 0x00u, 0x00u, 0x00u, 0x00u, 0x00u }, /* uint8 scan_rsp_data[CYBLE_MAX_SCAN
  87:.\Generated_Source\PSoC4/BLE.c ****     0x00u,      /* uint8 scan_rsp_data_length */
  88:.\Generated_Source\PSoC4/BLE.c **** };
  89:.\Generated_Source\PSoC4/BLE.c **** 
  90:.\Generated_Source\PSoC4/BLE.c **** /* This variable of type CYBLE_GAPP_DISC_MODE_INFO_T is present only when 
  91:.\Generated_Source\PSoC4/BLE.c ****    the BLE component is configured for Peripheral GAP role or Central and 
  92:.\Generated_Source\PSoC4/BLE.c ****    Peripheral GAP role. It contains the Advertisement settings and also the 
  93:.\Generated_Source\PSoC4/BLE.c ****    Advertisement and Scan response data parameters entered in the customizer.
  94:.\Generated_Source\PSoC4/BLE.c ****    This variable can be used by advanced users to change Advertisement settings,
  95:.\Generated_Source\PSoC4/BLE.c ****    Advertisement or Scan response data in runtime. 
  96:.\Generated_Source\PSoC4/BLE.c **** */
  97:.\Generated_Source\PSoC4/BLE.c **** CYBLE_GAPP_DISC_MODE_INFO_T cyBle_discoveryModeInfo =
  98:.\Generated_Source\PSoC4/BLE.c **** {
  99:.\Generated_Source\PSoC4/BLE.c ****     0x02u,      /* uint8 discMode */
 100:.\Generated_Source\PSoC4/BLE.c ****     &cyBle_discoveryParam,
 101:.\Generated_Source\PSoC4/BLE.c ****     &cyBle_discoveryData,
 102:.\Generated_Source\PSoC4/BLE.c ****     &cyBle_scanRspData,
 103:.\Generated_Source\PSoC4/BLE.c ****     0x0000u,    /* uint16 advTo */
 104:.\Generated_Source\PSoC4/BLE.c **** };
 105:.\Generated_Source\PSoC4/BLE.c **** 
 106:.\Generated_Source\PSoC4/BLE.c **** 
 107:.\Generated_Source\PSoC4/BLE.c **** #endif /* CYBLE_GAP_ROLE_PERIPHERAL || CYBLE_GAP_ROLE_BROADCASTER */
 108:.\Generated_Source\PSoC4/BLE.c **** 
 109:.\Generated_Source\PSoC4/BLE.c **** #if(CYBLE_GAP_ROLE_CENTRAL)
 110:.\Generated_Source\PSoC4/BLE.c ****     
 111:.\Generated_Source\PSoC4/BLE.c **** CYBLE_GAPC_CONN_PARAM_T cyBle_connectionParameters;
 112:.\Generated_Source\PSoC4/BLE.c **** 
 113:.\Generated_Source\PSoC4/BLE.c **** /* Connecting timeout is set to 30 seconds in CyBle_Init function. 
 114:.\Generated_Source\PSoC4/BLE.c ****    Not zero value starts timer in CyBle_GapcConnectDevice API.
 115:.\Generated_Source\PSoC4/BLE.c **** */
 116:.\Generated_Source\PSoC4/BLE.c **** uint16 cyBle_connectingTimeout;
 117:.\Generated_Source\PSoC4/BLE.c ****     
 118:.\Generated_Source\PSoC4/BLE.c **** #endif /* CYBLE_GAP_ROLE_CENTRAL */
 119:.\Generated_Source\PSoC4/BLE.c **** 
 120:.\Generated_Source\PSoC4/BLE.c **** #if(CYBLE_GAP_ROLE_CENTRAL || CYBLE_GAP_ROLE_OBSERVER)
 121:.\Generated_Source\PSoC4/BLE.c ****     
 122:.\Generated_Source\PSoC4/BLE.c **** 
 123:.\Generated_Source\PSoC4/BLE.c ****     
 124:.\Generated_Source\PSoC4/BLE.c **** #endif /* CYBLE_GAP_ROLE_CENTRAL || CYBLE_GAP_ROLE_OBSERVER */
 125:.\Generated_Source\PSoC4/BLE.c **** 
 126:.\Generated_Source\PSoC4/BLE.c **** #if((CYBLE_GAP_ROLE_PERIPHERAL || CYBLE_GAP_ROLE_CENTRAL) && (CYBLE_BONDING_REQUIREMENT == CYBLE_BO
 127:.\Generated_Source\PSoC4/BLE.c **** 
 128:.\Generated_Source\PSoC4/BLE.c **** uint8 cyBle_peerBonding;
 129:.\Generated_Source\PSoC4/BLE.c **** uint8 cyBle_pendingFlashWrite;
 130:.\Generated_Source\PSoC4/BLE.c ****     
 131:.\Generated_Source\PSoC4/BLE.c **** #if(CYBLE_GATT_DB_CCCD_COUNT != 0u)
 132:.\Generated_Source\PSoC4/BLE.c ****     static uint8 cyBle_pendingFlashClearCccdHandle;
 133:.\Generated_Source\PSoC4/BLE.c **** #endif /* CYBLE_GATT_DB_CCCD_COUNT != 0u */
 134:.\Generated_Source\PSoC4/BLE.c ****     
 135:.\Generated_Source\PSoC4/BLE.c **** #endif  /* (CYBLE_BONDING_REQUIREMENT == CYBLE_BONDING_YES) */
 136:.\Generated_Source\PSoC4/BLE.c **** 
 137:.\Generated_Source\PSoC4/BLE.c **** CYBLE_CALLBACK_T CyBle_ApplCallback;
ARM GAS  C:\Users\ADMINI~1\AppData\Local\Temp\ccieeocD.s 			page 6


 138:.\Generated_Source\PSoC4/BLE.c **** CYBLE_GAP_BD_ADDR_T cyBle_deviceAddress = {{0x00u, 0x00u, 0x00u, 0x50u, 0xA0u, 0x00u}, 0x00u };
 139:.\Generated_Source\PSoC4/BLE.c **** CYBLE_GAP_BD_ADDR_T * cyBle_sflashDeviceAddress = CYBLE_SFLASH_DEVICE_ADDRESS_PTR;
 140:.\Generated_Source\PSoC4/BLE.c **** 
 141:.\Generated_Source\PSoC4/BLE.c **** 
 142:.\Generated_Source\PSoC4/BLE.c **** /******************************************************************************
 143:.\Generated_Source\PSoC4/BLE.c **** * Function Name: CyBle_Init
 144:.\Generated_Source\PSoC4/BLE.c **** ***************************************************************************//**
 145:.\Generated_Source\PSoC4/BLE.c **** *
 146:.\Generated_Source\PSoC4/BLE.c **** *   Initializes the component with the parameters set in the customizer.
 147:.\Generated_Source\PSoC4/BLE.c **** * 
 148:.\Generated_Source\PSoC4/BLE.c **** *  \return
 149:.\Generated_Source\PSoC4/BLE.c **** *   None
 150:.\Generated_Source\PSoC4/BLE.c **** * 
 151:.\Generated_Source\PSoC4/BLE.c **** ******************************************************************************/
 152:.\Generated_Source\PSoC4/BLE.c **** void CyBle_Init(void)
 153:.\Generated_Source\PSoC4/BLE.c **** {
 141              		.loc 1 153 0
 142              		.cfi_startproc
 143 0000 80B5     		push	{r7, lr}
 144              		.cfi_def_cfa_offset 8
 145              		.cfi_offset 7, -8
 146              		.cfi_offset 14, -4
 147 0002 00AF     		add	r7, sp, #0
 148              		.cfi_def_cfa_register 7
 154:.\Generated_Source\PSoC4/BLE.c ****     cyBle_eventHandlerFlag = 0u;
 149              		.loc 1 154 0
 150 0004 094B     		ldr	r3, .L2
 151 0006 0022     		mov	r2, #0
 152 0008 1A70     		strb	r2, [r3]
 155:.\Generated_Source\PSoC4/BLE.c ****     cyBle_busyStatus = CYBLE_STACK_STATE_FREE;
 153              		.loc 1 155 0
 154 000a 094B     		ldr	r3, .L2+4
 155 000c 0022     		mov	r2, #0
 156 000e 1A70     		strb	r2, [r3]
 156:.\Generated_Source\PSoC4/BLE.c **** 
 157:.\Generated_Source\PSoC4/BLE.c ****     #if(CYBLE_GAP_ROLE_PERIPHERAL || CYBLE_GAP_ROLE_BROADCASTER) 
 158:.\Generated_Source\PSoC4/BLE.c ****         cyBle_advertisingIntervalType = CYBLE_ADVERTISING_FAST; 
 157              		.loc 1 158 0
 158 0010 084B     		ldr	r3, .L2+8
 159 0012 0022     		mov	r2, #0
 160 0014 1A70     		strb	r2, [r3]
 159:.\Generated_Source\PSoC4/BLE.c ****     #endif /* (CYBLE_GAP_ROLE_PERIPHERAL || CYBLE_GAP_ROLE_BROADCASTER)  */
 160:.\Generated_Source\PSoC4/BLE.c ****     #if(CYBLE_GAP_ROLE_CENTRAL || CYBLE_GAP_ROLE_OBSERVER)
 161:.\Generated_Source\PSoC4/BLE.c ****         cyBle_scanningIntervalType = CYBLE_SCANNING_FAST; 
 162:.\Generated_Source\PSoC4/BLE.c ****     #endif /* (CYBLE_GAP_ROLE_CENTRAL || CYBLE_GAP_ROLE_OBSERVER) */
 163:.\Generated_Source\PSoC4/BLE.c ****         
 164:.\Generated_Source\PSoC4/BLE.c ****     /* Init default connection parameters. 
 165:.\Generated_Source\PSoC4/BLE.c ****        Application may change it before initiating a connection */
 166:.\Generated_Source\PSoC4/BLE.c ****     #if(CYBLE_GAP_ROLE_CENTRAL)
 167:.\Generated_Source\PSoC4/BLE.c ****         cyBle_connectionParameters.scanIntv = cyBle_discoveryInfo.scanIntv;
 168:.\Generated_Source\PSoC4/BLE.c ****         cyBle_connectionParameters.scanWindow = cyBle_discoveryInfo.scanWindow;
 169:.\Generated_Source\PSoC4/BLE.c ****         cyBle_connectionParameters.ownAddrType = cyBle_discoveryInfo.ownAddrType;
 170:.\Generated_Source\PSoC4/BLE.c ****         cyBle_connectionParameters.initiatorFilterPolicy = cyBle_discoveryInfo.scanFilterPolicy;
 171:.\Generated_Source\PSoC4/BLE.c ****         cyBle_connectionParameters.connIntvMin = CYBLE_GAPC_CONNECTION_INTERVAL_MIN;
 172:.\Generated_Source\PSoC4/BLE.c ****         cyBle_connectionParameters.connIntvMax = CYBLE_GAPC_CONNECTION_INTERVAL_MAX;
 173:.\Generated_Source\PSoC4/BLE.c ****         cyBle_connectionParameters.connLatency = CYBLE_GAPC_CONNECTION_SLAVE_LATENCY;
 174:.\Generated_Source\PSoC4/BLE.c ****         cyBle_connectionParameters.supervisionTO = CYBLE_GAPC_CONNECTION_TIME_OUT;
ARM GAS  C:\Users\ADMINI~1\AppData\Local\Temp\ccieeocD.s 			page 7


 175:.\Generated_Source\PSoC4/BLE.c ****         cyBle_connectionParameters.minCeLength = 0x0000u;
 176:.\Generated_Source\PSoC4/BLE.c ****         cyBle_connectionParameters.maxCeLength = 0xFFFFu;
 177:.\Generated_Source\PSoC4/BLE.c ****         
 178:.\Generated_Source\PSoC4/BLE.c ****         cyBle_connectingTimeout = CYBLE_GAPC_CONNECTING_TIMEOUT;
 179:.\Generated_Source\PSoC4/BLE.c ****     #endif /* CYBLE_GAP_ROLE_CENTRAL */
 180:.\Generated_Source\PSoC4/BLE.c **** 
 181:.\Generated_Source\PSoC4/BLE.c ****     CyBle_ServiceInit();
 161              		.loc 1 181 0
 162 0016 FFF7FEFF 		bl	CyBle_ServiceInit
 182:.\Generated_Source\PSoC4/BLE.c **** 
 183:.\Generated_Source\PSoC4/BLE.c ****     #if((CYBLE_GAP_ROLE_PERIPHERAL || CYBLE_GAP_ROLE_CENTRAL) && (CYBLE_BONDING_REQUIREMENT == CYBL
 184:.\Generated_Source\PSoC4/BLE.c ****         cyBle_pendingFlashWrite = 0u;
 163              		.loc 1 184 0
 164 001a 074B     		ldr	r3, .L2+12
 165 001c 0022     		mov	r2, #0
 166 001e 1A70     		strb	r2, [r3]
 185:.\Generated_Source\PSoC4/BLE.c ****         cyBle_peerBonding = CYBLE_GAP_BONDING_NONE;
 167              		.loc 1 185 0
 168 0020 064B     		ldr	r3, .L2+16
 169 0022 0022     		mov	r2, #0
 170 0024 1A70     		strb	r2, [r3]
 186:.\Generated_Source\PSoC4/BLE.c ****     #endif  /* (CYBLE_BONDING_REQUIREMENT == CYBLE_BONDING_YES) */
 187:.\Generated_Source\PSoC4/BLE.c **** 
 188:.\Generated_Source\PSoC4/BLE.c **** }
 171              		.loc 1 188 0
 172 0026 BD46     		mov	sp, r7
 173              		@ sp needed
 174 0028 80BD     		pop	{r7, pc}
 175              	.L3:
 176 002a C046     		.align	2
 177              	.L2:
 178 002c 00000000 		.word	cyBle_eventHandlerFlag
 179 0030 00000000 		.word	cyBle_busyStatus
 180 0034 00000000 		.word	cyBle_advertisingIntervalType
 181 0038 00000000 		.word	cyBle_pendingFlashWrite
 182 003c 00000000 		.word	cyBle_peerBonding
 183              		.cfi_endproc
 184              	.LFE2:
 185              		.size	CyBle_Init, .-CyBle_Init
 186              		.section	.text.CyBle_ServiceInit,"ax",%progbits
 187              		.align	2
 188              		.global	CyBle_ServiceInit
 189              		.code	16
 190              		.thumb_func
 191              		.type	CyBle_ServiceInit, %function
 192              	CyBle_ServiceInit:
 193              	.LFB3:
 189:.\Generated_Source\PSoC4/BLE.c **** 
 190:.\Generated_Source\PSoC4/BLE.c **** 
 191:.\Generated_Source\PSoC4/BLE.c **** /******************************************************************************
 192:.\Generated_Source\PSoC4/BLE.c **** * Function Name: CyBle_ServiceInit
 193:.\Generated_Source\PSoC4/BLE.c **** ***************************************************************************//**
 194:.\Generated_Source\PSoC4/BLE.c **** * 
 195:.\Generated_Source\PSoC4/BLE.c **** *  Initializes all included services.
 196:.\Generated_Source\PSoC4/BLE.c **** * 
 197:.\Generated_Source\PSoC4/BLE.c **** * \return
 198:.\Generated_Source\PSoC4/BLE.c **** *  None
ARM GAS  C:\Users\ADMINI~1\AppData\Local\Temp\ccieeocD.s 			page 8


 199:.\Generated_Source\PSoC4/BLE.c **** * 
 200:.\Generated_Source\PSoC4/BLE.c **** ******************************************************************************/
 201:.\Generated_Source\PSoC4/BLE.c **** void CyBle_ServiceInit(void)
 202:.\Generated_Source\PSoC4/BLE.c **** {
 194              		.loc 1 202 0
 195              		.cfi_startproc
 196 0000 80B5     		push	{r7, lr}
 197              		.cfi_def_cfa_offset 8
 198              		.cfi_offset 7, -8
 199              		.cfi_offset 14, -4
 200 0002 00AF     		add	r7, sp, #0
 201              		.cfi_def_cfa_register 7
 203:.\Generated_Source\PSoC4/BLE.c ****     #if(CYBLE_GATT_ROLE_CLIENT)
 204:.\Generated_Source\PSoC4/BLE.c ****         /* Check service range before clearing to support partial discovery */
 205:.\Generated_Source\PSoC4/BLE.c ****         if(cyBle_serverInfo[CYBLE_SRVI_GAP].range.startHandle == CYBLE_GATT_INVALID_ATTR_HANDLE_VAL
 206:.\Generated_Source\PSoC4/BLE.c ****         {
 207:.\Generated_Source\PSoC4/BLE.c ****             (void)memset(&cyBle_gapc, 0, sizeof(cyBle_gapc));
 208:.\Generated_Source\PSoC4/BLE.c ****         }
 209:.\Generated_Source\PSoC4/BLE.c ****         if(cyBle_serverInfo[CYBLE_SRVI_GATT].range.startHandle == CYBLE_GATT_INVALID_ATTR_HANDLE_VA
 210:.\Generated_Source\PSoC4/BLE.c ****         {
 211:.\Generated_Source\PSoC4/BLE.c ****             (void)memset(&cyBle_gattc, 0, sizeof(cyBle_gattc));
 212:.\Generated_Source\PSoC4/BLE.c ****         }
 213:.\Generated_Source\PSoC4/BLE.c ****     #endif /* CYBLE_GATT_ROLE_CLIENT */
 214:.\Generated_Source\PSoC4/BLE.c ****     
 215:.\Generated_Source\PSoC4/BLE.c **** 	#ifdef CYBLE_ANCS
 216:.\Generated_Source\PSoC4/BLE.c ****         CyBle_AncsInit();
 217:.\Generated_Source\PSoC4/BLE.c ****     #endif /* CYBLE_ANCS */
 218:.\Generated_Source\PSoC4/BLE.c **** 	
 219:.\Generated_Source\PSoC4/BLE.c ****     #ifdef CYBLE_ANS
 220:.\Generated_Source\PSoC4/BLE.c ****         CyBle_AnsInit();
 221:.\Generated_Source\PSoC4/BLE.c ****     #endif /* CYBLE_ANS */
 222:.\Generated_Source\PSoC4/BLE.c ****     
 223:.\Generated_Source\PSoC4/BLE.c ****     #ifdef CYBLE_BAS
 224:.\Generated_Source\PSoC4/BLE.c ****         CyBle_BasInit();
 225:.\Generated_Source\PSoC4/BLE.c ****     #endif /* CYBLE_BAS */
 226:.\Generated_Source\PSoC4/BLE.c ****     
 227:.\Generated_Source\PSoC4/BLE.c ****     #ifdef CYBLE_BCS
 228:.\Generated_Source\PSoC4/BLE.c ****         CyBle_BcsInit();
 229:.\Generated_Source\PSoC4/BLE.c ****     #endif /* CYBLE_BCS */
 230:.\Generated_Source\PSoC4/BLE.c **** 
 231:.\Generated_Source\PSoC4/BLE.c ****     #ifdef CYBLE_BLS
 232:.\Generated_Source\PSoC4/BLE.c ****         CyBle_BlsInit();
 233:.\Generated_Source\PSoC4/BLE.c ****     #endif /* CYBLE_BLS */
 234:.\Generated_Source\PSoC4/BLE.c ****     
 235:.\Generated_Source\PSoC4/BLE.c ****     #ifdef CYBLE_BMS
 236:.\Generated_Source\PSoC4/BLE.c ****         CyBle_BmsInit();
 237:.\Generated_Source\PSoC4/BLE.c ****     #endif /* CYBLE_BMS */
 238:.\Generated_Source\PSoC4/BLE.c ****     
 239:.\Generated_Source\PSoC4/BLE.c ****     #ifdef CYBLE_CGMS
 240:.\Generated_Source\PSoC4/BLE.c ****         CyBle_CgmsInit();
 241:.\Generated_Source\PSoC4/BLE.c ****     #endif /* CYBLE_CGMS */
 242:.\Generated_Source\PSoC4/BLE.c **** 
 243:.\Generated_Source\PSoC4/BLE.c ****     #ifdef CYBLE_CPS
 244:.\Generated_Source\PSoC4/BLE.c ****         CyBle_CpsInit();
 245:.\Generated_Source\PSoC4/BLE.c ****     #endif /* CYBLE_CPS */
 246:.\Generated_Source\PSoC4/BLE.c **** 
 247:.\Generated_Source\PSoC4/BLE.c ****     #ifdef CYBLE_CSCS
ARM GAS  C:\Users\ADMINI~1\AppData\Local\Temp\ccieeocD.s 			page 9


 248:.\Generated_Source\PSoC4/BLE.c ****         CyBle_CscsInit();
 249:.\Generated_Source\PSoC4/BLE.c ****     #endif /* CYBLE_CSCS */
 250:.\Generated_Source\PSoC4/BLE.c ****     
 251:.\Generated_Source\PSoC4/BLE.c ****     #ifdef CYBLE_CTS
 252:.\Generated_Source\PSoC4/BLE.c ****         CyBle_CtsInit();
 253:.\Generated_Source\PSoC4/BLE.c ****     #endif /* CYBLE_CTS */
 254:.\Generated_Source\PSoC4/BLE.c **** 
 255:.\Generated_Source\PSoC4/BLE.c ****     #ifdef CYBLE_CUSTOM
 256:.\Generated_Source\PSoC4/BLE.c ****         CyBle_CustomInit();
 202              		.loc 1 256 0
 203 0004 FFF7FEFF 		bl	CyBle_CustomInit
 257:.\Generated_Source\PSoC4/BLE.c ****     #endif /* CYBLE_CUSTOM */
 258:.\Generated_Source\PSoC4/BLE.c **** 
 259:.\Generated_Source\PSoC4/BLE.c ****     #ifdef CYBLE_DIS
 260:.\Generated_Source\PSoC4/BLE.c ****         CyBle_DisInit();
 261:.\Generated_Source\PSoC4/BLE.c ****     #endif /* CYBLE_DIS */
 262:.\Generated_Source\PSoC4/BLE.c **** 
 263:.\Generated_Source\PSoC4/BLE.c ****     #ifdef CYBLE_ESS
 264:.\Generated_Source\PSoC4/BLE.c ****         CyBle_EssInit();
 265:.\Generated_Source\PSoC4/BLE.c ****     #endif /* CYBLE_ESS */
 266:.\Generated_Source\PSoC4/BLE.c ****     
 267:.\Generated_Source\PSoC4/BLE.c ****     #ifdef CYBLE_GLS
 268:.\Generated_Source\PSoC4/BLE.c ****         CyBle_GlsInit();
 269:.\Generated_Source\PSoC4/BLE.c ****     #endif /* CYBLE_GLS */
 270:.\Generated_Source\PSoC4/BLE.c ****     
 271:.\Generated_Source\PSoC4/BLE.c ****     #ifdef CYBLE_HIDS
 272:.\Generated_Source\PSoC4/BLE.c ****         CyBle_HidsInit();
 273:.\Generated_Source\PSoC4/BLE.c ****     #endif /* CYBLE_HIDS */
 274:.\Generated_Source\PSoC4/BLE.c **** 
 275:.\Generated_Source\PSoC4/BLE.c ****     #ifdef CYBLE_HPS
 276:.\Generated_Source\PSoC4/BLE.c ****         CyBle_HpsInit();
 277:.\Generated_Source\PSoC4/BLE.c ****     #endif /* CYBLE_HPS */
 278:.\Generated_Source\PSoC4/BLE.c **** 
 279:.\Generated_Source\PSoC4/BLE.c ****     #ifdef CYBLE_HRS
 280:.\Generated_Source\PSoC4/BLE.c ****         CyBle_HrsInit();
 281:.\Generated_Source\PSoC4/BLE.c ****     #endif /* CYBLE_HRS */
 282:.\Generated_Source\PSoC4/BLE.c ****     
 283:.\Generated_Source\PSoC4/BLE.c ****     #ifdef CYBLE_HTS
 284:.\Generated_Source\PSoC4/BLE.c ****         CyBle_HtsInit();
 285:.\Generated_Source\PSoC4/BLE.c ****     #endif /* CYBLE_RSCS */
 286:.\Generated_Source\PSoC4/BLE.c **** 
 287:.\Generated_Source\PSoC4/BLE.c ****     #ifdef CYBLE_IAS
 288:.\Generated_Source\PSoC4/BLE.c ****         CyBle_IasInit();
 289:.\Generated_Source\PSoC4/BLE.c ****     #endif /* CYBLE_IAS */
 290:.\Generated_Source\PSoC4/BLE.c **** 
 291:.\Generated_Source\PSoC4/BLE.c ****     #ifdef CYBLE_IPS
 292:.\Generated_Source\PSoC4/BLE.c ****         CyBle_IpsInit();
 293:.\Generated_Source\PSoC4/BLE.c ****     #endif /* CYBLE_IPS */
 294:.\Generated_Source\PSoC4/BLE.c ****     
 295:.\Generated_Source\PSoC4/BLE.c ****     #ifdef CYBLE_LLS
 296:.\Generated_Source\PSoC4/BLE.c ****         CyBle_LlsInit();
 297:.\Generated_Source\PSoC4/BLE.c ****     #endif /* CYBLE_LLS */
 298:.\Generated_Source\PSoC4/BLE.c **** 
 299:.\Generated_Source\PSoC4/BLE.c ****     #ifdef CYBLE_LNS
 300:.\Generated_Source\PSoC4/BLE.c ****         CyBle_LnsInit();
 301:.\Generated_Source\PSoC4/BLE.c ****     #endif /* CYBLE_LNS */
 302:.\Generated_Source\PSoC4/BLE.c ****     
ARM GAS  C:\Users\ADMINI~1\AppData\Local\Temp\ccieeocD.s 			page 10


 303:.\Generated_Source\PSoC4/BLE.c ****     #ifdef CYBLE_NDCS
 304:.\Generated_Source\PSoC4/BLE.c ****         CyBle_NdcsInit();
 305:.\Generated_Source\PSoC4/BLE.c ****     #endif /* CYBLE_NDCS */
 306:.\Generated_Source\PSoC4/BLE.c ****     
 307:.\Generated_Source\PSoC4/BLE.c ****     #ifdef CYBLE_PASS
 308:.\Generated_Source\PSoC4/BLE.c ****         CyBle_PassInit();
 309:.\Generated_Source\PSoC4/BLE.c ****     #endif /* CYBLE_PASS */
 310:.\Generated_Source\PSoC4/BLE.c ****     
 311:.\Generated_Source\PSoC4/BLE.c ****     #ifdef CYBLE_RSCS
 312:.\Generated_Source\PSoC4/BLE.c ****         CyBle_RscsInit();
 313:.\Generated_Source\PSoC4/BLE.c ****     #endif /* CYBLE_RSCS */
 314:.\Generated_Source\PSoC4/BLE.c **** 
 315:.\Generated_Source\PSoC4/BLE.c ****     #ifdef CYBLE_RTUS
 316:.\Generated_Source\PSoC4/BLE.c ****         CyBle_RtusInit();
 317:.\Generated_Source\PSoC4/BLE.c ****     #endif /* CYBLE_RTUS */
 318:.\Generated_Source\PSoC4/BLE.c **** 
 319:.\Generated_Source\PSoC4/BLE.c ****     #ifdef CYBLE_SCPS
 320:.\Generated_Source\PSoC4/BLE.c ****         CyBle_ScpsInit();
 321:.\Generated_Source\PSoC4/BLE.c ****     #endif /* CYBLE_SCPS */
 322:.\Generated_Source\PSoC4/BLE.c ****     
 323:.\Generated_Source\PSoC4/BLE.c ****     #ifdef CYBLE_TPS
 324:.\Generated_Source\PSoC4/BLE.c ****         CyBle_TpsInit();
 325:.\Generated_Source\PSoC4/BLE.c ****     #endif /* CYBLE_TPS */
 326:.\Generated_Source\PSoC4/BLE.c ****     
 327:.\Generated_Source\PSoC4/BLE.c ****     #ifdef CYBLE_UDS
 328:.\Generated_Source\PSoC4/BLE.c ****         CyBle_UdsInit();
 329:.\Generated_Source\PSoC4/BLE.c ****     #endif /* CYBLE_UDS */
 330:.\Generated_Source\PSoC4/BLE.c **** 
 331:.\Generated_Source\PSoC4/BLE.c ****     #ifdef CYBLE_WPTS
 332:.\Generated_Source\PSoC4/BLE.c ****         CyBle_WptsInit();
 333:.\Generated_Source\PSoC4/BLE.c ****     #endif /* CYBLE_WPTS */
 334:.\Generated_Source\PSoC4/BLE.c **** 
 335:.\Generated_Source\PSoC4/BLE.c ****     #ifdef CYBLE_WSS
 336:.\Generated_Source\PSoC4/BLE.c ****         CyBle_WssInit();
 337:.\Generated_Source\PSoC4/BLE.c ****     #endif /* CYBLE_WSS */
 338:.\Generated_Source\PSoC4/BLE.c **** }
 204              		.loc 1 338 0
 205 0008 BD46     		mov	sp, r7
 206              		@ sp needed
 207 000a 80BD     		pop	{r7, pc}
 208              		.cfi_endproc
 209              	.LFE3:
 210              		.size	CyBle_ServiceInit, .-CyBle_ServiceInit
 211              		.section	.rodata
 212              		.align	2
 213              	.LC0:
 214 0000 2400     		.short	36
 215 0002 03       		.byte	3
 216 0003 00       		.space	1
 217 0004 3000     		.short	48
 218 0006 01       		.byte	1
 219 0007 00       		.space	1
 220 0008 2800     		.short	40
 221 000a 02       		.byte	2
 222 000b 00       		.space	1
 223 000c 2400     		.short	36
 224 000e 01       		.byte	1
ARM GAS  C:\Users\ADMINI~1\AppData\Local\Temp\ccieeocD.s 			page 11


 225 000f 00       		.space	1
 226 0010 2400     		.short	36
 227 0012 01       		.byte	1
 228 0013 00       		.space	1
 229              		.section	.text.CyBle_Start,"ax",%progbits
 230              		.align	2
 231              		.global	CyBle_Start
 232              		.code	16
 233              		.thumb_func
 234              		.type	CyBle_Start, %function
 235              	CyBle_Start:
 236              	.LFB4:
 339:.\Generated_Source\PSoC4/BLE.c **** 
 340:.\Generated_Source\PSoC4/BLE.c **** 
 341:.\Generated_Source\PSoC4/BLE.c **** /******************************************************************************
 342:.\Generated_Source\PSoC4/BLE.c **** * Function Name: CyBle_Start
 343:.\Generated_Source\PSoC4/BLE.c **** ***************************************************************************//**
 344:.\Generated_Source\PSoC4/BLE.c **** * 
 345:.\Generated_Source\PSoC4/BLE.c **** *  This function initializes the BLE Stack, which consists of the BLE Stack 
 346:.\Generated_Source\PSoC4/BLE.c **** *  Manager, BLE Controller, and BLE Host modules. It takes care of initializing
 347:.\Generated_Source\PSoC4/BLE.c **** *  the Profile layer, schedulers, Timer and other platform related
 348:.\Generated_Source\PSoC4/BLE.c **** *  resources required for the BLE component. It also registers the callback 
 349:.\Generated_Source\PSoC4/BLE.c **** *  function for BLE events that will be registered in the BLE stack.
 350:.\Generated_Source\PSoC4/BLE.c **** * 
 351:.\Generated_Source\PSoC4/BLE.c **** *  Note that this function does not reset the BLE Stack.
 352:.\Generated_Source\PSoC4/BLE.c **** * 
 353:.\Generated_Source\PSoC4/BLE.c **** *  For HCI-Mode of operation, this function will not initialize the BLE Host 
 354:.\Generated_Source\PSoC4/BLE.c **** *  module.
 355:.\Generated_Source\PSoC4/BLE.c **** * 
 356:.\Generated_Source\PSoC4/BLE.c **** *  Calling this function results in the generation of CYBLE_EVT_STACK_ON event
 357:.\Generated_Source\PSoC4/BLE.c **** *  on successful initialization of the BLE Stack.
 358:.\Generated_Source\PSoC4/BLE.c **** * 
 359:.\Generated_Source\PSoC4/BLE.c **** *  \param callbackFunc: Event callback function to receive events from BLE stack.
 360:.\Generated_Source\PSoC4/BLE.c **** *   CYBLE_CALLBACK_T is a function pointer type.
 361:.\Generated_Source\PSoC4/BLE.c **** * 
 362:.\Generated_Source\PSoC4/BLE.c **** * \return
 363:.\Generated_Source\PSoC4/BLE.c **** *  CYBLE_API_RESULT_T : Return value indicates if the function succeeded or 
 364:.\Generated_Source\PSoC4/BLE.c **** *  failed. Following are the possible error codes.
 365:.\Generated_Source\PSoC4/BLE.c **** * 
 366:.\Generated_Source\PSoC4/BLE.c **** *   <table>
 367:.\Generated_Source\PSoC4/BLE.c **** *  	  <tr>
 368:.\Generated_Source\PSoC4/BLE.c **** *       <th>Error codes</th>
 369:.\Generated_Source\PSoC4/BLE.c **** *       <th>Description</th>
 370:.\Generated_Source\PSoC4/BLE.c **** *     </tr>
 371:.\Generated_Source\PSoC4/BLE.c **** *     <tr>
 372:.\Generated_Source\PSoC4/BLE.c **** *       <td>CYBLE_ERROR_OK</td>
 373:.\Generated_Source\PSoC4/BLE.c **** *       <td>On successful operation.</td>
 374:.\Generated_Source\PSoC4/BLE.c **** *     </tr>
 375:.\Generated_Source\PSoC4/BLE.c **** *     <tr>
 376:.\Generated_Source\PSoC4/BLE.c **** *       <td>CYBLE_ERROR_INVALID_PARAMETER</td>
 377:.\Generated_Source\PSoC4/BLE.c **** *       <td>On passing a NULL pointer to the function when the BLE stack is not built in HCI mode. 
 378:.\Generated_Source\PSoC4/BLE.c **** *			CYBLE_ERROR_INVALID_PARAMETER is never returned in HCI mode.</td>
 379:.\Generated_Source\PSoC4/BLE.c **** *     </tr>
 380:.\Generated_Source\PSoC4/BLE.c **** *     <tr>
 381:.\Generated_Source\PSoC4/BLE.c **** *       <td>CYBLE_ERROR_REPEATED_ATTEMPTS</td>
 382:.\Generated_Source\PSoC4/BLE.c **** *       <td>On invoking this function more than once without calling CyBle_Shutdown() 
 383:.\Generated_Source\PSoC4/BLE.c **** *           function between calls to this function.</td>
ARM GAS  C:\Users\ADMINI~1\AppData\Local\Temp\ccieeocD.s 			page 12


 384:.\Generated_Source\PSoC4/BLE.c **** *     </tr>
 385:.\Generated_Source\PSoC4/BLE.c **** *     <tr>
 386:.\Generated_Source\PSoC4/BLE.c **** *       <td>CYBLE_ERROR_MEMORY_ALLOCATION_FAILED</td>
 387:.\Generated_Source\PSoC4/BLE.c **** *       <td>There is insufficient memory available.</td>
 388:.\Generated_Source\PSoC4/BLE.c **** *     </tr>
 389:.\Generated_Source\PSoC4/BLE.c **** *   </table>
 390:.\Generated_Source\PSoC4/BLE.c **** * 
 391:.\Generated_Source\PSoC4/BLE.c **** *  \globalvars
 392:.\Generated_Source\PSoC4/BLE.c **** *   The CyBle_initVar variable is used to indicate initial
 393:.\Generated_Source\PSoC4/BLE.c **** *   configuration of this component. The variable is initialized to zero (0u)
 394:.\Generated_Source\PSoC4/BLE.c **** *   and set to one (1u) the first time CyBle_Start() is called. This
 395:.\Generated_Source\PSoC4/BLE.c **** *   allows for component initialization without re-initialization in all
 396:.\Generated_Source\PSoC4/BLE.c **** *   subsequent calls to the CyBle_Start() routine.
 397:.\Generated_Source\PSoC4/BLE.c **** * 
 398:.\Generated_Source\PSoC4/BLE.c **** ******************************************************************************/
 399:.\Generated_Source\PSoC4/BLE.c **** CYBLE_API_RESULT_T CyBle_Start(CYBLE_CALLBACK_T callbackFunc)
 400:.\Generated_Source\PSoC4/BLE.c **** {
 237              		.loc 1 400 0
 238              		.cfi_startproc
 239 0000 B0B5     		push	{r4, r5, r7, lr}
 240              		.cfi_def_cfa_offset 16
 241              		.cfi_offset 4, -16
 242              		.cfi_offset 5, -12
 243              		.cfi_offset 7, -8
 244              		.cfi_offset 14, -4
 245 0002 94B0     		sub	sp, sp, #80
 246              		.cfi_def_cfa_offset 96
 247 0004 04AF     		add	r7, sp, #16
 248              		.cfi_def_cfa 7, 80
 249 0006 7860     		str	r0, [r7, #4]
 401:.\Generated_Source\PSoC4/BLE.c ****     CYBLE_API_RESULT_T apiResult = CYBLE_ERROR_OK;
 250              		.loc 1 401 0
 251 0008 3E23     		mov	r3, #62
 252 000a FB18     		add	r3, r7, r3
 253 000c 0022     		mov	r2, #0
 254 000e 1A80     		strh	r2, [r3]
 402:.\Generated_Source\PSoC4/BLE.c ****     
 403:.\Generated_Source\PSoC4/BLE.c ****     #if(CYBLE_MODE_PROFILE)
 404:.\Generated_Source\PSoC4/BLE.c ****     
 405:.\Generated_Source\PSoC4/BLE.c ****     CYBLE_STK_APP_DATA_BUFF_T cyBle_stackDataBuff[CYBLE_STACK_APP_MIN_POOL] = 
 255              		.loc 1 405 0
 256 0010 2823     		mov	r3, #40
 257 0012 FA18     		add	r2, r7, r3
 258 0014 3E4B     		ldr	r3, .L12
 259 0016 111C     		mov	r1, r2
 260 0018 1A1C     		mov	r2, r3
 261 001a 1423     		mov	r3, #20
 262 001c 081C     		mov	r0, r1
 263 001e 111C     		mov	r1, r2
 264 0020 1A1C     		mov	r2, r3
 265 0022 FFF7FEFF 		bl	memcpy
 406:.\Generated_Source\PSoC4/BLE.c ****     {
 407:.\Generated_Source\PSoC4/BLE.c ****         {CYBLE_GATT_MTU_PLUS_L2CAP_MEM_EXT, CYBLE_GATT_MTU_BUFF_COUNT + CYBLE_GATT_MAX_ATTR_BUFF_CO
 408:.\Generated_Source\PSoC4/BLE.c ****         {CYBLE_L2CAP_PSM_PLUS_L2CAP_MEM_EXT, CYBLE_L2CAP_PSM_COUNT},
 409:.\Generated_Source\PSoC4/BLE.c ****         {CYBLE_L2CAP_CBFC_PLUS_L2CAP_MEM_EXT, 2u * CYBLE_L2CAP_LOGICAL_CHANNEL_COUNT},
 410:.\Generated_Source\PSoC4/BLE.c ****         {CYBLE_L2CAP_MTU_PLUS_L2CAP_MEM_EXT, CYBLE_L2CAP_LOGICAL_CHANNEL_COUNT},
 411:.\Generated_Source\PSoC4/BLE.c ****         {CYBLE_L2CAP_MPS_PLUS_L2CAP_MEM_EXT, CYBLE_L2CAP_LOGICAL_CHANNEL_COUNT * (CYBLE_L2CAP_MTU_M
ARM GAS  C:\Users\ADMINI~1\AppData\Local\Temp\ccieeocD.s 			page 13


 412:.\Generated_Source\PSoC4/BLE.c ****     }; 
 413:.\Generated_Source\PSoC4/BLE.c **** 
 414:.\Generated_Source\PSoC4/BLE.c ****     #endif /* CYBLE_MODE_PROFILE */
 415:.\Generated_Source\PSoC4/BLE.c ****     
 416:.\Generated_Source\PSoC4/BLE.c ****     /* If not initialized then initialize all the required hardware and software */
 417:.\Generated_Source\PSoC4/BLE.c ****     if(cyBle_initVar == 0u)
 266              		.loc 1 417 0
 267 0026 3B4B     		ldr	r3, .L12+4
 268 0028 1B78     		ldrb	r3, [r3]
 269 002a 002B     		cmp	r3, #0
 270 002c 04D1     		bne	.L6
 418:.\Generated_Source\PSoC4/BLE.c ****     {
 419:.\Generated_Source\PSoC4/BLE.c ****         CyBle_Init();
 271              		.loc 1 419 0
 272 002e FFF7FEFF 		bl	CyBle_Init
 420:.\Generated_Source\PSoC4/BLE.c ****         cyBle_initVar = 1u;
 273              		.loc 1 420 0
 274 0032 384B     		ldr	r3, .L12+4
 275 0034 0122     		mov	r2, #1
 276 0036 1A70     		strb	r2, [r3]
 277              	.L6:
 421:.\Generated_Source\PSoC4/BLE.c ****     }
 422:.\Generated_Source\PSoC4/BLE.c ****     
 423:.\Generated_Source\PSoC4/BLE.c ****     if(callbackFunc != NULL)
 278              		.loc 1 423 0
 279 0038 7B68     		ldr	r3, [r7, #4]
 280 003a 002B     		cmp	r3, #0
 281 003c 5CD0     		beq	.L7
 424:.\Generated_Source\PSoC4/BLE.c ****     {
 425:.\Generated_Source\PSoC4/BLE.c ****         CyBle_ApplCallback = callbackFunc;
 282              		.loc 1 425 0
 283 003e 364B     		ldr	r3, .L12+8
 284 0040 7A68     		ldr	r2, [r7, #4]
 285 0042 1A60     		str	r2, [r3]
 426:.\Generated_Source\PSoC4/BLE.c ****         
 427:.\Generated_Source\PSoC4/BLE.c ****     #if(CYBLE_SHARING_MODE_EXPORT)
 428:.\Generated_Source\PSoC4/BLE.c ****         if(cyBle_stackMemoryRam == NULL)
 429:.\Generated_Source\PSoC4/BLE.c ****         {
 430:.\Generated_Source\PSoC4/BLE.c ****             cyBle_stackMemoryRam = (uint8 *)malloc(CYBLE_STACK_RAM_SIZE);
 431:.\Generated_Source\PSoC4/BLE.c ****             if(cyBle_stackMemoryRam == NULL)
 432:.\Generated_Source\PSoC4/BLE.c ****             {
 433:.\Generated_Source\PSoC4/BLE.c ****                 apiResult = CYBLE_ERROR_MEMORY_ALLOCATION_FAILED;
 434:.\Generated_Source\PSoC4/BLE.c ****             }
 435:.\Generated_Source\PSoC4/BLE.c ****         }
 436:.\Generated_Source\PSoC4/BLE.c ****     #endif /* CYBLE_SHARING_MODE_EXPORT */
 437:.\Generated_Source\PSoC4/BLE.c ****         if(apiResult == CYBLE_ERROR_OK)
 286              		.loc 1 437 0
 287 0044 3E23     		mov	r3, #62
 288 0046 FB18     		add	r3, r7, r3
 289 0048 1B88     		ldrh	r3, [r3]
 290 004a 002B     		cmp	r3, #0
 291 004c 29D1     		bne	.L8
 292              	.LBB2:
 438:.\Generated_Source\PSoC4/BLE.c ****         {
 439:.\Generated_Source\PSoC4/BLE.c ****             CYBLE_DLE_CONFIG_PARAM_T dleConfigParams;
 440:.\Generated_Source\PSoC4/BLE.c ****             CYBLE_PRIVACY_1_2_CONFIG_PARAM_T privacyConfigParams;
 441:.\Generated_Source\PSoC4/BLE.c ****             CYBLE_STACK_CONFIG_PARAM_T stackConfig;
ARM GAS  C:\Users\ADMINI~1\AppData\Local\Temp\ccieeocD.s 			page 14


 442:.\Generated_Source\PSoC4/BLE.c ****             uint16 featureHeapReq;
 443:.\Generated_Source\PSoC4/BLE.c ****             
 444:.\Generated_Source\PSoC4/BLE.c ****             stackConfig.privacyConfig = &privacyConfigParams;
 293              		.loc 1 444 0
 294 004e 1023     		mov	r3, #16
 295 0050 FB18     		add	r3, r7, r3
 296 0052 1C22     		mov	r2, #28
 297 0054 BA18     		add	r2, r7, r2
 298 0056 5A60     		str	r2, [r3, #4]
 445:.\Generated_Source\PSoC4/BLE.c ****             stackConfig.dleConfig = &dleConfigParams;
 299              		.loc 1 445 0
 300 0058 1023     		mov	r3, #16
 301 005a FB18     		add	r3, r7, r3
 302 005c 2022     		mov	r2, #32
 303 005e BA18     		add	r2, r7, r2
 304 0060 1A60     		str	r2, [r3]
 446:.\Generated_Source\PSoC4/BLE.c ****             
 447:.\Generated_Source\PSoC4/BLE.c ****             /* Configure default BLE 4.1 features and enabled 4.2 features */
 448:.\Generated_Source\PSoC4/BLE.c ****             stackConfig.feature_mask = CYBLE_DLE_FEATURE | CYBLE_LL_PRIVACY_FEATURE | 
 305              		.loc 1 448 0
 306 0062 1023     		mov	r3, #16
 307 0064 FB18     		add	r3, r7, r3
 308 0066 0022     		mov	r2, #0
 309 0068 1A81     		strh	r2, [r3, #8]
 449:.\Generated_Source\PSoC4/BLE.c ****                                        CYBLE_SECURE_CONN_FEATURE;
 450:.\Generated_Source\PSoC4/BLE.c **** 
 451:.\Generated_Source\PSoC4/BLE.c ****             /* Configure DLE */
 452:.\Generated_Source\PSoC4/BLE.c ****             dleConfigParams.dleMaxTxCapability = CYBLE_LL_MAX_TX_PAYLOAD_SIZE;
 310              		.loc 1 452 0
 311 006a 2023     		mov	r3, #32
 312 006c FB18     		add	r3, r7, r3
 313 006e 1B22     		mov	r2, #27
 314 0070 1A80     		strh	r2, [r3]
 453:.\Generated_Source\PSoC4/BLE.c ****             dleConfigParams.dleMaxRxCapability = CYBLE_LL_MAX_RX_PAYLOAD_SIZE;
 315              		.loc 1 453 0
 316 0072 2023     		mov	r3, #32
 317 0074 FB18     		add	r3, r7, r3
 318 0076 1B22     		mov	r2, #27
 319 0078 5A80     		strh	r2, [r3, #2]
 454:.\Generated_Source\PSoC4/BLE.c ****             dleConfigParams.dleNumTxBuffer = CYBLE_LL_DEFAULT_NUM_ACL_TX_PACKETS;
 320              		.loc 1 454 0
 321 007a 2023     		mov	r3, #32
 322 007c FB18     		add	r3, r7, r3
 323 007e 0422     		mov	r2, #4
 324 0080 1A71     		strb	r2, [r3, #4]
 455:.\Generated_Source\PSoC4/BLE.c ****         #if(CYBLE_DLE_FEATURE_ENABLED)
 456:.\Generated_Source\PSoC4/BLE.c ****             CyBle_EnableDleFeature();              /* Enable DLE code in stack */
 457:.\Generated_Source\PSoC4/BLE.c ****         #endif /* CYBLE_DLE_FEATURE_ENABLED */
 458:.\Generated_Source\PSoC4/BLE.c ****         
 459:.\Generated_Source\PSoC4/BLE.c ****             /* Configure LL Privacy */
 460:.\Generated_Source\PSoC4/BLE.c ****             privacyConfigParams.resolvingListSize = CYBLE_MAX_RESOLVABLE_DEVICES;
 325              		.loc 1 460 0
 326 0082 1C23     		mov	r3, #28
 327 0084 FB18     		add	r3, r7, r3
 328 0086 0022     		mov	r2, #0
 329 0088 1A70     		strb	r2, [r3]
 461:.\Generated_Source\PSoC4/BLE.c ****         #if(CYBLE_LL_PRIVACY_FEATURE_ENABLED)
ARM GAS  C:\Users\ADMINI~1\AppData\Local\Temp\ccieeocD.s 			page 15


 462:.\Generated_Source\PSoC4/BLE.c ****             CyBle_EnablePrivacyFeature();          /* Enable LL Privacy code in stack */
 463:.\Generated_Source\PSoC4/BLE.c ****         #endif /* CYBLE_LL_PRIVACY_FEATURE_ENABLED */
 464:.\Generated_Source\PSoC4/BLE.c **** 
 465:.\Generated_Source\PSoC4/BLE.c ****             apiResult = CyBle_StackSetFeatureConfig(&stackConfig, &featureHeapReq);
 330              		.loc 1 465 0
 331 008a 3E23     		mov	r3, #62
 332 008c FC18     		add	r4, r7, r3
 333 008e 1023     		mov	r3, #16
 334 0090 FA18     		add	r2, r7, r3
 335 0092 0E23     		mov	r3, #14
 336 0094 FB18     		add	r3, r7, r3
 337 0096 101C     		mov	r0, r2
 338 0098 191C     		mov	r1, r3
 339 009a FFF7FEFF 		bl	CyBle_StackSetFeatureConfig
 340 009e 031C     		mov	r3, r0
 341 00a0 2380     		strh	r3, [r4]
 342              	.L8:
 343              	.LBE2:
 466:.\Generated_Source\PSoC4/BLE.c ****             }
 467:.\Generated_Source\PSoC4/BLE.c ****     
 468:.\Generated_Source\PSoC4/BLE.c ****         if(apiResult == CYBLE_ERROR_OK)
 344              		.loc 1 468 0
 345 00a2 3E23     		mov	r3, #62
 346 00a4 FB18     		add	r3, r7, r3
 347 00a6 1B88     		ldrh	r3, [r3]
 348 00a8 002B     		cmp	r3, #0
 349 00aa 29D1     		bne	.L10
 469:.\Generated_Source\PSoC4/BLE.c ****         {
 470:.\Generated_Source\PSoC4/BLE.c ****             
 471:.\Generated_Source\PSoC4/BLE.c ****         #if(CYBLE_MODE_PROFILE)
 472:.\Generated_Source\PSoC4/BLE.c ****             #if(CYBLE_BONDING_REQUIREMENT == CYBLE_BONDING_YES)
 473:.\Generated_Source\PSoC4/BLE.c ****                 apiResult = CyBle_StackInit(&CyBle_EventHandler, cyBle_stackMemoryRam, 
 350              		.loc 1 473 0
 351 00ac 3E23     		mov	r3, #62
 352 00ae FC18     		add	r4, r7, r3
 353 00b0 1A48     		ldr	r0, .L12+12
 354 00b2 1B49     		ldr	r1, .L12+16
 355 00b4 AE23     		mov	r3, #174
 356 00b6 1A01     		lsl	r2, r3, #4
 357 00b8 2823     		mov	r3, #40
 358 00ba FD18     		add	r5, r7, r3
 359 00bc 0523     		mov	r3, #5
 360 00be 0093     		str	r3, [sp]
 361 00c0 184B     		ldr	r3, .L12+20
 362 00c2 0193     		str	r3, [sp, #4]
 363 00c4 184B     		ldr	r3, .L12+24
 364 00c6 0293     		str	r3, [sp, #8]
 365 00c8 2B1C     		mov	r3, r5
 366 00ca FFF7FEFF 		bl	CyBle_StackInit
 367 00ce 031C     		mov	r3, r0
 368 00d0 2380     		strh	r3, [r4]
 474:.\Generated_Source\PSoC4/BLE.c ****                     CYBLE_STACK_RAM_SIZE - CYBLE_GATT_PREPARE_WRITE_BUFF_LEN, cyBle_stackDataBuff, 
 475:.\Generated_Source\PSoC4/BLE.c ****                     CYBLE_STACK_APP_MIN_POOL, cyBle_flashStorage.stackFlashptr, CYBLE_STACK_FLASH_S
 476:.\Generated_Source\PSoC4/BLE.c ****             #else
 477:.\Generated_Source\PSoC4/BLE.c ****                 apiResult = CyBle_StackInit(&CyBle_EventHandler, cyBle_stackMemoryRam, 
 478:.\Generated_Source\PSoC4/BLE.c ****                     CYBLE_STACK_RAM_SIZE - CYBLE_GATT_PREPARE_WRITE_BUFF_LEN, cyBle_stackDataBuff, 
 479:.\Generated_Source\PSoC4/BLE.c ****                     CYBLE_STACK_APP_MIN_POOL, NULL, 0u);
ARM GAS  C:\Users\ADMINI~1\AppData\Local\Temp\ccieeocD.s 			page 16


 480:.\Generated_Source\PSoC4/BLE.c ****             #endif  /* CYBLE_BONDING_REQUIREMENT == CYBLE_BONDING_YES */
 481:.\Generated_Source\PSoC4/BLE.c ****         #else
 482:.\Generated_Source\PSoC4/BLE.c ****             apiResult = CyBle_StackInit(&CyBle_EventHandler, cyBle_stackMemoryRam, CYBLE_STACK_RAM_
 483:.\Generated_Source\PSoC4/BLE.c ****                 NULL, 0u, NULL, 0u);
 484:.\Generated_Source\PSoC4/BLE.c ****         #endif /* CYBLE_MODE_PROFILE */
 485:.\Generated_Source\PSoC4/BLE.c **** 
 486:.\Generated_Source\PSoC4/BLE.c ****             if(apiResult == CYBLE_ERROR_OK)
 369              		.loc 1 486 0
 370 00d2 3E23     		mov	r3, #62
 371 00d4 FB18     		add	r3, r7, r3
 372 00d6 1B88     		ldrh	r3, [r3]
 373 00d8 002B     		cmp	r3, #0
 374 00da 11D1     		bne	.L10
 487:.\Generated_Source\PSoC4/BLE.c ****             {
 488:.\Generated_Source\PSoC4/BLE.c ****                 CyBle_SetState(CYBLE_STATE_INITIALIZING);
 375              		.loc 1 488 0
 376 00dc 134B     		ldr	r3, .L12+28
 377 00de 0122     		mov	r2, #1
 378 00e0 1A70     		strb	r2, [r3]
 489:.\Generated_Source\PSoC4/BLE.c ****                 
 490:.\Generated_Source\PSoC4/BLE.c ****             #if (CYBLE_GATT_ROLE_CLIENT)
 491:.\Generated_Source\PSoC4/BLE.c ****                 CyBle_SetClientState(CYBLE_CLIENT_STATE_DISCONNECTED);
 492:.\Generated_Source\PSoC4/BLE.c ****             #endif /* CYBLE_GATT_ROLE_CLIENT */
 493:.\Generated_Source\PSoC4/BLE.c ****                 
 494:.\Generated_Source\PSoC4/BLE.c ****             #if(CYBLE_GATT_ROLE_SERVER)
 495:.\Generated_Source\PSoC4/BLE.c ****                 apiResult = CyBle_GattsDbRegister(cyBle_gattDB, CYBLE_GATT_DB_INDEX_COUNT, CYBLE_GA
 379              		.loc 1 495 0
 380 00e2 3E23     		mov	r3, #62
 381 00e4 FC18     		add	r4, r7, r3
 382 00e6 124B     		ldr	r3, .L12+32
 383 00e8 181C     		mov	r0, r3
 384 00ea 1321     		mov	r1, #19
 385 00ec 1722     		mov	r2, #23
 386 00ee FFF7FEFF 		bl	CyBle_GattsDbRegister
 387 00f2 031C     		mov	r3, r0
 388 00f4 2380     		strh	r3, [r4]
 389 00f6 03E0     		b	.L10
 390              	.L7:
 496:.\Generated_Source\PSoC4/BLE.c ****             #endif /* CYBLE_GATT_ROLE_SERVER */
 497:.\Generated_Source\PSoC4/BLE.c ****             }
 498:.\Generated_Source\PSoC4/BLE.c ****         }
 499:.\Generated_Source\PSoC4/BLE.c ****     }
 500:.\Generated_Source\PSoC4/BLE.c ****     else
 501:.\Generated_Source\PSoC4/BLE.c ****     {
 502:.\Generated_Source\PSoC4/BLE.c ****         apiResult = CYBLE_ERROR_INVALID_PARAMETER;
 391              		.loc 1 502 0
 392 00f8 3E23     		mov	r3, #62
 393 00fa FB18     		add	r3, r7, r3
 394 00fc 0122     		mov	r2, #1
 395 00fe 1A80     		strh	r2, [r3]
 396              	.L10:
 503:.\Generated_Source\PSoC4/BLE.c ****     }
 504:.\Generated_Source\PSoC4/BLE.c **** 
 505:.\Generated_Source\PSoC4/BLE.c ****     return (apiResult);
 397              		.loc 1 505 0
 398 0100 3E23     		mov	r3, #62
 399 0102 FB18     		add	r3, r7, r3
ARM GAS  C:\Users\ADMINI~1\AppData\Local\Temp\ccieeocD.s 			page 17


 400 0104 1B88     		ldrh	r3, [r3]
 506:.\Generated_Source\PSoC4/BLE.c **** }
 401              		.loc 1 506 0
 402 0106 181C     		mov	r0, r3
 403 0108 BD46     		mov	sp, r7
 404 010a 10B0     		add	sp, sp, #64
 405              		@ sp needed
 406 010c B0BD     		pop	{r4, r5, r7, pc}
 407              	.L13:
 408 010e C046     		.align	2
 409              	.L12:
 410 0110 00000000 		.word	.LC0
 411 0114 00000000 		.word	cyBle_initVar
 412 0118 00000000 		.word	CyBle_ApplCallback
 413 011c 00000000 		.word	CyBle_EventHandler
 414 0120 00000000 		.word	cyBle_stackMemoryRam
 415 0124 00000000 		.word	cyBle_flashStorage
 416 0128 79020000 		.word	633
 417 012c 00000000 		.word	cyBle_state
 418 0130 00000000 		.word	cyBle_gattDB
 419              		.cfi_endproc
 420              	.LFE4:
 421              		.size	CyBle_Start, .-CyBle_Start
 422              		.section	.text.CyBle_Stop,"ax",%progbits
 423              		.align	2
 424              		.global	CyBle_Stop
 425              		.code	16
 426              		.thumb_func
 427              		.type	CyBle_Stop, %function
 428              	CyBle_Stop:
 429              	.LFB5:
 507:.\Generated_Source\PSoC4/BLE.c **** 
 508:.\Generated_Source\PSoC4/BLE.c **** 
 509:.\Generated_Source\PSoC4/BLE.c **** /******************************************************************************
 510:.\Generated_Source\PSoC4/BLE.c **** * Function Name: CyBle_Stop
 511:.\Generated_Source\PSoC4/BLE.c **** ***************************************************************************//**
 512:.\Generated_Source\PSoC4/BLE.c **** * 
 513:.\Generated_Source\PSoC4/BLE.c **** *  This function stops any ongoing operation in the BLE Stack and forces the 
 514:.\Generated_Source\PSoC4/BLE.c **** *  BLE Stack to shut down. The only function that can be called after calling
 515:.\Generated_Source\PSoC4/BLE.c **** *  this function is CyBle_Start(). 
 516:.\Generated_Source\PSoC4/BLE.c **** * 
 517:.\Generated_Source\PSoC4/BLE.c **** * \return
 518:.\Generated_Source\PSoC4/BLE.c **** *  None
 519:.\Generated_Source\PSoC4/BLE.c **** * 
 520:.\Generated_Source\PSoC4/BLE.c **** ******************************************************************************/
 521:.\Generated_Source\PSoC4/BLE.c **** void CyBle_Stop(void)
 522:.\Generated_Source\PSoC4/BLE.c **** {
 430              		.loc 1 522 0
 431              		.cfi_startproc
 432 0000 80B5     		push	{r7, lr}
 433              		.cfi_def_cfa_offset 8
 434              		.cfi_offset 7, -8
 435              		.cfi_offset 14, -4
 436 0002 00AF     		add	r7, sp, #0
 437              		.cfi_def_cfa_register 7
 523:.\Generated_Source\PSoC4/BLE.c ****     CyBle_Shutdown();                         /* Stop all ongoing activities */
 438              		.loc 1 523 0
ARM GAS  C:\Users\ADMINI~1\AppData\Local\Temp\ccieeocD.s 			page 18


 439 0004 FFF7FEFF 		bl	CyBle_Shutdown
 524:.\Generated_Source\PSoC4/BLE.c ****     CyBle_SetState(CYBLE_STATE_STOPPED);
 440              		.loc 1 524 0
 441 0008 024B     		ldr	r3, .L15
 442 000a 0022     		mov	r2, #0
 443 000c 1A70     		strb	r2, [r3]
 525:.\Generated_Source\PSoC4/BLE.c ****     #if(CYBLE_SHARING_MODE_EXPORT)
 526:.\Generated_Source\PSoC4/BLE.c ****         if(cyBle_stackMemoryRam != NULL)
 527:.\Generated_Source\PSoC4/BLE.c ****         {
 528:.\Generated_Source\PSoC4/BLE.c ****             free(cyBle_stackMemoryRam);
 529:.\Generated_Source\PSoC4/BLE.c ****         }
 530:.\Generated_Source\PSoC4/BLE.c ****     #endif /* CYBLE_SHARING_MODE_EXPORT */
 531:.\Generated_Source\PSoC4/BLE.c **** }
 444              		.loc 1 531 0
 445 000e BD46     		mov	sp, r7
 446              		@ sp needed
 447 0010 80BD     		pop	{r7, pc}
 448              	.L16:
 449 0012 C046     		.align	2
 450              	.L15:
 451 0014 00000000 		.word	cyBle_state
 452              		.cfi_endproc
 453              	.LFE5:
 454              		.size	CyBle_Stop, .-CyBle_Stop
 455              		.section	.text.CyBle_StoreBondingData,"ax",%progbits
 456              		.align	2
 457              		.global	CyBle_StoreBondingData
 458              		.code	16
 459              		.thumb_func
 460              		.type	CyBle_StoreBondingData, %function
 461              	CyBle_StoreBondingData:
 462              	.LFB6:
 532:.\Generated_Source\PSoC4/BLE.c **** 
 533:.\Generated_Source\PSoC4/BLE.c **** 
 534:.\Generated_Source\PSoC4/BLE.c **** #if((CYBLE_GAP_ROLE_PERIPHERAL || CYBLE_GAP_ROLE_CENTRAL) && (CYBLE_BONDING_REQUIREMENT == CYBLE_BO
 535:.\Generated_Source\PSoC4/BLE.c **** 
 536:.\Generated_Source\PSoC4/BLE.c ****     
 537:.\Generated_Source\PSoC4/BLE.c **** /******************************************************************************
 538:.\Generated_Source\PSoC4/BLE.c **** * Function Name: CyBle_StoreBondingData
 539:.\Generated_Source\PSoC4/BLE.c **** ***************************************************************************//**
 540:.\Generated_Source\PSoC4/BLE.c **** * 
 541:.\Generated_Source\PSoC4/BLE.c **** *  This function writes the new bonding data from RAM to the dedicated Flash 
 542:.\Generated_Source\PSoC4/BLE.c **** *  location as defined by the component. It performs data comparing between RAM
 543:.\Generated_Source\PSoC4/BLE.c **** *  and Flash before writing to Flash. If there is no change between RAM and Flash
 544:.\Generated_Source\PSoC4/BLE.c **** *  data, then no write is performed. It writes only one flash row in one call.
 545:.\Generated_Source\PSoC4/BLE.c **** *  Application should keep calling this function till API return CYBLE_ERROR_OK. 
 546:.\Generated_Source\PSoC4/BLE.c **** *  This function is available only when Bonding requirement is selected in
 547:.\Generated_Source\PSoC4/BLE.c **** *  Security settings.    
 548:.\Generated_Source\PSoC4/BLE.c **** * 
 549:.\Generated_Source\PSoC4/BLE.c **** *  \param isForceWrite:  If value is set to 0, then stack will check if flash write 
 550:.\Generated_Source\PSoC4/BLE.c **** *                 is permissible. 
 551:.\Generated_Source\PSoC4/BLE.c **** *  
 552:.\Generated_Source\PSoC4/BLE.c **** * \return
 553:.\Generated_Source\PSoC4/BLE.c **** *  Return value is of type CYBLE_API_RESULT_T.
 554:.\Generated_Source\PSoC4/BLE.c **** *
 555:.\Generated_Source\PSoC4/BLE.c **** *   Errors codes                         | Description
 556:.\Generated_Source\PSoC4/BLE.c **** *   ----------------------------------   | ------------------------------------
ARM GAS  C:\Users\ADMINI~1\AppData\Local\Temp\ccieeocD.s 			page 19


 557:.\Generated_Source\PSoC4/BLE.c **** *   CYBLE_ERROR_OK                       | On successful operation
 558:.\Generated_Source\PSoC4/BLE.c **** *   CYBLE_ERROR_FLASH_WRITE_NOT_PERMITED | Flash Write is not complete
 559:.\Generated_Source\PSoC4/BLE.c **** *    
 560:.\Generated_Source\PSoC4/BLE.c **** *  \sideeffect
 561:.\Generated_Source\PSoC4/BLE.c **** *   For BLE devices with 128K of Flash memory this API will automatically 
 562:.\Generated_Source\PSoC4/BLE.c **** *   modify the clock settings for the device.
 563:.\Generated_Source\PSoC4/BLE.c **** *   Writing to flash requires changes to be done to the IMO (set to 48 MHz)
 564:.\Generated_Source\PSoC4/BLE.c **** *   and HFCLK (source set to IMO) settings. The configuration is restored before
 565:.\Generated_Source\PSoC4/BLE.c **** *   returning. This will impact the operation of most of the hardware in the
 566:.\Generated_Source\PSoC4/BLE.c **** *   device.
 567:.\Generated_Source\PSoC4/BLE.c **** * 
 568:.\Generated_Source\PSoC4/BLE.c **** *  \globalvars
 569:.\Generated_Source\PSoC4/BLE.c **** *   The cyBle_pendingFlashWrite variable is used to detect status
 570:.\Generated_Source\PSoC4/BLE.c **** *   of pending write to flash operation for stack data and CCCD.
 571:.\Generated_Source\PSoC4/BLE.c **** *   This API automatically clears pending bits after write operation complete.
 572:.\Generated_Source\PSoC4/BLE.c **** *     
 573:.\Generated_Source\PSoC4/BLE.c **** ******************************************************************************/
 574:.\Generated_Source\PSoC4/BLE.c **** CYBLE_API_RESULT_T CyBle_StoreBondingData(uint8 isForceWrite)
 575:.\Generated_Source\PSoC4/BLE.c **** {
 463              		.loc 1 575 0
 464              		.cfi_startproc
 465 0000 90B5     		push	{r4, r7, lr}
 466              		.cfi_def_cfa_offset 12
 467              		.cfi_offset 4, -12
 468              		.cfi_offset 7, -8
 469              		.cfi_offset 14, -4
 470 0002 8BB0     		sub	sp, sp, #44
 471              		.cfi_def_cfa_offset 56
 472 0004 00AF     		add	r7, sp, #0
 473              		.cfi_def_cfa_register 7
 474 0006 021C     		mov	r2, r0
 475 0008 FB1D     		add	r3, r7, #7
 476 000a 1A70     		strb	r2, [r3]
 576:.\Generated_Source\PSoC4/BLE.c ****     CYBLE_API_RESULT_T apiResult = CYBLE_ERROR_OK;
 477              		.loc 1 576 0
 478 000c 2623     		mov	r3, #38
 479 000e FB18     		add	r3, r7, r3
 480 0010 0022     		mov	r2, #0
 481 0012 1A80     		strh	r2, [r3]
 577:.\Generated_Source\PSoC4/BLE.c ****     
 578:.\Generated_Source\PSoC4/BLE.c ****     /* Store Stack data */
 579:.\Generated_Source\PSoC4/BLE.c ****     if((cyBle_pendingFlashWrite & CYBLE_PENDING_STACK_FLASH_WRITE_BIT) != 0u)
 482              		.loc 1 579 0
 483 0014 5C4B     		ldr	r3, .L27
 484 0016 1B78     		ldrb	r3, [r3]
 485 0018 1A1C     		mov	r2, r3
 486 001a 0123     		mov	r3, #1
 487 001c 1340     		and	r3, r2
 488 001e 1ED0     		beq	.L18
 580:.\Generated_Source\PSoC4/BLE.c ****     {
 581:.\Generated_Source\PSoC4/BLE.c ****         apiResult = CyBle_StoreStackData(isForceWrite);
 489              		.loc 1 581 0
 490 0020 2623     		mov	r3, #38
 491 0022 FC18     		add	r4, r7, r3
 492 0024 FB1D     		add	r3, r7, #7
 493 0026 1B78     		ldrb	r3, [r3]
 494 0028 181C     		mov	r0, r3
ARM GAS  C:\Users\ADMINI~1\AppData\Local\Temp\ccieeocD.s 			page 20


 495 002a FFF7FEFF 		bl	CyBle_StoreStackData
 496 002e 031C     		mov	r3, r0
 497 0030 2380     		strh	r3, [r4]
 582:.\Generated_Source\PSoC4/BLE.c ****         if(apiResult == CYBLE_ERROR_OK)
 498              		.loc 1 582 0
 499 0032 2623     		mov	r3, #38
 500 0034 FB18     		add	r3, r7, r3
 501 0036 1B88     		ldrh	r3, [r3]
 502 0038 002B     		cmp	r3, #0
 503 003a 10D1     		bne	.L18
 583:.\Generated_Source\PSoC4/BLE.c ****         {
 584:.\Generated_Source\PSoC4/BLE.c ****             cyBle_pendingFlashWrite &= (uint8)~CYBLE_PENDING_STACK_FLASH_WRITE_BIT;
 504              		.loc 1 584 0
 505 003c 524B     		ldr	r3, .L27
 506 003e 1B78     		ldrb	r3, [r3]
 507 0040 0122     		mov	r2, #1
 508 0042 9343     		bic	r3, r2
 509 0044 DAB2     		uxtb	r2, r3
 510 0046 504B     		ldr	r3, .L27
 511 0048 1A70     		strb	r2, [r3]
 585:.\Generated_Source\PSoC4/BLE.c ****             /* Change apiResult if there are more pending data to store */
 586:.\Generated_Source\PSoC4/BLE.c ****             if((cyBle_pendingFlashWrite & CYBLE_PENDING_CCCD_FLASH_WRITE_BIT) != 0u)
 512              		.loc 1 586 0
 513 004a 4F4B     		ldr	r3, .L27
 514 004c 1B78     		ldrb	r3, [r3]
 515 004e 1A1C     		mov	r2, r3
 516 0050 0223     		mov	r3, #2
 517 0052 1340     		and	r3, r2
 518 0054 03D0     		beq	.L18
 587:.\Generated_Source\PSoC4/BLE.c ****             {
 588:.\Generated_Source\PSoC4/BLE.c ****                 apiResult = CYBLE_ERROR_FLASH_WRITE_NOT_PERMITED;
 519              		.loc 1 588 0
 520 0056 2623     		mov	r3, #38
 521 0058 FB18     		add	r3, r7, r3
 522 005a 2822     		mov	r2, #40
 523 005c 1A80     		strh	r2, [r3]
 524              	.L18:
 589:.\Generated_Source\PSoC4/BLE.c ****             }
 590:.\Generated_Source\PSoC4/BLE.c ****         }
 591:.\Generated_Source\PSoC4/BLE.c ****     }
 592:.\Generated_Source\PSoC4/BLE.c **** #if(CYBLE_GATT_DB_CCCD_COUNT != 0u)
 593:.\Generated_Source\PSoC4/BLE.c ****     /* Store CCCD values */
 594:.\Generated_Source\PSoC4/BLE.c ****     if( ((apiResult == CYBLE_ERROR_OK) || (isForceWrite != 0u)) && 
 525              		.loc 1 594 0
 526 005e 2623     		mov	r3, #38
 527 0060 FB18     		add	r3, r7, r3
 528 0062 1B88     		ldrh	r3, [r3]
 529 0064 002B     		cmp	r3, #0
 530 0066 03D0     		beq	.L19
 531              		.loc 1 594 0 is_stmt 0 discriminator 2
 532 0068 FB1D     		add	r3, r7, #7
 533 006a 1B78     		ldrb	r3, [r3]
 534 006c 002B     		cmp	r3, #0
 535 006e 28D0     		beq	.L20
 536              	.L19:
 595:.\Generated_Source\PSoC4/BLE.c ****         ((cyBle_pendingFlashWrite & CYBLE_PENDING_CCCD_FLASH_WRITE_BIT) != 0u) &&
 537              		.loc 1 595 0 is_stmt 1 discriminator 3
ARM GAS  C:\Users\ADMINI~1\AppData\Local\Temp\ccieeocD.s 			page 21


 538 0070 454B     		ldr	r3, .L27
 539 0072 1B78     		ldrb	r3, [r3]
 540 0074 1A1C     		mov	r2, r3
 541 0076 0223     		mov	r3, #2
 542 0078 1340     		and	r3, r2
 594:.\Generated_Source\PSoC4/BLE.c ****         ((cyBle_pendingFlashWrite & CYBLE_PENDING_CCCD_FLASH_WRITE_BIT) != 0u) &&
 543              		.loc 1 594 0 discriminator 3
 544 007a 22D0     		beq	.L20
 596:.\Generated_Source\PSoC4/BLE.c ****         (cyBle_connHandle.bdHandle <= CYBLE_GAP_MAX_BONDED_DEVICE))
 545              		.loc 1 596 0
 546 007c 434B     		ldr	r3, .L27+4
 547 007e 1B78     		ldrb	r3, [r3]
 595:.\Generated_Source\PSoC4/BLE.c ****         ((cyBle_pendingFlashWrite & CYBLE_PENDING_CCCD_FLASH_WRITE_BIT) != 0u) &&
 548              		.loc 1 595 0
 549 0080 042B     		cmp	r3, #4
 550 0082 1ED8     		bhi	.L20
 597:.\Generated_Source\PSoC4/BLE.c ****     {
 598:.\Generated_Source\PSoC4/BLE.c ****         apiResult = CyBle_StoreAppData(cyBle_attValuesCCCD, cyBle_flashStorage.attValuesCCCDFlashMe
 599:.\Generated_Source\PSoC4/BLE.c ****                         cyBle_connHandle.bdHandle], CYBLE_GATT_DB_CCCD_COUNT, isForceWrite);
 551              		.loc 1 599 0
 552 0084 414B     		ldr	r3, .L27+4
 553 0086 1B78     		ldrb	r3, [r3]
 598:.\Generated_Source\PSoC4/BLE.c ****                         cyBle_connHandle.bdHandle], CYBLE_GATT_DB_CCCD_COUNT, isForceWrite);
 554              		.loc 1 598 0
 555 0088 9E33     		add	r3, r3, #158
 556 008a 9A00     		lsl	r2, r3, #2
 557 008c 404B     		ldr	r3, .L27+8
 558 008e D318     		add	r3, r2, r3
 559 0090 5A1C     		add	r2, r3, #1
 560 0092 2623     		mov	r3, #38
 561 0094 FC18     		add	r4, r7, r3
 562 0096 3F49     		ldr	r1, .L27+12
 563 0098 FB1D     		add	r3, r7, #7
 564 009a 1B78     		ldrb	r3, [r3]
 565 009c 081C     		mov	r0, r1
 566 009e 111C     		mov	r1, r2
 567 00a0 0422     		mov	r2, #4
 568 00a2 FFF7FEFF 		bl	CyBle_StoreAppData
 569 00a6 031C     		mov	r3, r0
 570 00a8 2380     		strh	r3, [r4]
 600:.\Generated_Source\PSoC4/BLE.c ****         if(apiResult == CYBLE_ERROR_OK)
 571              		.loc 1 600 0
 572 00aa 2623     		mov	r3, #38
 573 00ac FB18     		add	r3, r7, r3
 574 00ae 1B88     		ldrh	r3, [r3]
 575 00b0 002B     		cmp	r3, #0
 576 00b2 06D1     		bne	.L20
 601:.\Generated_Source\PSoC4/BLE.c ****         {
 602:.\Generated_Source\PSoC4/BLE.c ****             cyBle_pendingFlashWrite &= (uint8)~CYBLE_PENDING_CCCD_FLASH_WRITE_BIT;
 577              		.loc 1 602 0
 578 00b4 344B     		ldr	r3, .L27
 579 00b6 1B78     		ldrb	r3, [r3]
 580 00b8 0222     		mov	r2, #2
 581 00ba 9343     		bic	r3, r2
 582 00bc DAB2     		uxtb	r2, r3
 583 00be 324B     		ldr	r3, .L27
 584 00c0 1A70     		strb	r2, [r3]
ARM GAS  C:\Users\ADMINI~1\AppData\Local\Temp\ccieeocD.s 			page 22


 585              	.L20:
 603:.\Generated_Source\PSoC4/BLE.c ****         }
 604:.\Generated_Source\PSoC4/BLE.c ****     }
 605:.\Generated_Source\PSoC4/BLE.c ****     /* Clear requested CCCD values */
 606:.\Generated_Source\PSoC4/BLE.c ****     if( ((apiResult == CYBLE_ERROR_OK) || (isForceWrite != 0u)) && 
 586              		.loc 1 606 0
 587 00c2 2623     		mov	r3, #38
 588 00c4 FB18     		add	r3, r7, r3
 589 00c6 1B88     		ldrh	r3, [r3]
 590 00c8 002B     		cmp	r3, #0
 591 00ca 03D0     		beq	.L21
 592              		.loc 1 606 0 is_stmt 0 discriminator 2
 593 00cc FB1D     		add	r3, r7, #7
 594 00ce 1B78     		ldrb	r3, [r3]
 595 00d0 002B     		cmp	r3, #0
 596 00d2 52D0     		beq	.L22
 597              	.L21:
 607:.\Generated_Source\PSoC4/BLE.c ****         ((cyBle_pendingFlashWrite & CYBLE_PENDING_CCCD_FLASH_CLEAR_MASK) != 0u) )
 598              		.loc 1 607 0 is_stmt 1 discriminator 3
 599 00d4 2C4B     		ldr	r3, .L27
 600 00d6 1B78     		ldrb	r3, [r3]
 601 00d8 1A1C     		mov	r2, r3
 602 00da 0C23     		mov	r3, #12
 603 00dc 1340     		and	r3, r2
 606:.\Generated_Source\PSoC4/BLE.c ****         ((cyBle_pendingFlashWrite & CYBLE_PENDING_CCCD_FLASH_CLEAR_MASK) != 0u) )
 604              		.loc 1 606 0 discriminator 3
 605 00de 4CD0     		beq	.L22
 608:.\Generated_Source\PSoC4/BLE.c ****     {
 609:.\Generated_Source\PSoC4/BLE.c ****         if((cyBle_pendingFlashWrite & CYBLE_PENDING_CCCD_FLASH_CLEAR_ALL_BIT) != 0u)
 606              		.loc 1 609 0
 607 00e0 294B     		ldr	r3, .L27
 608 00e2 1B78     		ldrb	r3, [r3]
 609 00e4 1A1C     		mov	r2, r3
 610 00e6 0823     		mov	r3, #8
 611 00e8 1340     		and	r3, r2
 612 00ea 22D0     		beq	.L23
 613              	.LBB3:
 610:.\Generated_Source\PSoC4/BLE.c ****         {
 611:.\Generated_Source\PSoC4/BLE.c ****             /* Remove cccd values for all bonded devices */
 612:.\Generated_Source\PSoC4/BLE.c ****             uint8 defaultValuesCCCD[CYBLE_GAP_MAX_BONDED_DEVICE + 1u][CYBLE_GATT_DB_CCCD_COUNT];
 613:.\Generated_Source\PSoC4/BLE.c ****             
 614:.\Generated_Source\PSoC4/BLE.c ****             (void)memset(defaultValuesCCCD, 0, sizeof(defaultValuesCCCD));
 614              		.loc 1 614 0
 615 00ec 1023     		mov	r3, #16
 616 00ee FB18     		add	r3, r7, r3
 617 00f0 181C     		mov	r0, r3
 618 00f2 0021     		mov	r1, #0
 619 00f4 1422     		mov	r2, #20
 620 00f6 FFF7FEFF 		bl	memset
 615:.\Generated_Source\PSoC4/BLE.c **** 
 616:.\Generated_Source\PSoC4/BLE.c ****             apiResult = CyBle_StoreAppData((uint8 *)defaultValuesCCCD, 
 621              		.loc 1 616 0
 622 00fa 2623     		mov	r3, #38
 623 00fc FC18     		add	r4, r7, r3
 624 00fe 1023     		mov	r3, #16
 625 0100 F918     		add	r1, r7, r3
 626 0102 254A     		ldr	r2, .L27+16
ARM GAS  C:\Users\ADMINI~1\AppData\Local\Temp\ccieeocD.s 			page 23


 627 0104 FB1D     		add	r3, r7, #7
 628 0106 1B78     		ldrb	r3, [r3]
 629 0108 081C     		mov	r0, r1
 630 010a 111C     		mov	r1, r2
 631 010c 1422     		mov	r2, #20
 632 010e FFF7FEFF 		bl	CyBle_StoreAppData
 633 0112 031C     		mov	r3, r0
 634 0114 2380     		strh	r3, [r4]
 617:.\Generated_Source\PSoC4/BLE.c ****                 (const uint8 *)cyBle_flashStorage.attValuesCCCDFlashMemory, sizeof(defaultValuesCCC
 618:.\Generated_Source\PSoC4/BLE.c ****             if(apiResult == CYBLE_ERROR_OK)
 635              		.loc 1 618 0
 636 0116 2623     		mov	r3, #38
 637 0118 FB18     		add	r3, r7, r3
 638 011a 1B88     		ldrh	r3, [r3]
 639 011c 002B     		cmp	r3, #0
 640 011e 07D1     		bne	.L24
 619:.\Generated_Source\PSoC4/BLE.c ****             {
 620:.\Generated_Source\PSoC4/BLE.c ****                 cyBle_pendingFlashWrite &= (uint8)~CYBLE_PENDING_CCCD_FLASH_CLEAR_ALL_BIT;
 641              		.loc 1 620 0
 642 0120 194B     		ldr	r3, .L27
 643 0122 1B78     		ldrb	r3, [r3]
 644 0124 0822     		mov	r2, #8
 645 0126 9343     		bic	r3, r2
 646 0128 DAB2     		uxtb	r2, r3
 647 012a 174B     		ldr	r3, .L27
 648 012c 1A70     		strb	r2, [r3]
 649              	.LBE3:
 650 012e 24E0     		b	.L22
 651              	.L24:
 652 0130 23E0     		b	.L22
 653              	.L23:
 654              	.LBB4:
 621:.\Generated_Source\PSoC4/BLE.c ****             }
 622:.\Generated_Source\PSoC4/BLE.c ****         }
 623:.\Generated_Source\PSoC4/BLE.c ****         else /* Remove cccd values for particular device */
 624:.\Generated_Source\PSoC4/BLE.c ****         {
 625:.\Generated_Source\PSoC4/BLE.c ****             uint8 defaultValuesCCCD[CYBLE_GATT_DB_CCCD_COUNT] = {0u};
 655              		.loc 1 625 0
 656 0132 0C23     		mov	r3, #12
 657 0134 FB18     		add	r3, r7, r3
 658 0136 0022     		mov	r2, #0
 659 0138 1A60     		str	r2, [r3]
 626:.\Generated_Source\PSoC4/BLE.c ****             
 627:.\Generated_Source\PSoC4/BLE.c ****             apiResult = CyBle_StoreAppData(defaultValuesCCCD, cyBle_flashStorage.attValuesCCCDFlash
 660              		.loc 1 627 0
 661 013a 184B     		ldr	r3, .L27+20
 662 013c 1B78     		ldrb	r3, [r3]
 663 013e 9E33     		add	r3, r3, #158
 664 0140 9A00     		lsl	r2, r3, #2
 665 0142 134B     		ldr	r3, .L27+8
 666 0144 D318     		add	r3, r2, r3
 667 0146 5A1C     		add	r2, r3, #1
 668 0148 2623     		mov	r3, #38
 669 014a FC18     		add	r4, r7, r3
 670 014c 0C23     		mov	r3, #12
 671 014e F918     		add	r1, r7, r3
 672 0150 FB1D     		add	r3, r7, #7
ARM GAS  C:\Users\ADMINI~1\AppData\Local\Temp\ccieeocD.s 			page 24


 673 0152 1B78     		ldrb	r3, [r3]
 674 0154 081C     		mov	r0, r1
 675 0156 111C     		mov	r1, r2
 676 0158 0422     		mov	r2, #4
 677 015a FFF7FEFF 		bl	CyBle_StoreAppData
 678 015e 031C     		mov	r3, r0
 679 0160 2380     		strh	r3, [r4]
 628:.\Generated_Source\PSoC4/BLE.c ****                                     cyBle_pendingFlashClearCccdHandle], CYBLE_GATT_DB_CCCD_COUNT, i
 629:.\Generated_Source\PSoC4/BLE.c ****             if(apiResult == CYBLE_ERROR_OK)
 680              		.loc 1 629 0
 681 0162 2623     		mov	r3, #38
 682 0164 FB18     		add	r3, r7, r3
 683 0166 1B88     		ldrh	r3, [r3]
 684 0168 002B     		cmp	r3, #0
 685 016a 06D1     		bne	.L22
 630:.\Generated_Source\PSoC4/BLE.c ****             {
 631:.\Generated_Source\PSoC4/BLE.c ****                 cyBle_pendingFlashWrite &= (uint8)~CYBLE_PENDING_CCCD_FLASH_CLEAR_BIT;
 686              		.loc 1 631 0
 687 016c 064B     		ldr	r3, .L27
 688 016e 1B78     		ldrb	r3, [r3]
 689 0170 0422     		mov	r2, #4
 690 0172 9343     		bic	r3, r2
 691 0174 DAB2     		uxtb	r2, r3
 692 0176 044B     		ldr	r3, .L27
 693 0178 1A70     		strb	r2, [r3]
 694              	.L22:
 695              	.LBE4:
 632:.\Generated_Source\PSoC4/BLE.c ****             }
 633:.\Generated_Source\PSoC4/BLE.c ****         }
 634:.\Generated_Source\PSoC4/BLE.c ****     }
 635:.\Generated_Source\PSoC4/BLE.c **** #endif /* CYBLE_GATT_DB_CCCD_COUNT != 0u */
 636:.\Generated_Source\PSoC4/BLE.c ****     return(apiResult);
 696              		.loc 1 636 0
 697 017a 2623     		mov	r3, #38
 698 017c FB18     		add	r3, r7, r3
 699 017e 1B88     		ldrh	r3, [r3]
 637:.\Generated_Source\PSoC4/BLE.c **** }
 700              		.loc 1 637 0
 701 0180 181C     		mov	r0, r3
 702 0182 BD46     		mov	sp, r7
 703 0184 0BB0     		add	sp, sp, #44
 704              		@ sp needed
 705 0186 90BD     		pop	{r4, r7, pc}
 706              	.L28:
 707              		.align	2
 708              	.L27:
 709 0188 00000000 		.word	cyBle_pendingFlashWrite
 710 018c 00000000 		.word	cyBle_connHandle
 711 0190 00000000 		.word	cyBle_flashStorage
 712 0194 00000000 		.word	cyBle_attValuesCCCD
 713 0198 79020000 		.word	cyBle_flashStorage+633
 714 019c 24000000 		.word	cyBle_pendingFlashClearCccdHandle
 715              		.cfi_endproc
 716              	.LFE6:
 717              		.size	CyBle_StoreBondingData, .-CyBle_StoreBondingData
 718              		.section	.text.CyBle_GapRemoveBondedDevice,"ax",%progbits
 719              		.align	2
ARM GAS  C:\Users\ADMINI~1\AppData\Local\Temp\ccieeocD.s 			page 25


 720              		.global	CyBle_GapRemoveBondedDevice
 721              		.code	16
 722              		.thumb_func
 723              		.type	CyBle_GapRemoveBondedDevice, %function
 724              	CyBle_GapRemoveBondedDevice:
 725              	.LFB7:
 638:.\Generated_Source\PSoC4/BLE.c **** 
 639:.\Generated_Source\PSoC4/BLE.c **** 
 640:.\Generated_Source\PSoC4/BLE.c **** /******************************************************************************
 641:.\Generated_Source\PSoC4/BLE.c **** * Function Name: CyBle_GapRemoveBondedDevice
 642:.\Generated_Source\PSoC4/BLE.c **** ***************************************************************************//**
 643:.\Generated_Source\PSoC4/BLE.c **** * 
 644:.\Generated_Source\PSoC4/BLE.c **** *  This function marks the device untrusted. It removes the bonding information
 645:.\Generated_Source\PSoC4/BLE.c **** *  of the device including CCCD values. This function removes device from the
 646:.\Generated_Source\PSoC4/BLE.c **** *  white list also when autopopulate white list with bonded devices option is
 647:.\Generated_Source\PSoC4/BLE.c **** *  enabled.
 648:.\Generated_Source\PSoC4/BLE.c **** * 
 649:.\Generated_Source\PSoC4/BLE.c **** *  This function is available only when Bonding requirement is selected in
 650:.\Generated_Source\PSoC4/BLE.c **** *  Security settings.    
 651:.\Generated_Source\PSoC4/BLE.c **** *
 652:.\Generated_Source\PSoC4/BLE.c **** *  \param bdAddr: Pointer to peer device address, of type CYBLE_GAP_BD_ADDR_T.
 653:.\Generated_Source\PSoC4/BLE.c **** *                 If device address is set to 0, then all devices shall be
 654:.\Generated_Source\PSoC4/BLE.c **** *                 removed from trusted list and white list.
 655:.\Generated_Source\PSoC4/BLE.c **** *
 656:.\Generated_Source\PSoC4/BLE.c **** * \return
 657:.\Generated_Source\PSoC4/BLE.c **** *  CYBLE_API_RESULT_T : Return value indicates if the function succeeded or
 658:.\Generated_Source\PSoC4/BLE.c **** *  failed. Following are the possible error codes.
 659:.\Generated_Source\PSoC4/BLE.c **** *
 660:.\Generated_Source\PSoC4/BLE.c **** *   Errors codes                     | Description
 661:.\Generated_Source\PSoC4/BLE.c **** *   ---------------------------------| ------------------------------------
 662:.\Generated_Source\PSoC4/BLE.c **** *   CYBLE_ERROR_OK                   | On successful operation.
 663:.\Generated_Source\PSoC4/BLE.c **** *   CYBLE_ERROR_INVALID_PARAMETER    | On specifying NULL as input parameter for 'bdAddr'.
 664:.\Generated_Source\PSoC4/BLE.c **** *   CYBLE_ERROR_INVALID_OPERATION    | Whitelist is already in use or there is pending write to fla
 665:.\Generated_Source\PSoC4/BLE.c **** *   CYBLE_ERROR_NO_DEVICE_ENTITY     | Device does not exist in the bond list.
 666:.\Generated_Source\PSoC4/BLE.c **** *
 667:.\Generated_Source\PSoC4/BLE.c **** *  \globalvars
 668:.\Generated_Source\PSoC4/BLE.c **** *   The bdHandle is set in cyBle_pendingFlashWrite variable to indicate that
 669:.\Generated_Source\PSoC4/BLE.c **** *   data should be stored to flash by CyBle_StoreBondingData afterwards. 
 670:.\Generated_Source\PSoC4/BLE.c **** *     
 671:.\Generated_Source\PSoC4/BLE.c **** ******************************************************************************/
 672:.\Generated_Source\PSoC4/BLE.c **** CYBLE_API_RESULT_T CyBle_GapRemoveBondedDevice(CYBLE_GAP_BD_ADDR_T* bdAddr)
 673:.\Generated_Source\PSoC4/BLE.c **** {
 726              		.loc 1 673 0
 727              		.cfi_startproc
 728 0000 90B5     		push	{r4, r7, lr}
 729              		.cfi_def_cfa_offset 12
 730              		.cfi_offset 4, -12
 731              		.cfi_offset 7, -8
 732              		.cfi_offset 14, -4
 733 0002 87B0     		sub	sp, sp, #28
 734              		.cfi_def_cfa_offset 40
 735 0004 00AF     		add	r7, sp, #0
 736              		.cfi_def_cfa_register 7
 737 0006 7860     		str	r0, [r7, #4]
 674:.\Generated_Source\PSoC4/BLE.c ****     CYBLE_API_RESULT_T apiResult = CYBLE_ERROR_OK;
 738              		.loc 1 674 0
 739 0008 1623     		mov	r3, #22
ARM GAS  C:\Users\ADMINI~1\AppData\Local\Temp\ccieeocD.s 			page 26


 740 000a FB18     		add	r3, r7, r3
 741 000c 0022     		mov	r2, #0
 742 000e 1A80     		strh	r2, [r3]
 675:.\Generated_Source\PSoC4/BLE.c ****     
 676:.\Generated_Source\PSoC4/BLE.c ****     if(cyBle_pendingFlashWrite == 0u)
 743              		.loc 1 676 0
 744 0010 334B     		ldr	r3, .L36
 745 0012 1B78     		ldrb	r3, [r3]
 746 0014 002B     		cmp	r3, #0
 747 0016 58D1     		bne	.L30
 748              	.LBB5:
 677:.\Generated_Source\PSoC4/BLE.c ****     {
 678:.\Generated_Source\PSoC4/BLE.c ****         
 679:.\Generated_Source\PSoC4/BLE.c ****     #if(CYBLE_GATT_DB_CCCD_COUNT != 0u)
 680:.\Generated_Source\PSoC4/BLE.c ****         /* Request to clear CCCD values which will be done by CyBle_StoreBondingData API */
 681:.\Generated_Source\PSoC4/BLE.c ****         uint8 bDevHandle;
 682:.\Generated_Source\PSoC4/BLE.c ****         CYBLE_GAP_BD_ADDR_T invalidBdAddr = {{0u,0u,0u,0u,0u,0u}, 0u};
 749              		.loc 1 682 0
 750 0018 0C23     		mov	r3, #12
 751 001a FB18     		add	r3, r7, r3
 752 001c 0022     		mov	r2, #0
 753 001e 1A70     		strb	r2, [r3]
 754 0020 0C23     		mov	r3, #12
 755 0022 FB18     		add	r3, r7, r3
 756 0024 0022     		mov	r2, #0
 757 0026 5A70     		strb	r2, [r3, #1]
 758 0028 0C23     		mov	r3, #12
 759 002a FB18     		add	r3, r7, r3
 760 002c 0022     		mov	r2, #0
 761 002e 9A70     		strb	r2, [r3, #2]
 762 0030 0C23     		mov	r3, #12
 763 0032 FB18     		add	r3, r7, r3
 764 0034 0022     		mov	r2, #0
 765 0036 DA70     		strb	r2, [r3, #3]
 766 0038 0C23     		mov	r3, #12
 767 003a FB18     		add	r3, r7, r3
 768 003c 0022     		mov	r2, #0
 769 003e 1A71     		strb	r2, [r3, #4]
 770 0040 0C23     		mov	r3, #12
 771 0042 FB18     		add	r3, r7, r3
 772 0044 0022     		mov	r2, #0
 773 0046 5A71     		strb	r2, [r3, #5]
 774 0048 0C23     		mov	r3, #12
 775 004a FB18     		add	r3, r7, r3
 776 004c 0022     		mov	r2, #0
 777 004e 9A71     		strb	r2, [r3, #6]
 683:.\Generated_Source\PSoC4/BLE.c **** 
 684:.\Generated_Source\PSoC4/BLE.c ****         if(memcmp(((uint8 *) &(bdAddr->bdAddr)), ((uint8 *) &(invalidBdAddr.bdAddr)), CYBLE_GAP_BD_
 778              		.loc 1 684 0
 779 0050 7A68     		ldr	r2, [r7, #4]
 780 0052 0C23     		mov	r3, #12
 781 0054 FB18     		add	r3, r7, r3
 782 0056 101C     		mov	r0, r2
 783 0058 191C     		mov	r1, r3
 784 005a 0622     		mov	r2, #6
 785 005c FFF7FEFF 		bl	memcmp
 786 0060 031E     		sub	r3, r0, #0
ARM GAS  C:\Users\ADMINI~1\AppData\Local\Temp\ccieeocD.s 			page 27


 787 0062 07D1     		bne	.L31
 685:.\Generated_Source\PSoC4/BLE.c **** 	    {
 686:.\Generated_Source\PSoC4/BLE.c ****             /* Request to remove all bonded devices by cyBle_StoreBondingData API */
 687:.\Generated_Source\PSoC4/BLE.c ****             cyBle_pendingFlashWrite |= CYBLE_PENDING_CCCD_FLASH_CLEAR_ALL_BIT;
 788              		.loc 1 687 0
 789 0064 1E4B     		ldr	r3, .L36
 790 0066 1B78     		ldrb	r3, [r3]
 791 0068 0822     		mov	r2, #8
 792 006a 1343     		orr	r3, r2
 793 006c DAB2     		uxtb	r2, r3
 794 006e 1C4B     		ldr	r3, .L36
 795 0070 1A70     		strb	r2, [r3]
 796 0072 1BE0     		b	.L32
 797              	.L31:
 688:.\Generated_Source\PSoC4/BLE.c ****         }
 689:.\Generated_Source\PSoC4/BLE.c ****         else
 690:.\Generated_Source\PSoC4/BLE.c ****         {
 691:.\Generated_Source\PSoC4/BLE.c ****             /* Get the BD handle from Address */
 692:.\Generated_Source\PSoC4/BLE.c ****             apiResult = CyBle_GapGetPeerBdHandle(&bDevHandle, bdAddr);
 798              		.loc 1 692 0
 799 0074 1623     		mov	r3, #22
 800 0076 FC18     		add	r4, r7, r3
 801 0078 1523     		mov	r3, #21
 802 007a FA18     		add	r2, r7, r3
 803 007c 7B68     		ldr	r3, [r7, #4]
 804 007e 101C     		mov	r0, r2
 805 0080 191C     		mov	r1, r3
 806 0082 FFF7FEFF 		bl	CyBle_GapGetPeerBdHandle
 807 0086 031C     		mov	r3, r0
 808 0088 2380     		strh	r3, [r4]
 693:.\Generated_Source\PSoC4/BLE.c ****             if(apiResult == CYBLE_ERROR_OK)
 809              		.loc 1 693 0
 810 008a 1623     		mov	r3, #22
 811 008c FB18     		add	r3, r7, r3
 812 008e 1B88     		ldrh	r3, [r3]
 813 0090 002B     		cmp	r3, #0
 814 0092 0BD1     		bne	.L32
 694:.\Generated_Source\PSoC4/BLE.c ****             {
 695:.\Generated_Source\PSoC4/BLE.c ****                 /* Store BD handle to clear cccd values by CyBle_StoreBondingData API */
 696:.\Generated_Source\PSoC4/BLE.c ****                 cyBle_pendingFlashWrite |= CYBLE_PENDING_CCCD_FLASH_CLEAR_BIT;
 815              		.loc 1 696 0
 816 0094 124B     		ldr	r3, .L36
 817 0096 1B78     		ldrb	r3, [r3]
 818 0098 0422     		mov	r2, #4
 819 009a 1343     		orr	r3, r2
 820 009c DAB2     		uxtb	r2, r3
 821 009e 104B     		ldr	r3, .L36
 822 00a0 1A70     		strb	r2, [r3]
 697:.\Generated_Source\PSoC4/BLE.c ****                 cyBle_pendingFlashClearCccdHandle = bDevHandle;
 823              		.loc 1 697 0
 824 00a2 1523     		mov	r3, #21
 825 00a4 FB18     		add	r3, r7, r3
 826 00a6 1A78     		ldrb	r2, [r3]
 827 00a8 0E4B     		ldr	r3, .L36+4
 828 00aa 1A70     		strb	r2, [r3]
 829              	.L32:
 698:.\Generated_Source\PSoC4/BLE.c ****             }
ARM GAS  C:\Users\ADMINI~1\AppData\Local\Temp\ccieeocD.s 			page 28


 699:.\Generated_Source\PSoC4/BLE.c ****         }
 700:.\Generated_Source\PSoC4/BLE.c ****         if(apiResult == CYBLE_ERROR_OK)
 830              		.loc 1 700 0
 831 00ac 1623     		mov	r3, #22
 832 00ae FB18     		add	r3, r7, r3
 833 00b0 1B88     		ldrh	r3, [r3]
 834 00b2 002B     		cmp	r3, #0
 835 00b4 08D1     		bne	.L33
 701:.\Generated_Source\PSoC4/BLE.c ****         {
 702:.\Generated_Source\PSoC4/BLE.c ****             #if(CYBLE_AUTO_POPULATE_WHITELIST != 0u)
 703:.\Generated_Source\PSoC4/BLE.c ****                 apiResult = CyBle_GapRemoveDeviceFromWhiteList(bdAddr);
 836              		.loc 1 703 0
 837 00b6 1623     		mov	r3, #22
 838 00b8 FC18     		add	r4, r7, r3
 839 00ba 7B68     		ldr	r3, [r7, #4]
 840 00bc 181C     		mov	r0, r3
 841 00be FFF7FEFF 		bl	CyBle_GapRemoveDeviceFromWhiteList
 842 00c2 031C     		mov	r3, r0
 843 00c4 2380     		strh	r3, [r4]
 844              	.LBE5:
 845 00c6 04E0     		b	.L34
 846              	.L33:
 847 00c8 03E0     		b	.L34
 848              	.L30:
 704:.\Generated_Source\PSoC4/BLE.c ****             #else
 705:.\Generated_Source\PSoC4/BLE.c ****                 apiResult = CyBle_GapRemDeviceFromBondList(bdAddr);
 706:.\Generated_Source\PSoC4/BLE.c ****             #endif
 707:.\Generated_Source\PSoC4/BLE.c ****         }
 708:.\Generated_Source\PSoC4/BLE.c ****     #endif /* CYBLE_GATT_DB_CCCD_COUNT != 0u */
 709:.\Generated_Source\PSoC4/BLE.c ****     }
 710:.\Generated_Source\PSoC4/BLE.c ****     else
 711:.\Generated_Source\PSoC4/BLE.c ****     {
 712:.\Generated_Source\PSoC4/BLE.c ****         apiResult = CYBLE_ERROR_INVALID_OPERATION;
 849              		.loc 1 712 0
 850 00ca 1623     		mov	r3, #22
 851 00cc FB18     		add	r3, r7, r3
 852 00ce 0222     		mov	r2, #2
 853 00d0 1A80     		strh	r2, [r3]
 854              	.L34:
 713:.\Generated_Source\PSoC4/BLE.c ****     }
 714:.\Generated_Source\PSoC4/BLE.c ****     
 715:.\Generated_Source\PSoC4/BLE.c ****     return(apiResult);
 855              		.loc 1 715 0
 856 00d2 1623     		mov	r3, #22
 857 00d4 FB18     		add	r3, r7, r3
 858 00d6 1B88     		ldrh	r3, [r3]
 716:.\Generated_Source\PSoC4/BLE.c **** }
 859              		.loc 1 716 0
 860 00d8 181C     		mov	r0, r3
 861 00da BD46     		mov	sp, r7
 862 00dc 07B0     		add	sp, sp, #28
 863              		@ sp needed
 864 00de 90BD     		pop	{r4, r7, pc}
 865              	.L37:
 866              		.align	2
 867              	.L36:
 868 00e0 00000000 		.word	cyBle_pendingFlashWrite
ARM GAS  C:\Users\ADMINI~1\AppData\Local\Temp\ccieeocD.s 			page 29


 869 00e4 24000000 		.word	cyBle_pendingFlashClearCccdHandle
 870              		.cfi_endproc
 871              	.LFE7:
 872              		.size	CyBle_GapRemoveBondedDevice, .-CyBle_GapRemoveBondedDevice
 873              		.section	.text.CyBle_GappStartAdvertisement,"ax",%progbits
 874              		.align	2
 875              		.global	CyBle_GappStartAdvertisement
 876              		.code	16
 877              		.thumb_func
 878              		.type	CyBle_GappStartAdvertisement, %function
 879              	CyBle_GappStartAdvertisement:
 880              	.LFB8:
 717:.\Generated_Source\PSoC4/BLE.c **** 
 718:.\Generated_Source\PSoC4/BLE.c **** 
 719:.\Generated_Source\PSoC4/BLE.c **** #endif /* (CYBLE_GAP_ROLE_PERIPHERAL || CYBLE_GAP_ROLE_CENTRAL) && (CYBLE_BONDING_REQUIREMENT == CY
 720:.\Generated_Source\PSoC4/BLE.c **** 
 721:.\Generated_Source\PSoC4/BLE.c **** 
 722:.\Generated_Source\PSoC4/BLE.c **** #if(CYBLE_GAP_ROLE_PERIPHERAL || CYBLE_GAP_ROLE_BROADCASTER)
 723:.\Generated_Source\PSoC4/BLE.c **** 
 724:.\Generated_Source\PSoC4/BLE.c ****     /******************************************************************************
 725:.\Generated_Source\PSoC4/BLE.c ****     *  Function Name: CyBle_GappStartAdvertisement
 726:.\Generated_Source\PSoC4/BLE.c ****     ***************************************************************************//**
 727:.\Generated_Source\PSoC4/BLE.c ****     *     
 728:.\Generated_Source\PSoC4/BLE.c ****     *  This function is used to start the advertisement using the advertisement data 
 729:.\Generated_Source\PSoC4/BLE.c ****     *  set in the component customizer's GUI. After invoking this API, the device 
 730:.\Generated_Source\PSoC4/BLE.c ****     *  will be available for connection by the devices configured for GAP central 
 731:.\Generated_Source\PSoC4/BLE.c ****     *  role. It is only included if the device is configured for GAP Peripheral or 
 732:.\Generated_Source\PSoC4/BLE.c ****     *  GAP Peripheral + Central role.
 733:.\Generated_Source\PSoC4/BLE.c ****     *  
 734:.\Generated_Source\PSoC4/BLE.c ****     *  On start of advertisement, GAP Peripheral receives the
 735:.\Generated_Source\PSoC4/BLE.c ****     *  CYBLE_EVT_GAPP_ADVERTISEMENT_START_STOP event. The following events are 
 736:.\Generated_Source\PSoC4/BLE.c ****     *  possible on invoking this function:
 737:.\Generated_Source\PSoC4/BLE.c ****     *  
 738:.\Generated_Source\PSoC4/BLE.c ****     *  * CYBLE_EVT_GAP_DEVICE_CONNECTED - If the device connects to a GAP Central and 
 739:.\Generated_Source\PSoC4/BLE.c ****     *    Link Layer Privacy is disabled in component customizer.
 740:.\Generated_Source\PSoC4/BLE.c ****     *  * CYBLE_EVT_GAP_ENHANCE_CONN_COMPLETE - If the device connects to a GAP Central and 
 741:.\Generated_Source\PSoC4/BLE.c ****     *    Link Layer Privacy is enabled in component customizer.
 742:.\Generated_Source\PSoC4/BLE.c ****     *  * CYBLE_EVT_TIMEOUT: If no device in GAP Central mode connects to this 
 743:.\Generated_Source\PSoC4/BLE.c ****     *                       device within the specified timeout limit. Stack 
 744:.\Generated_Source\PSoC4/BLE.c ****     *                       automatically initiate stop advertising when Slow 
 745:.\Generated_Source\PSoC4/BLE.c ****     *                       advertising was initiated, or starts Slow advertising
 746:.\Generated_Source\PSoC4/BLE.c ****     *                       after Fast advertising timeout occur.
 747:.\Generated_Source\PSoC4/BLE.c ****     *  * CYBLE_EVT_GAPP_ADVERTISEMENT_START_STOP: If device started or stopped
 748:.\Generated_Source\PSoC4/BLE.c ****     *                                               advertising. Use CyBle_GetState()
 749:.\Generated_Source\PSoC4/BLE.c ****     *                                               to determine the state. Sequential 
 750:.\Generated_Source\PSoC4/BLE.c ****     *                                               advertising could be started when
 751:.\Generated_Source\PSoC4/BLE.c ****     *                                               CYBLE_STATE_DISCONNECTED state is
 752:.\Generated_Source\PSoC4/BLE.c ****     *                                               returned.
 753:.\Generated_Source\PSoC4/BLE.c ****     * 
 754:.\Generated_Source\PSoC4/BLE.c ****     *  \param advertisingIntervalType: Fast or slow advertising interval with timings
 755:.\Generated_Source\PSoC4/BLE.c ****     *                                 entered in Advertising settings section of the
 756:.\Generated_Source\PSoC4/BLE.c ****     *                                 customizer.
 757:.\Generated_Source\PSoC4/BLE.c ****     *  * CYBLE_ADVERTISING_FAST   0x00u
 758:.\Generated_Source\PSoC4/BLE.c ****     *  * CYBLE_ADVERTISING_SLOW   0x01u
 759:.\Generated_Source\PSoC4/BLE.c ****     *  * CYBLE_ADVERTISING_CUSTOM 0x02u
 760:.\Generated_Source\PSoC4/BLE.c ****     * 
 761:.\Generated_Source\PSoC4/BLE.c ****     * \return
ARM GAS  C:\Users\ADMINI~1\AppData\Local\Temp\ccieeocD.s 			page 30


 762:.\Generated_Source\PSoC4/BLE.c ****     *  CYBLE_API_RESULT_T : Return value indicates if the function succeeded or
 763:.\Generated_Source\PSoC4/BLE.c ****     *  failed. Following are the possible error codes.
 764:.\Generated_Source\PSoC4/BLE.c ****     * 
 765:.\Generated_Source\PSoC4/BLE.c ****     *   Errors codes                      |  Description
 766:.\Generated_Source\PSoC4/BLE.c ****     *   --------------------------------- |  --------------------------------
 767:.\Generated_Source\PSoC4/BLE.c ****     *   CYBLE_ERROR_OK                    |  On successful operation.
 768:.\Generated_Source\PSoC4/BLE.c ****     *   CYBLE_ERROR_INVALID_PARAMETER     |  On passing an invalid parameter.
 769:.\Generated_Source\PSoC4/BLE.c ****     *   CYBLE_ERROR_INVALID_STATE         |  On calling this API not in Disconnected state.
 770:.\Generated_Source\PSoC4/BLE.c ****     *
 771:.\Generated_Source\PSoC4/BLE.c ****     * 
 772:.\Generated_Source\PSoC4/BLE.c ****     *******************************************************************************/
 773:.\Generated_Source\PSoC4/BLE.c ****     CYBLE_API_RESULT_T CyBle_GappStartAdvertisement(uint8 advertisingIntervalType)
 774:.\Generated_Source\PSoC4/BLE.c ****     {
 881              		.loc 1 774 0
 882              		.cfi_startproc
 883 0000 90B5     		push	{r4, r7, lr}
 884              		.cfi_def_cfa_offset 12
 885              		.cfi_offset 4, -12
 886              		.cfi_offset 7, -8
 887              		.cfi_offset 14, -4
 888 0002 85B0     		sub	sp, sp, #20
 889              		.cfi_def_cfa_offset 32
 890 0004 00AF     		add	r7, sp, #0
 891              		.cfi_def_cfa_register 7
 892 0006 021C     		mov	r2, r0
 893 0008 FB1D     		add	r3, r7, #7
 894 000a 1A70     		strb	r2, [r3]
 775:.\Generated_Source\PSoC4/BLE.c ****         CYBLE_API_RESULT_T apiResult;
 776:.\Generated_Source\PSoC4/BLE.c ****         
 777:.\Generated_Source\PSoC4/BLE.c ****         if(advertisingIntervalType > CYBLE_ADVERTISING_CUSTOM)
 895              		.loc 1 777 0
 896 000c FB1D     		add	r3, r7, #7
 897 000e 1B78     		ldrb	r3, [r3]
 898 0010 022B     		cmp	r3, #2
 899 0012 04D9     		bls	.L39
 778:.\Generated_Source\PSoC4/BLE.c ****         {
 779:.\Generated_Source\PSoC4/BLE.c ****             apiResult = CYBLE_ERROR_INVALID_PARAMETER;
 900              		.loc 1 779 0
 901 0014 0E23     		mov	r3, #14
 902 0016 FB18     		add	r3, r7, r3
 903 0018 0122     		mov	r2, #1
 904 001a 1A80     		strh	r2, [r3]
 905 001c 4BE0     		b	.L40
 906              	.L39:
 780:.\Generated_Source\PSoC4/BLE.c ****         }
 781:.\Generated_Source\PSoC4/BLE.c ****         else if((CYBLE_STATE_DISCONNECTED == CyBle_GetState()) && ((cyBle_eventHandlerFlag & CYBLE_
 907              		.loc 1 781 0
 908 001e 294B     		ldr	r3, .L46
 909 0020 1B78     		ldrb	r3, [r3]
 910 0022 042B     		cmp	r3, #4
 911 0024 42D1     		bne	.L41
 912              		.loc 1 781 0 is_stmt 0 discriminator 1
 913 0026 284B     		ldr	r3, .L46+4
 914 0028 1B78     		ldrb	r3, [r3]
 915 002a DBB2     		uxtb	r3, r3
 916 002c 1A1C     		mov	r2, r3
 917 002e 0423     		mov	r3, #4
ARM GAS  C:\Users\ADMINI~1\AppData\Local\Temp\ccieeocD.s 			page 31


 918 0030 1340     		and	r3, r2
 919 0032 3BD1     		bne	.L41
 782:.\Generated_Source\PSoC4/BLE.c ****         {   
 783:.\Generated_Source\PSoC4/BLE.c ****             if(advertisingIntervalType == CYBLE_ADVERTISING_FAST)
 920              		.loc 1 783 0 is_stmt 1
 921 0034 FB1D     		add	r3, r7, #7
 922 0036 1B78     		ldrb	r3, [r3]
 923 0038 002B     		cmp	r3, #0
 924 003a 0BD1     		bne	.L42
 784:.\Generated_Source\PSoC4/BLE.c ****             {
 785:.\Generated_Source\PSoC4/BLE.c ****                 cyBle_discoveryModeInfo.advTo = CYBLE_FAST_ADV_TIMEOUT;
 925              		.loc 1 785 0
 926 003c 234B     		ldr	r3, .L46+8
 927 003e 0022     		mov	r2, #0
 928 0040 1A82     		strh	r2, [r3, #16]
 786:.\Generated_Source\PSoC4/BLE.c ****                 cyBle_discoveryModeInfo.advParam->advIntvMin = CYBLE_FAST_ADV_INT_MIN;
 929              		.loc 1 786 0
 930 0042 224B     		ldr	r3, .L46+8
 931 0044 5B68     		ldr	r3, [r3, #4]
 932 0046 F022     		mov	r2, #240
 933 0048 1A80     		strh	r2, [r3]
 787:.\Generated_Source\PSoC4/BLE.c ****                 cyBle_discoveryModeInfo.advParam->advIntvMax = CYBLE_FAST_ADV_INT_MAX;
 934              		.loc 1 787 0
 935 004a 204B     		ldr	r3, .L46+8
 936 004c 5B68     		ldr	r3, [r3, #4]
 937 004e F022     		mov	r2, #240
 938 0050 5A80     		strh	r2, [r3, #2]
 939 0052 10E0     		b	.L43
 940              	.L42:
 788:.\Generated_Source\PSoC4/BLE.c ****             }
 789:.\Generated_Source\PSoC4/BLE.c ****             else if(advertisingIntervalType == CYBLE_ADVERTISING_SLOW)
 941              		.loc 1 789 0
 942 0054 FB1D     		add	r3, r7, #7
 943 0056 1B78     		ldrb	r3, [r3]
 944 0058 012B     		cmp	r3, #1
 945 005a 0CD1     		bne	.L43
 790:.\Generated_Source\PSoC4/BLE.c ****             {
 791:.\Generated_Source\PSoC4/BLE.c ****                 cyBle_discoveryModeInfo.advTo = CYBLE_SLOW_ADV_TIMEOUT;
 946              		.loc 1 791 0
 947 005c 1B4B     		ldr	r3, .L46+8
 948 005e 9622     		mov	r2, #150
 949 0060 1A82     		strh	r2, [r3, #16]
 792:.\Generated_Source\PSoC4/BLE.c ****                 cyBle_discoveryModeInfo.advParam->advIntvMin = CYBLE_SLOW_ADV_INT_MIN;
 950              		.loc 1 792 0
 951 0062 1A4B     		ldr	r3, .L46+8
 952 0064 5B68     		ldr	r3, [r3, #4]
 953 0066 C822     		mov	r2, #200
 954 0068 D200     		lsl	r2, r2, #3
 955 006a 1A80     		strh	r2, [r3]
 793:.\Generated_Source\PSoC4/BLE.c ****                 cyBle_discoveryModeInfo.advParam->advIntvMax = CYBLE_SLOW_ADV_INT_MAX;
 956              		.loc 1 793 0
 957 006c 174B     		ldr	r3, .L46+8
 958 006e 5B68     		ldr	r3, [r3, #4]
 959 0070 8022     		mov	r2, #128
 960 0072 D201     		lsl	r2, r2, #7
 961 0074 5A80     		strh	r2, [r3, #2]
 962              	.L43:
ARM GAS  C:\Users\ADMINI~1\AppData\Local\Temp\ccieeocD.s 			page 32


 794:.\Generated_Source\PSoC4/BLE.c ****             }       
 795:.\Generated_Source\PSoC4/BLE.c ****             else /* Do not update advertising intervals */
 796:.\Generated_Source\PSoC4/BLE.c ****             {
 797:.\Generated_Source\PSoC4/BLE.c ****             }
 798:.\Generated_Source\PSoC4/BLE.c ****             cyBle_advertisingIntervalType = advertisingIntervalType;
 963              		.loc 1 798 0
 964 0076 164B     		ldr	r3, .L46+12
 965 0078 FA1D     		add	r2, r7, #7
 966 007a 1278     		ldrb	r2, [r2]
 967 007c 1A70     		strb	r2, [r3]
 799:.\Generated_Source\PSoC4/BLE.c ****             apiResult = CyBle_GappEnterDiscoveryMode(&cyBle_discoveryModeInfo);
 968              		.loc 1 799 0
 969 007e 0E23     		mov	r3, #14
 970 0080 FC18     		add	r4, r7, r3
 971 0082 124B     		ldr	r3, .L46+8
 972 0084 181C     		mov	r0, r3
 973 0086 FFF7FEFF 		bl	CyBle_GappEnterDiscoveryMode
 974 008a 031C     		mov	r3, r0
 975 008c 2380     		strh	r3, [r4]
 800:.\Generated_Source\PSoC4/BLE.c ****         
 801:.\Generated_Source\PSoC4/BLE.c ****             if(CYBLE_ERROR_OK == apiResult)
 976              		.loc 1 801 0
 977 008e 0E23     		mov	r3, #14
 978 0090 FB18     		add	r3, r7, r3
 979 0092 1B88     		ldrh	r3, [r3]
 980 0094 002B     		cmp	r3, #0
 981 0096 08D1     		bne	.L44
 802:.\Generated_Source\PSoC4/BLE.c ****             {
 803:.\Generated_Source\PSoC4/BLE.c ****                 cyBle_eventHandlerFlag |= CYBLE_START_FLAG;
 982              		.loc 1 803 0
 983 0098 0B4B     		ldr	r3, .L46+4
 984 009a 1B78     		ldrb	r3, [r3]
 985 009c DBB2     		uxtb	r3, r3
 986 009e 0422     		mov	r2, #4
 987 00a0 1343     		orr	r3, r2
 988 00a2 DAB2     		uxtb	r2, r3
 989 00a4 084B     		ldr	r3, .L46+4
 990 00a6 1A70     		strb	r2, [r3]
 801:.\Generated_Source\PSoC4/BLE.c ****             {
 991              		.loc 1 801 0
 992 00a8 05E0     		b	.L40
 993              	.L44:
 994 00aa 04E0     		b	.L40
 995              	.L41:
 804:.\Generated_Source\PSoC4/BLE.c ****             }
 805:.\Generated_Source\PSoC4/BLE.c ****         }
 806:.\Generated_Source\PSoC4/BLE.c ****         else
 807:.\Generated_Source\PSoC4/BLE.c ****         {
 808:.\Generated_Source\PSoC4/BLE.c ****             apiResult = CYBLE_ERROR_INVALID_STATE;
 996              		.loc 1 808 0
 997 00ac 0E23     		mov	r3, #14
 998 00ae FB18     		add	r3, r7, r3
 999 00b0 0422     		mov	r2, #4
 1000 00b2 FF32     		add	r2, r2, #255
 1001 00b4 1A80     		strh	r2, [r3]
 1002              	.L40:
 809:.\Generated_Source\PSoC4/BLE.c ****         }
ARM GAS  C:\Users\ADMINI~1\AppData\Local\Temp\ccieeocD.s 			page 33


 810:.\Generated_Source\PSoC4/BLE.c **** 
 811:.\Generated_Source\PSoC4/BLE.c ****         return (apiResult);
 1003              		.loc 1 811 0
 1004 00b6 0E23     		mov	r3, #14
 1005 00b8 FB18     		add	r3, r7, r3
 1006 00ba 1B88     		ldrh	r3, [r3]
 812:.\Generated_Source\PSoC4/BLE.c ****     }
 1007              		.loc 1 812 0
 1008 00bc 181C     		mov	r0, r3
 1009 00be BD46     		mov	sp, r7
 1010 00c0 05B0     		add	sp, sp, #20
 1011              		@ sp needed
 1012 00c2 90BD     		pop	{r4, r7, pc}
 1013              	.L47:
 1014              		.align	2
 1015              	.L46:
 1016 00c4 00000000 		.word	cyBle_state
 1017 00c8 00000000 		.word	cyBle_eventHandlerFlag
 1018 00cc 00000000 		.word	cyBle_discoveryModeInfo
 1019 00d0 00000000 		.word	cyBle_advertisingIntervalType
 1020              		.cfi_endproc
 1021              	.LFE8:
 1022              		.size	CyBle_GappStartAdvertisement, .-CyBle_GappStartAdvertisement
 1023              		.section	.text.CyBle_GappStopAdvertisement,"ax",%progbits
 1024              		.align	2
 1025              		.global	CyBle_GappStopAdvertisement
 1026              		.code	16
 1027              		.thumb_func
 1028              		.type	CyBle_GappStopAdvertisement, %function
 1029              	CyBle_GappStopAdvertisement:
 1030              	.LFB9:
 813:.\Generated_Source\PSoC4/BLE.c **** 
 814:.\Generated_Source\PSoC4/BLE.c ****     
 815:.\Generated_Source\PSoC4/BLE.c ****     /******************************************************************************
 816:.\Generated_Source\PSoC4/BLE.c ****     * Function Name: CyBle_GappStopAdvertisement
 817:.\Generated_Source\PSoC4/BLE.c ****     ***************************************************************************//**
 818:.\Generated_Source\PSoC4/BLE.c ****     * 
 819:.\Generated_Source\PSoC4/BLE.c ****     *   This function can be used to exit from discovery mode. After the execution 
 820:.\Generated_Source\PSoC4/BLE.c ****     *   of this function, there will no longer be any advertisements. On stopping 
 821:.\Generated_Source\PSoC4/BLE.c ****     *   advertising, GAP Peripheral receives CYBLE_EVT_GAPP_ADVERTISEMENT_START_STOP
 822:.\Generated_Source\PSoC4/BLE.c ****     *   event. It is expected that the application layer tracks the function call 
 823:.\Generated_Source\PSoC4/BLE.c ****     *   performed before occurrence of this event as this event can occur on making 
 824:.\Generated_Source\PSoC4/BLE.c ****     *   a call to Cy_BleGappStartAdvertisement(), CyBle_GappEnterDiscoveryMode(), 
 825:.\Generated_Source\PSoC4/BLE.c ****     *   or CyBle_GappStartAdvertisement() functions as well.
 826:.\Generated_Source\PSoC4/BLE.c ****     *   
 827:.\Generated_Source\PSoC4/BLE.c ****     *   The following event occurs on invoking this function:
 828:.\Generated_Source\PSoC4/BLE.c ****     *   * CYBLE_EVT_GAPP_ADVERTISEMENT_START_STOP
 829:.\Generated_Source\PSoC4/BLE.c ****     * 
 830:.\Generated_Source\PSoC4/BLE.c ****     *  \return
 831:.\Generated_Source\PSoC4/BLE.c ****     *   None
 832:.\Generated_Source\PSoC4/BLE.c ****     * 
 833:.\Generated_Source\PSoC4/BLE.c ****     *******************************************************************************/
 834:.\Generated_Source\PSoC4/BLE.c ****     void CyBle_GappStopAdvertisement(void)
 835:.\Generated_Source\PSoC4/BLE.c ****     {
 1031              		.loc 1 835 0
 1032              		.cfi_startproc
 1033 0000 80B5     		push	{r7, lr}
ARM GAS  C:\Users\ADMINI~1\AppData\Local\Temp\ccieeocD.s 			page 34


 1034              		.cfi_def_cfa_offset 8
 1035              		.cfi_offset 7, -8
 1036              		.cfi_offset 14, -4
 1037 0002 00AF     		add	r7, sp, #0
 1038              		.cfi_def_cfa_register 7
 836:.\Generated_Source\PSoC4/BLE.c ****         CyBle_GappExitDiscoveryMode();
 1039              		.loc 1 836 0
 1040 0004 FFF7FEFF 		bl	CyBle_GappExitDiscoveryMode
 837:.\Generated_Source\PSoC4/BLE.c ****         cyBle_eventHandlerFlag |= CYBLE_STOP_FLAG;
 1041              		.loc 1 837 0
 1042 0008 044B     		ldr	r3, .L49
 1043 000a 1B78     		ldrb	r3, [r3]
 1044 000c DBB2     		uxtb	r3, r3
 1045 000e 0822     		mov	r2, #8
 1046 0010 1343     		orr	r3, r2
 1047 0012 DAB2     		uxtb	r2, r3
 1048 0014 014B     		ldr	r3, .L49
 1049 0016 1A70     		strb	r2, [r3]
 838:.\Generated_Source\PSoC4/BLE.c ****     }
 1050              		.loc 1 838 0
 1051 0018 BD46     		mov	sp, r7
 1052              		@ sp needed
 1053 001a 80BD     		pop	{r7, pc}
 1054              	.L50:
 1055              		.align	2
 1056              	.L49:
 1057 001c 00000000 		.word	cyBle_eventHandlerFlag
 1058              		.cfi_endproc
 1059              	.LFE9:
 1060              		.size	CyBle_GappStopAdvertisement, .-CyBle_GappStopAdvertisement
 1061              		.section	.text.CyBle_ChangeAdDeviceAddress,"ax",%progbits
 1062              		.align	2
 1063              		.global	CyBle_ChangeAdDeviceAddress
 1064              		.code	16
 1065              		.thumb_func
 1066              		.type	CyBle_ChangeAdDeviceAddress, %function
 1067              	CyBle_ChangeAdDeviceAddress:
 1068              	.LFB10:
 839:.\Generated_Source\PSoC4/BLE.c ****     
 840:.\Generated_Source\PSoC4/BLE.c ****     
 841:.\Generated_Source\PSoC4/BLE.c ****     /******************************************************************************
 842:.\Generated_Source\PSoC4/BLE.c ****     * Function Name: CyBle_ChangeAdDeviceAddress
 843:.\Generated_Source\PSoC4/BLE.c ****     ***************************************************************************//**
 844:.\Generated_Source\PSoC4/BLE.c ****     * 
 845:.\Generated_Source\PSoC4/BLE.c ****     *  This API is used to set the Bluetooth device address into the advertisement 
 846:.\Generated_Source\PSoC4/BLE.c ****     *  or scan response data structure.
 847:.\Generated_Source\PSoC4/BLE.c ****     * 
 848:.\Generated_Source\PSoC4/BLE.c ****     *  \param bdAddr: Bluetooth Device address. The variable is of type CYBLE_GAP_BD_ADDR_T
 849:.\Generated_Source\PSoC4/BLE.c ****     *  \param dest: 0 - selects advertisement structure, not zero value selects scan 
 850:.\Generated_Source\PSoC4/BLE.c ****     *               response structure.
 851:.\Generated_Source\PSoC4/BLE.c ****     * 
 852:.\Generated_Source\PSoC4/BLE.c ****     * \return
 853:.\Generated_Source\PSoC4/BLE.c ****     *  None
 854:.\Generated_Source\PSoC4/BLE.c ****     *  
 855:.\Generated_Source\PSoC4/BLE.c ****     *******************************************************************************/
 856:.\Generated_Source\PSoC4/BLE.c ****     void CyBle_ChangeAdDeviceAddress(const CYBLE_GAP_BD_ADDR_T* bdAddr, uint8 dest)
 857:.\Generated_Source\PSoC4/BLE.c ****     {
ARM GAS  C:\Users\ADMINI~1\AppData\Local\Temp\ccieeocD.s 			page 35


 1069              		.loc 1 857 0
 1070              		.cfi_startproc
 1071 0000 80B5     		push	{r7, lr}
 1072              		.cfi_def_cfa_offset 8
 1073              		.cfi_offset 7, -8
 1074              		.cfi_offset 14, -4
 1075 0002 84B0     		sub	sp, sp, #16
 1076              		.cfi_def_cfa_offset 24
 1077 0004 00AF     		add	r7, sp, #0
 1078              		.cfi_def_cfa_register 7
 1079 0006 7860     		str	r0, [r7, #4]
 1080 0008 0A1C     		mov	r2, r1
 1081 000a FB1C     		add	r3, r7, #3
 1082 000c 1A70     		strb	r2, [r3]
 858:.\Generated_Source\PSoC4/BLE.c ****         uint8 i;
 859:.\Generated_Source\PSoC4/BLE.c ****         uint8 *destBuffer = NULL;
 1083              		.loc 1 859 0
 1084 000e 0023     		mov	r3, #0
 1085 0010 BB60     		str	r3, [r7, #8]
 860:.\Generated_Source\PSoC4/BLE.c ****         
 861:.\Generated_Source\PSoC4/BLE.c ****         if(dest == 0u)      /* Destination - advertising structure */
 862:.\Generated_Source\PSoC4/BLE.c ****         {
 863:.\Generated_Source\PSoC4/BLE.c ****             #ifdef CYBLE_ADV_PKT_INDEX_BLUETOOTH_DEVICE_ADDRESS
 864:.\Generated_Source\PSoC4/BLE.c ****                 destBuffer = &cyBle_discoveryData.advData[CYBLE_ADV_PKT_INDEX_BLUETOOTH_DEVICE_ADDR
 865:.\Generated_Source\PSoC4/BLE.c ****             #endif /* CYBLE_ADV_PKT_INDEX_BLUETOOTH_DEVICE_ADDRESS */
 866:.\Generated_Source\PSoC4/BLE.c ****         }
 867:.\Generated_Source\PSoC4/BLE.c ****         else                /* Destination - scan response structure */
 868:.\Generated_Source\PSoC4/BLE.c ****         {
 869:.\Generated_Source\PSoC4/BLE.c ****             #ifdef CYBLE_SCN_PKT_INDEX_BLUETOOTH_DEVICE_ADDRESS
 870:.\Generated_Source\PSoC4/BLE.c ****                 destBuffer = &cyBle_scanRspData.scanRspData[CYBLE_SCN_PKT_INDEX_BLUETOOTH_DEVICE_AD
 871:.\Generated_Source\PSoC4/BLE.c ****             #endif /* CYBLE_SCN_PKT_INDEX_BLUETOOTH_DEVICE_ADDRESS */    
 872:.\Generated_Source\PSoC4/BLE.c ****         }
 873:.\Generated_Source\PSoC4/BLE.c ****         
 874:.\Generated_Source\PSoC4/BLE.c ****         if(destBuffer != NULL)
 1086              		.loc 1 874 0
 1087 0012 BB68     		ldr	r3, [r7, #8]
 1088 0014 002B     		cmp	r3, #0
 1089 0016 20D0     		beq	.L51
 875:.\Generated_Source\PSoC4/BLE.c ****         {
 876:.\Generated_Source\PSoC4/BLE.c ****             /* Update Device Address type */
 877:.\Generated_Source\PSoC4/BLE.c ****             destBuffer[0u] = bdAddr->type;
 1090              		.loc 1 877 0
 1091 0018 7B68     		ldr	r3, [r7, #4]
 1092 001a 9A79     		ldrb	r2, [r3, #6]
 1093 001c BB68     		ldr	r3, [r7, #8]
 1094 001e 1A70     		strb	r2, [r3]
 878:.\Generated_Source\PSoC4/BLE.c ****             
 879:.\Generated_Source\PSoC4/BLE.c ****             for(i = 0u; i < CYBLE_GAP_BD_ADDR_SIZE; i++)
 1095              		.loc 1 879 0
 1096 0020 0F23     		mov	r3, #15
 1097 0022 FB18     		add	r3, r7, r3
 1098 0024 0022     		mov	r2, #0
 1099 0026 1A70     		strb	r2, [r3]
 1100 0028 12E0     		b	.L53
 1101              	.L54:
 880:.\Generated_Source\PSoC4/BLE.c ****             {
 881:.\Generated_Source\PSoC4/BLE.c ****                 destBuffer[i + 1u] = bdAddr->bdAddr[i];
ARM GAS  C:\Users\ADMINI~1\AppData\Local\Temp\ccieeocD.s 			page 36


 1102              		.loc 1 881 0 discriminator 3
 1103 002a 0F23     		mov	r3, #15
 1104 002c FB18     		add	r3, r7, r3
 1105 002e 1B78     		ldrb	r3, [r3]
 1106 0030 0133     		add	r3, r3, #1
 1107 0032 BA68     		ldr	r2, [r7, #8]
 1108 0034 D318     		add	r3, r2, r3
 1109 0036 0F22     		mov	r2, #15
 1110 0038 BA18     		add	r2, r7, r2
 1111 003a 1278     		ldrb	r2, [r2]
 1112 003c 7968     		ldr	r1, [r7, #4]
 1113 003e 8A5C     		ldrb	r2, [r1, r2]
 1114 0040 1A70     		strb	r2, [r3]
 879:.\Generated_Source\PSoC4/BLE.c ****             {
 1115              		.loc 1 879 0 discriminator 3
 1116 0042 0F23     		mov	r3, #15
 1117 0044 FB18     		add	r3, r7, r3
 1118 0046 1A78     		ldrb	r2, [r3]
 1119 0048 0F23     		mov	r3, #15
 1120 004a FB18     		add	r3, r7, r3
 1121 004c 0132     		add	r2, r2, #1
 1122 004e 1A70     		strb	r2, [r3]
 1123              	.L53:
 879:.\Generated_Source\PSoC4/BLE.c ****             {
 1124              		.loc 1 879 0 is_stmt 0 discriminator 1
 1125 0050 0F23     		mov	r3, #15
 1126 0052 FB18     		add	r3, r7, r3
 1127 0054 1B78     		ldrb	r3, [r3]
 1128 0056 052B     		cmp	r3, #5
 1129 0058 E7D9     		bls	.L54
 1130              	.L51:
 882:.\Generated_Source\PSoC4/BLE.c ****             }
 883:.\Generated_Source\PSoC4/BLE.c ****         }
 884:.\Generated_Source\PSoC4/BLE.c ****     }
 1131              		.loc 1 884 0 is_stmt 1
 1132 005a BD46     		mov	sp, r7
 1133 005c 04B0     		add	sp, sp, #16
 1134              		@ sp needed
 1135 005e 80BD     		pop	{r7, pc}
 1136              		.cfi_endproc
 1137              	.LFE10:
 1138              		.size	CyBle_ChangeAdDeviceAddress, .-CyBle_ChangeAdDeviceAddress
 1139              		.section	.text.CyBle_ChangeAdLocalName,"ax",%progbits
 1140              		.align	2
 1141              		.code	16
 1142              		.thumb_func
 1143              		.type	CyBle_ChangeAdLocalName, %function
 1144              	CyBle_ChangeAdLocalName:
 1145              	.LFB11:
 885:.\Generated_Source\PSoC4/BLE.c ****   
 886:.\Generated_Source\PSoC4/BLE.c **** #endif /* CYBLE_GAP_ROLE_PERIPHERAL || CYBLE_GAP_ROLE_BROADCASTER */
 887:.\Generated_Source\PSoC4/BLE.c **** 
 888:.\Generated_Source\PSoC4/BLE.c **** 
 889:.\Generated_Source\PSoC4/BLE.c **** #if(CYBLE_GAP_ROLE_CENTRAL || CYBLE_GAP_ROLE_OBSERVER)
 890:.\Generated_Source\PSoC4/BLE.c **** 
 891:.\Generated_Source\PSoC4/BLE.c ****     /******************************************************************************
 892:.\Generated_Source\PSoC4/BLE.c ****     * Function Name: CyBle_GapcStartScan
ARM GAS  C:\Users\ADMINI~1\AppData\Local\Temp\ccieeocD.s 			page 37


 893:.\Generated_Source\PSoC4/BLE.c ****     ***************************************************************************//**
 894:.\Generated_Source\PSoC4/BLE.c ****     * 
 895:.\Generated_Source\PSoC4/BLE.c ****     *   This function is used for discovering GAP peripheral devices that are 
 896:.\Generated_Source\PSoC4/BLE.c ****     *   available for connection. It performs the scanning routine using the 
 897:.\Generated_Source\PSoC4/BLE.c ****     *   parameters entered in the component's customizer.
 898:.\Generated_Source\PSoC4/BLE.c ****     *   
 899:.\Generated_Source\PSoC4/BLE.c ****     *   As soon as the discovery operation starts, CYBLE_EVT_GAPC_SCAN_START_STOP 
 900:.\Generated_Source\PSoC4/BLE.c ****     *   event is generated. The CYBLE_EVT_GAPC_SCAN_PROGRESS_RESULT event is 
 901:.\Generated_Source\PSoC4/BLE.c ****     *   generated when a GAP peripheral device is located. There are three discovery
 902:.\Generated_Source\PSoC4/BLE.c ****     *   procedures can be selected in the customizer's GUI:
 903:.\Generated_Source\PSoC4/BLE.c ****     *   
 904:.\Generated_Source\PSoC4/BLE.c ****     *   * Observation procedure: A device performing the observer role receives only
 905:.\Generated_Source\PSoC4/BLE.c ****     *                            advertisement data from devices irrespective of 
 906:.\Generated_Source\PSoC4/BLE.c ****     *                            their discoverable mode settings. Advertisement 
 907:.\Generated_Source\PSoC4/BLE.c ****     *                            data received is provided by the event,      
 908:.\Generated_Source\PSoC4/BLE.c ****     *                            CYBLE_EVT_GAPC_SCAN_PROGRESS_RESULT. This procedure
 909:.\Generated_Source\PSoC4/BLE.c ****     *                            requires the scanType sub parameter to be passive
 910:.\Generated_Source\PSoC4/BLE.c ****     *                            scanning. 
 911:.\Generated_Source\PSoC4/BLE.c ****     *   
 912:.\Generated_Source\PSoC4/BLE.c ****     *   * Limited Discovery procedure: A device performing the limited discovery
 913:.\Generated_Source\PSoC4/BLE.c ****     *                                  procedure receives advertisement data and 
 914:.\Generated_Source\PSoC4/BLE.c ****     *                                  scan# response data from devices in the 
 915:.\Generated_Source\PSoC4/BLE.c ****     *                                  limited discoverable mode only. Received data
 916:.\Generated_Source\PSoC4/BLE.c ****     *                                  is provided by the event, 
 917:.\Generated_Source\PSoC4/BLE.c ****     *                                  CYBLE_EVT_GAPC_SCAN_PROGRESS_RESULT. This 
 918:.\Generated_Source\PSoC4/BLE.c ****     *                                  procedure requires the scanType sub-parameter 
 919:.\Generated_Source\PSoC4/BLE.c ****     *                                  to be active scanning.
 920:.\Generated_Source\PSoC4/BLE.c ****     *   
 921:.\Generated_Source\PSoC4/BLE.c ****     *   * General Discovery procedure: A device performing the general discovery 
 922:.\Generated_Source\PSoC4/BLE.c ****     *                                  procedure receives the advertisement data and
 923:.\Generated_Source\PSoC4/BLE.c ****     *                                  scan response data from devices in both 
 924:.\Generated_Source\PSoC4/BLE.c ****     *                                  limited discoverable mode and the general 
 925:.\Generated_Source\PSoC4/BLE.c ****     *                                  discoverable mode. Received data is provided
 926:.\Generated_Source\PSoC4/BLE.c ****     *                                  by the event,
 927:.\Generated_Source\PSoC4/BLE.c ****     *                                  CYBLE_EVT_GAPC_SCAN_PROGRESS_RESULT. This 
 928:.\Generated_Source\PSoC4/BLE.c ****     *                                  procedure requires the scanType sub-parameter
 929:.\Generated_Source\PSoC4/BLE.c ****     *                                  to be active scanning.
 930:.\Generated_Source\PSoC4/BLE.c ****     *   
 931:.\Generated_Source\PSoC4/BLE.c ****     *   Every Advertisement / Scan response packet received results in a new event, 
 932:.\Generated_Source\PSoC4/BLE.c ****     *   CYBLE_EVT_GAPC_SCAN_PROGRESS_RESULT.
 933:.\Generated_Source\PSoC4/BLE.c ****     *   If 'scanTo' sub-parameter is a non-zero value, then upon commencement of 
 934:.\Generated_Source\PSoC4/BLE.c ****     *   discovery procedure and elapsed time = 'scanTo', CYBLE_EVT_TIMEOUT event
 935:.\Generated_Source\PSoC4/BLE.c ****     *   is generated with the event parameter indicating CYBLE_GAP_SCAN_TO.
 936:.\Generated_Source\PSoC4/BLE.c ****     *   Possible generated events are:
 937:.\Generated_Source\PSoC4/BLE.c ****     *   * CYBLE_EVT_GAPC_SCAN_START_STOP: If a device started or stopped scanning. 
 938:.\Generated_Source\PSoC4/BLE.c ****     *                                     Use CyBle_GetState() to determine the 
 939:.\Generated_Source\PSoC4/BLE.c ****     *                                     state. Sequential scanning could be 
 940:.\Generated_Source\PSoC4/BLE.c ****     *                                     started when CYBLE_STATE_DISCONNECTED 
 941:.\Generated_Source\PSoC4/BLE.c ****     *                                     state is returned. 
 942:.\Generated_Source\PSoC4/BLE.c ****     *   * CYBLE_EVT_GAPC_SCAN_PROGRESS_RESULT 
 943:.\Generated_Source\PSoC4/BLE.c ****     *   * CYBLE_EVT_TIMEOUT (CYBLE_GAP_SCAN_TO)
 944:.\Generated_Source\PSoC4/BLE.c ****     * 
 945:.\Generated_Source\PSoC4/BLE.c ****     *   \param scanningIntervalType:  Fast or slow scanning interval with
 946:.\Generated_Source\PSoC4/BLE.c ****     *       timings entered in Scan settings section of the customizer.
 947:.\Generated_Source\PSoC4/BLE.c ****     * 	  * CYBLE_SCANNING_FAST   0x00u
 948:.\Generated_Source\PSoC4/BLE.c ****     * 	  * CYBLE_SCANNING_SLOW   0x01u
 949:.\Generated_Source\PSoC4/BLE.c ****     * 	  * CYBLE_SCANNING_CUSTOM 0x02u
ARM GAS  C:\Users\ADMINI~1\AppData\Local\Temp\ccieeocD.s 			page 38


 950:.\Generated_Source\PSoC4/BLE.c ****     * 
 951:.\Generated_Source\PSoC4/BLE.c ****     * \return
 952:.\Generated_Source\PSoC4/BLE.c ****     *  CYBLE_API_RESULT_T : Return value indicates if the function succeeded or
 953:.\Generated_Source\PSoC4/BLE.c ****     *  failed. Following are the possible error codes.
 954:.\Generated_Source\PSoC4/BLE.c ****     *
 955:.\Generated_Source\PSoC4/BLE.c ****     *   Errors codes                       | Description
 956:.\Generated_Source\PSoC4/BLE.c ****     *   ---------------------------------- | -----------------------------------
 957:.\Generated_Source\PSoC4/BLE.c ****     *   CYBLE_ERROR_OK                     | On successful operation.
 958:.\Generated_Source\PSoC4/BLE.c ****     *   CYBLE_ERROR_STACK_INTERNAL         | An error occurred in the BLE stack.
 959:.\Generated_Source\PSoC4/BLE.c ****     *   CYBLE_ERROR_INVALID_PARAMETER      | On passing an invalid parameter.
 960:.\Generated_Source\PSoC4/BLE.c ****     *  
 961:.\Generated_Source\PSoC4/BLE.c ****     *******************************************************************************/
 962:.\Generated_Source\PSoC4/BLE.c ****     CYBLE_API_RESULT_T CyBle_GapcStartScan(uint8 scanningIntervalType)
 963:.\Generated_Source\PSoC4/BLE.c ****     {
 964:.\Generated_Source\PSoC4/BLE.c ****         CYBLE_API_RESULT_T apiResult;
 965:.\Generated_Source\PSoC4/BLE.c **** 
 966:.\Generated_Source\PSoC4/BLE.c ****         if(scanningIntervalType > CYBLE_SCANNING_CUSTOM)
 967:.\Generated_Source\PSoC4/BLE.c ****         {
 968:.\Generated_Source\PSoC4/BLE.c ****             apiResult = CYBLE_ERROR_INVALID_PARAMETER;
 969:.\Generated_Source\PSoC4/BLE.c ****         }
 970:.\Generated_Source\PSoC4/BLE.c ****         else
 971:.\Generated_Source\PSoC4/BLE.c ****         {
 972:.\Generated_Source\PSoC4/BLE.c ****             if(scanningIntervalType == CYBLE_SCANNING_FAST)
 973:.\Generated_Source\PSoC4/BLE.c ****             {
 974:.\Generated_Source\PSoC4/BLE.c ****                 cyBle_discoveryInfo.scanTo = CYBLE_FAST_SCAN_TIMEOUT;
 975:.\Generated_Source\PSoC4/BLE.c ****                 cyBle_discoveryInfo.scanIntv = CYBLE_FAST_SCAN_INTERVAL;
 976:.\Generated_Source\PSoC4/BLE.c ****                 cyBle_discoveryInfo.scanWindow = CYBLE_FAST_SCAN_WINDOW;
 977:.\Generated_Source\PSoC4/BLE.c ****             }
 978:.\Generated_Source\PSoC4/BLE.c ****             else if(scanningIntervalType == CYBLE_SCANNING_SLOW)
 979:.\Generated_Source\PSoC4/BLE.c ****             {
 980:.\Generated_Source\PSoC4/BLE.c ****                 cyBle_discoveryInfo.scanTo = CYBLE_SLOW_SCAN_TIMEOUT;
 981:.\Generated_Source\PSoC4/BLE.c ****                 cyBle_discoveryInfo.scanIntv = CYBLE_SLOW_SCAN_INTERVAL;
 982:.\Generated_Source\PSoC4/BLE.c ****                 cyBle_discoveryInfo.scanWindow = CYBLE_SLOW_SCAN_WINDOW;
 983:.\Generated_Source\PSoC4/BLE.c ****             }       
 984:.\Generated_Source\PSoC4/BLE.c ****             else /* Do not update scanning intervals */
 985:.\Generated_Source\PSoC4/BLE.c ****             {
 986:.\Generated_Source\PSoC4/BLE.c ****             }
 987:.\Generated_Source\PSoC4/BLE.c ****             
 988:.\Generated_Source\PSoC4/BLE.c ****             cyBle_scanningIntervalType = scanningIntervalType;
 989:.\Generated_Source\PSoC4/BLE.c ****             apiResult = CyBle_GapcStartDiscovery(&cyBle_discoveryInfo);
 990:.\Generated_Source\PSoC4/BLE.c ****         
 991:.\Generated_Source\PSoC4/BLE.c ****             if(CYBLE_ERROR_OK == apiResult)
 992:.\Generated_Source\PSoC4/BLE.c ****             {
 993:.\Generated_Source\PSoC4/BLE.c ****                 cyBle_eventHandlerFlag |= CYBLE_START_FLAG;
 994:.\Generated_Source\PSoC4/BLE.c ****             }
 995:.\Generated_Source\PSoC4/BLE.c ****         }
 996:.\Generated_Source\PSoC4/BLE.c ****        
 997:.\Generated_Source\PSoC4/BLE.c ****         return (apiResult);
 998:.\Generated_Source\PSoC4/BLE.c ****     }
 999:.\Generated_Source\PSoC4/BLE.c ****     
1000:.\Generated_Source\PSoC4/BLE.c ****     
1001:.\Generated_Source\PSoC4/BLE.c ****     /******************************************************************************
1002:.\Generated_Source\PSoC4/BLE.c ****     * Function Name: CyBle_GapcStopScan
1003:.\Generated_Source\PSoC4/BLE.c ****     ***************************************************************************//**
1004:.\Generated_Source\PSoC4/BLE.c ****     * 
1005:.\Generated_Source\PSoC4/BLE.c ****     *   This function used to stop the discovery of devices. On stopping discovery
1006:.\Generated_Source\PSoC4/BLE.c ****     *   operation, CYBLE_EVT_GAPC_SCAN_START_STOP event is generated. Application
ARM GAS  C:\Users\ADMINI~1\AppData\Local\Temp\ccieeocD.s 			page 39


1007:.\Generated_Source\PSoC4/BLE.c ****     *   layer needs to keep track of the function call made before receiving this
1008:.\Generated_Source\PSoC4/BLE.c ****     *   event to associate this event with either the start or stop discovery
1009:.\Generated_Source\PSoC4/BLE.c ****     *   function.
1010:.\Generated_Source\PSoC4/BLE.c ****     * 
1011:.\Generated_Source\PSoC4/BLE.c ****     *   Possible events generated are:
1012:.\Generated_Source\PSoC4/BLE.c ****     *    * CYBLE_EVT_GAPC_SCAN_START_STOP
1013:.\Generated_Source\PSoC4/BLE.c ****     * 
1014:.\Generated_Source\PSoC4/BLE.c ****     *  \return
1015:.\Generated_Source\PSoC4/BLE.c ****     *   None
1016:.\Generated_Source\PSoC4/BLE.c ****     * 
1017:.\Generated_Source\PSoC4/BLE.c ****     *******************************************************************************/
1018:.\Generated_Source\PSoC4/BLE.c ****     void CyBle_GapcStopScan(void)
1019:.\Generated_Source\PSoC4/BLE.c ****     {
1020:.\Generated_Source\PSoC4/BLE.c ****         CyBle_GapcStopDiscovery();
1021:.\Generated_Source\PSoC4/BLE.c ****         
1022:.\Generated_Source\PSoC4/BLE.c ****         cyBle_eventHandlerFlag |= CYBLE_STOP_FLAG;
1023:.\Generated_Source\PSoC4/BLE.c ****     }
1024:.\Generated_Source\PSoC4/BLE.c **** 
1025:.\Generated_Source\PSoC4/BLE.c ****     
1026:.\Generated_Source\PSoC4/BLE.c **** #endif /* CYBLE_GAP_ROLE_CENTRAL || CYBLE_GAP_ROLE_OBSERVER */
1027:.\Generated_Source\PSoC4/BLE.c **** 
1028:.\Generated_Source\PSoC4/BLE.c **** 
1029:.\Generated_Source\PSoC4/BLE.c **** #if(CYBLE_GAP_ROLE_CENTRAL)
1030:.\Generated_Source\PSoC4/BLE.c **** 
1031:.\Generated_Source\PSoC4/BLE.c ****     /******************************************************************************
1032:.\Generated_Source\PSoC4/BLE.c ****     * Function Name: CyBle_GapcConnectDevice
1033:.\Generated_Source\PSoC4/BLE.c ****     ***************************************************************************//**
1034:.\Generated_Source\PSoC4/BLE.c ****     * 
1035:.\Generated_Source\PSoC4/BLE.c ****     *  This function is used to send a connection request to the remote device with
1036:.\Generated_Source\PSoC4/BLE.c ****     *  the connection parameters set in the component customizer. This function needs
1037:.\Generated_Source\PSoC4/BLE.c ****     *  to be called only once after the target device is discovered by 
1038:.\Generated_Source\PSoC4/BLE.c ****     *  CyBle_GapcStartScan() and further scanning has stopped. Scanning is 
1039:.\Generated_Source\PSoC4/BLE.c ****     *  successfully stopped on invoking CyBle_GapcStopScan() and then receiving the
1040:.\Generated_Source\PSoC4/BLE.c ****     *  event CYBLE_EVT_GAPC_SCAN_START_STOP with sub-parameter 'success' = 0x01u.
1041:.\Generated_Source\PSoC4/BLE.c ****     *  
1042:.\Generated_Source\PSoC4/BLE.c ****     *  On successful connection, the following events are generated at the GAP 
1043:.\Generated_Source\PSoC4/BLE.c ****     *  Central device (as well as the GAP Peripheral device), in the following order.
1044:.\Generated_Source\PSoC4/BLE.c ****     *  * CYBLE_EVT_GATT_CONNECT_IND
1045:.\Generated_Source\PSoC4/BLE.c ****     *  * CYBLE_EVT_GAP_DEVICE_CONNECTED - If the device connects to a GAP Central and 
1046:.\Generated_Source\PSoC4/BLE.c ****     *    Link Layer Privacy is disabled in component customizer.
1047:.\Generated_Source\PSoC4/BLE.c ****     *  * CYBLE_EVT_GAP_ENHANCE_CONN_COMPLETE - If the device connects to a GAP Central and 
1048:.\Generated_Source\PSoC4/BLE.c ****     *    Link Layer Privacy is enabled in component customizer.
1049:.\Generated_Source\PSoC4/BLE.c ****     *  * CYBLE_EVT_GAP_DEVICE_CONNECTED
1050:.\Generated_Source\PSoC4/BLE.c ****     *  
1051:.\Generated_Source\PSoC4/BLE.c ****     *  A procedure is considered to have timed out if a connection response packet is 
1052:.\Generated_Source\PSoC4/BLE.c ****     *  not received within time set by cyBle_connectingTimeout global variable
1053:.\Generated_Source\PSoC4/BLE.c ****     *  (30 seconds by default). CYBLE_EVT_TIMEOUT event with CYBLE_GENERIC_TO parameter
1054:.\Generated_Source\PSoC4/BLE.c ****     *  will indicate about connection procedure timeout. Connection will automatically
1055:.\Generated_Source\PSoC4/BLE.c ****     *  be canceled and state will be changed to CYBLE_STATE_DISCONNECTED.
1056:.\Generated_Source\PSoC4/BLE.c ****     * 
1057:.\Generated_Source\PSoC4/BLE.c ****     *  \param address: The device address of the remote device to connect to. 
1058:.\Generated_Source\PSoC4/BLE.c ****     *  
1059:.\Generated_Source\PSoC4/BLE.c ****     * \return
1060:.\Generated_Source\PSoC4/BLE.c ****     *  CYBLE_API_RESULT_T : Return value indicates if the function succeeded or 
1061:.\Generated_Source\PSoC4/BLE.c ****     *  failed. Following are the possible error codes.
1062:.\Generated_Source\PSoC4/BLE.c ****     *
1063:.\Generated_Source\PSoC4/BLE.c ****     *   Errors codes                       | Description
ARM GAS  C:\Users\ADMINI~1\AppData\Local\Temp\ccieeocD.s 			page 40


1064:.\Generated_Source\PSoC4/BLE.c ****     *   ------------                       | -----------
1065:.\Generated_Source\PSoC4/BLE.c ****     *   CYBLE_ERROR_OK                     | On successful operation.
1066:.\Generated_Source\PSoC4/BLE.c ****     *   CYBLE_ERROR_STACK_INTERNAL         | On error occurred in the BLE stack.
1067:.\Generated_Source\PSoC4/BLE.c ****     *   CYBLE_ERROR_INVALID_PARAMETER      | On passing an invalid parameter.
1068:.\Generated_Source\PSoC4/BLE.c ****     *   CYBLE_ERROR_INVALID_STATE          | On calling this API not in Disconnected state.
1069:.\Generated_Source\PSoC4/BLE.c ****     *  
1070:.\Generated_Source\PSoC4/BLE.c ****     ******************************************************************************/
1071:.\Generated_Source\PSoC4/BLE.c ****     CYBLE_API_RESULT_T CyBle_GapcConnectDevice(const CYBLE_GAP_BD_ADDR_T * address)
1072:.\Generated_Source\PSoC4/BLE.c ****     {
1073:.\Generated_Source\PSoC4/BLE.c ****         CYBLE_API_RESULT_T apiResult;
1074:.\Generated_Source\PSoC4/BLE.c ****         uint8 i;
1075:.\Generated_Source\PSoC4/BLE.c **** 
1076:.\Generated_Source\PSoC4/BLE.c ****         if(CyBle_GetState() != CYBLE_STATE_DISCONNECTED)
1077:.\Generated_Source\PSoC4/BLE.c ****         {
1078:.\Generated_Source\PSoC4/BLE.c ****             apiResult = CYBLE_ERROR_INVALID_STATE;
1079:.\Generated_Source\PSoC4/BLE.c ****         }
1080:.\Generated_Source\PSoC4/BLE.c ****         else if(address == NULL)
1081:.\Generated_Source\PSoC4/BLE.c ****         {
1082:.\Generated_Source\PSoC4/BLE.c ****             apiResult = CYBLE_ERROR_INVALID_PARAMETER;
1083:.\Generated_Source\PSoC4/BLE.c ****         }
1084:.\Generated_Source\PSoC4/BLE.c ****         else
1085:.\Generated_Source\PSoC4/BLE.c ****         {
1086:.\Generated_Source\PSoC4/BLE.c ****             for(i = 0u; i < CYBLE_GAP_BD_ADDR_SIZE; i++)
1087:.\Generated_Source\PSoC4/BLE.c ****             {
1088:.\Generated_Source\PSoC4/BLE.c ****                 cyBle_connectionParameters.peerBdAddr[i] = address->bdAddr[i];
1089:.\Generated_Source\PSoC4/BLE.c ****             }
1090:.\Generated_Source\PSoC4/BLE.c ****             cyBle_connectionParameters.peerAddrType = address -> type;
1091:.\Generated_Source\PSoC4/BLE.c ****             apiResult = CyBle_GapcInitConnection(&cyBle_connectionParameters);
1092:.\Generated_Source\PSoC4/BLE.c ****             
1093:.\Generated_Source\PSoC4/BLE.c ****             if(apiResult == CYBLE_ERROR_OK)
1094:.\Generated_Source\PSoC4/BLE.c ****             {
1095:.\Generated_Source\PSoC4/BLE.c ****                 CyBle_SetState(CYBLE_STATE_CONNECTING);
1096:.\Generated_Source\PSoC4/BLE.c ****                 if(cyBle_connectingTimeout != 0u)
1097:.\Generated_Source\PSoC4/BLE.c ****                 {
1098:.\Generated_Source\PSoC4/BLE.c ****                     (void)CyBle_StartTimer(cyBle_connectingTimeout);
1099:.\Generated_Source\PSoC4/BLE.c ****                 }
1100:.\Generated_Source\PSoC4/BLE.c ****             }
1101:.\Generated_Source\PSoC4/BLE.c ****         }
1102:.\Generated_Source\PSoC4/BLE.c ****         return (apiResult);
1103:.\Generated_Source\PSoC4/BLE.c ****     }
1104:.\Generated_Source\PSoC4/BLE.c ****     
1105:.\Generated_Source\PSoC4/BLE.c **** 
1106:.\Generated_Source\PSoC4/BLE.c ****     /******************************************************************************
1107:.\Generated_Source\PSoC4/BLE.c ****     * Function Name: CyBle_GapcCancelDeviceConnection
1108:.\Generated_Source\PSoC4/BLE.c ****     ***************************************************************************//**
1109:.\Generated_Source\PSoC4/BLE.c ****     * 
1110:.\Generated_Source\PSoC4/BLE.c ****     *  This function cancels a previously initiated connection with the remote 
1111:.\Generated_Source\PSoC4/BLE.c ****     *  device. It is a blocking function. No event is generated on calling this 
1112:.\Generated_Source\PSoC4/BLE.c ****     *  function. If the devices are already connected then this function should not
1113:.\Generated_Source\PSoC4/BLE.c ****     *  be used. If you intend to disconnect from an existing connection, the function
1114:.\Generated_Source\PSoC4/BLE.c ****     *  CyBle_GapDisconnect() should be used.
1115:.\Generated_Source\PSoC4/BLE.c ****     * 
1116:.\Generated_Source\PSoC4/BLE.c ****     * \return
1117:.\Generated_Source\PSoC4/BLE.c ****     *  CYBLE_API_RESULT_T : Return value indicates if the function succeeded or 
1118:.\Generated_Source\PSoC4/BLE.c ****     *  failed. Following are the possible error codes.
1119:.\Generated_Source\PSoC4/BLE.c ****     *
1120:.\Generated_Source\PSoC4/BLE.c ****     *   Errors codes                       | Description
ARM GAS  C:\Users\ADMINI~1\AppData\Local\Temp\ccieeocD.s 			page 41


1121:.\Generated_Source\PSoC4/BLE.c ****     *   ---------------------------------- | --------------------------------------
1122:.\Generated_Source\PSoC4/BLE.c ****     *   CYBLE_ERROR_OK                     | On successful operation.
1123:.\Generated_Source\PSoC4/BLE.c ****     *   CYBLE_ERROR_STACK_INTERNAL         | An error occurred in the BLE stack.
1124:.\Generated_Source\PSoC4/BLE.c ****     *   CYBLE_ERROR_INVALID_STATE          | On calling this API not in Connecting state.
1125:.\Generated_Source\PSoC4/BLE.c ****     *  
1126:.\Generated_Source\PSoC4/BLE.c ****     *******************************************************************************/
1127:.\Generated_Source\PSoC4/BLE.c ****     CYBLE_API_RESULT_T CyBle_GapcCancelDeviceConnection(void)
1128:.\Generated_Source\PSoC4/BLE.c ****     {
1129:.\Generated_Source\PSoC4/BLE.c ****         CYBLE_API_RESULT_T apiResult;
1130:.\Generated_Source\PSoC4/BLE.c ****         
1131:.\Generated_Source\PSoC4/BLE.c ****         if(CyBle_GetState() != CYBLE_STATE_CONNECTING)
1132:.\Generated_Source\PSoC4/BLE.c ****         {
1133:.\Generated_Source\PSoC4/BLE.c ****             apiResult = CYBLE_ERROR_INVALID_STATE;
1134:.\Generated_Source\PSoC4/BLE.c ****         }
1135:.\Generated_Source\PSoC4/BLE.c ****         else 
1136:.\Generated_Source\PSoC4/BLE.c ****         {
1137:.\Generated_Source\PSoC4/BLE.c ****             apiResult = CyBle_GapcCancelConnection();
1138:.\Generated_Source\PSoC4/BLE.c ****             
1139:.\Generated_Source\PSoC4/BLE.c ****             if(cyBle_connectingTimeout != 0u)
1140:.\Generated_Source\PSoC4/BLE.c ****             {
1141:.\Generated_Source\PSoC4/BLE.c ****                 (void)CyBle_StopTimer();
1142:.\Generated_Source\PSoC4/BLE.c ****             }
1143:.\Generated_Source\PSoC4/BLE.c **** 
1144:.\Generated_Source\PSoC4/BLE.c ****             if(apiResult == CYBLE_ERROR_OK)
1145:.\Generated_Source\PSoC4/BLE.c ****             {
1146:.\Generated_Source\PSoC4/BLE.c ****                 CyBle_SetState(CYBLE_STATE_DISCONNECTED);
1147:.\Generated_Source\PSoC4/BLE.c ****             }
1148:.\Generated_Source\PSoC4/BLE.c ****         }
1149:.\Generated_Source\PSoC4/BLE.c ****         return (apiResult);
1150:.\Generated_Source\PSoC4/BLE.c ****     }    
1151:.\Generated_Source\PSoC4/BLE.c **** 
1152:.\Generated_Source\PSoC4/BLE.c ****     
1153:.\Generated_Source\PSoC4/BLE.c **** #endif /* CYBLE_GAP_ROLE_CENTRAL */
1154:.\Generated_Source\PSoC4/BLE.c **** 
1155:.\Generated_Source\PSoC4/BLE.c **** 
1156:.\Generated_Source\PSoC4/BLE.c **** #if(CYBLE_GATT_ROLE_SERVER)
1157:.\Generated_Source\PSoC4/BLE.c **** 
1158:.\Generated_Source\PSoC4/BLE.c **** #if(CYBLE_GAP_ROLE_PERIPHERAL)
1159:.\Generated_Source\PSoC4/BLE.c **** 
1160:.\Generated_Source\PSoC4/BLE.c ****         /******************************************************************************
1161:.\Generated_Source\PSoC4/BLE.c ****         * Function Name: CyBle_ChangeAdLocalName
1162:.\Generated_Source\PSoC4/BLE.c ****         ***************************************************************************//**
1163:.\Generated_Source\PSoC4/BLE.c ****         *  This API is used to set the local device name in the advertisement or scan 
1164:.\Generated_Source\PSoC4/BLE.c ****         *  response data structure.
1165:.\Generated_Source\PSoC4/BLE.c ****         * 
1166:.\Generated_Source\PSoC4/BLE.c ****         *  \param name: The local device name string to be set in advertisement data 
1167:.\Generated_Source\PSoC4/BLE.c ****         *            structure.
1168:.\Generated_Source\PSoC4/BLE.c ****         *  \param dest: 0 - advertisement structure, not zero value selects scan response
1169:.\Generated_Source\PSoC4/BLE.c ****         *              structure.
1170:.\Generated_Source\PSoC4/BLE.c ****         * 
1171:.\Generated_Source\PSoC4/BLE.c ****         * \return
1172:.\Generated_Source\PSoC4/BLE.c ****         *  None
1173:.\Generated_Source\PSoC4/BLE.c ****         *  
1174:.\Generated_Source\PSoC4/BLE.c ****         *******************************************************************************/
1175:.\Generated_Source\PSoC4/BLE.c ****         static void CyBle_ChangeAdLocalName(const char8 name[], uint8 dest)
1176:.\Generated_Source\PSoC4/BLE.c ****         {
 1146              		.loc 1 1176 0
ARM GAS  C:\Users\ADMINI~1\AppData\Local\Temp\ccieeocD.s 			page 42


 1147              		.cfi_startproc
 1148 0000 80B5     		push	{r7, lr}
 1149              		.cfi_def_cfa_offset 8
 1150              		.cfi_offset 7, -8
 1151              		.cfi_offset 14, -4
 1152 0002 86B0     		sub	sp, sp, #24
 1153              		.cfi_def_cfa_offset 32
 1154 0004 00AF     		add	r7, sp, #0
 1155              		.cfi_def_cfa_register 7
 1156 0006 7860     		str	r0, [r7, #4]
 1157 0008 0A1C     		mov	r2, r1
 1158 000a FB1C     		add	r3, r7, #3
 1159 000c 1A70     		strb	r2, [r3]
1177:.\Generated_Source\PSoC4/BLE.c ****             uint8 i;
1178:.\Generated_Source\PSoC4/BLE.c ****             uint8 flag = 0u;
 1160              		.loc 1 1178 0
 1161 000e 1623     		mov	r3, #22
 1162 0010 FB18     		add	r3, r7, r3
 1163 0012 0022     		mov	r2, #0
 1164 0014 1A70     		strb	r2, [r3]
1179:.\Generated_Source\PSoC4/BLE.c ****             uint8 adLength = 0u;
 1165              		.loc 1 1179 0
 1166 0016 1523     		mov	r3, #21
 1167 0018 FB18     		add	r3, r7, r3
 1168 001a 0022     		mov	r2, #0
 1169 001c 1A70     		strb	r2, [r3]
1180:.\Generated_Source\PSoC4/BLE.c ****             uint8 byteCounter = 0u;
 1170              		.loc 1 1180 0
 1171 001e 1423     		mov	r3, #20
 1172 0020 FB18     		add	r3, r7, r3
 1173 0022 0022     		mov	r2, #0
 1174 0024 1A70     		strb	r2, [r3]
1181:.\Generated_Source\PSoC4/BLE.c ****             uint8 *destBuffer;
1182:.\Generated_Source\PSoC4/BLE.c ****             uint8 maxLength;
1183:.\Generated_Source\PSoC4/BLE.c ****             
1184:.\Generated_Source\PSoC4/BLE.c ****             if(dest == 0u)      /* Destination - advertising structure */
 1175              		.loc 1 1184 0
 1176 0026 FB1C     		add	r3, r7, #3
 1177 0028 1B78     		ldrb	r3, [r3]
 1178 002a 002B     		cmp	r3, #0
 1179 002c 07D1     		bne	.L56
1185:.\Generated_Source\PSoC4/BLE.c ****             {
1186:.\Generated_Source\PSoC4/BLE.c ****                 destBuffer = cyBle_discoveryData.advData;
 1180              		.loc 1 1186 0
 1181 002e 5B4B     		ldr	r3, .L71
 1182 0030 3B61     		str	r3, [r7, #16]
1187:.\Generated_Source\PSoC4/BLE.c ****                 maxLength = cyBle_discoveryData.advDataLen;
 1183              		.loc 1 1187 0
 1184 0032 0F23     		mov	r3, #15
 1185 0034 FB18     		add	r3, r7, r3
 1186 0036 594A     		ldr	r2, .L71
 1187 0038 D27F     		ldrb	r2, [r2, #31]
 1188 003a 1A70     		strb	r2, [r3]
 1189 003c 06E0     		b	.L57
 1190              	.L56:
1188:.\Generated_Source\PSoC4/BLE.c ****             }
1189:.\Generated_Source\PSoC4/BLE.c ****             else                /* Destination - scan response structure */
ARM GAS  C:\Users\ADMINI~1\AppData\Local\Temp\ccieeocD.s 			page 43


1190:.\Generated_Source\PSoC4/BLE.c ****             {
1191:.\Generated_Source\PSoC4/BLE.c ****                 destBuffer = cyBle_scanRspData.scanRspData;
 1191              		.loc 1 1191 0
 1192 003e 584B     		ldr	r3, .L71+4
 1193 0040 3B61     		str	r3, [r7, #16]
1192:.\Generated_Source\PSoC4/BLE.c ****                 maxLength = cyBle_scanRspData.scanRspDataLen;
 1194              		.loc 1 1192 0
 1195 0042 0F23     		mov	r3, #15
 1196 0044 FB18     		add	r3, r7, r3
 1197 0046 564A     		ldr	r2, .L71+4
 1198 0048 D27F     		ldrb	r2, [r2, #31]
 1199 004a 1A70     		strb	r2, [r3]
 1200              	.L57:
1193:.\Generated_Source\PSoC4/BLE.c ****             }
1194:.\Generated_Source\PSoC4/BLE.c ****             
1195:.\Generated_Source\PSoC4/BLE.c ****             while((byteCounter < maxLength) && (0u == flag))
 1201              		.loc 1 1195 0
 1202 004c 35E0     		b	.L58
 1203              	.L64:
1196:.\Generated_Source\PSoC4/BLE.c ****             {
1197:.\Generated_Source\PSoC4/BLE.c ****                 adLength = destBuffer[byteCounter];
 1204              		.loc 1 1197 0
 1205 004e 1423     		mov	r3, #20
 1206 0050 FB18     		add	r3, r7, r3
 1207 0052 1B78     		ldrb	r3, [r3]
 1208 0054 3A69     		ldr	r2, [r7, #16]
 1209 0056 D218     		add	r2, r2, r3
 1210 0058 1523     		mov	r3, #21
 1211 005a FB18     		add	r3, r7, r3
 1212 005c 1278     		ldrb	r2, [r2]
 1213 005e 1A70     		strb	r2, [r3]
1198:.\Generated_Source\PSoC4/BLE.c ****                 
1199:.\Generated_Source\PSoC4/BLE.c ****                 if(0u != adLength)
 1214              		.loc 1 1199 0
 1215 0060 1523     		mov	r3, #21
 1216 0062 FB18     		add	r3, r7, r3
 1217 0064 1B78     		ldrb	r3, [r3]
 1218 0066 002B     		cmp	r3, #0
 1219 0068 26D0     		beq	.L59
1200:.\Generated_Source\PSoC4/BLE.c ****                 {
1201:.\Generated_Source\PSoC4/BLE.c ****                     /* Increment byte counter so it can point to AD type */
1202:.\Generated_Source\PSoC4/BLE.c ****                     byteCounter++;
 1220              		.loc 1 1202 0
 1221 006a 1423     		mov	r3, #20
 1222 006c FB18     		add	r3, r7, r3
 1223 006e 1A78     		ldrb	r2, [r3]
 1224 0070 1423     		mov	r3, #20
 1225 0072 FB18     		add	r3, r7, r3
 1226 0074 0132     		add	r2, r2, #1
 1227 0076 1A70     		strb	r2, [r3]
1203:.\Generated_Source\PSoC4/BLE.c ****                     
1204:.\Generated_Source\PSoC4/BLE.c ****                     if((CYBLE_SHORT_LOCAL_NAME == destBuffer[byteCounter]) || 
 1228              		.loc 1 1204 0
 1229 0078 1423     		mov	r3, #20
 1230 007a FB18     		add	r3, r7, r3
 1231 007c 1B78     		ldrb	r3, [r3]
 1232 007e 3A69     		ldr	r2, [r7, #16]
ARM GAS  C:\Users\ADMINI~1\AppData\Local\Temp\ccieeocD.s 			page 44


 1233 0080 D318     		add	r3, r2, r3
 1234 0082 1B78     		ldrb	r3, [r3]
 1235 0084 082B     		cmp	r3, #8
 1236 0086 07D0     		beq	.L60
1205:.\Generated_Source\PSoC4/BLE.c ****                        (CYBLE_COMPLETE_LOCAL_NAME == destBuffer[byteCounter]))
 1237              		.loc 1 1205 0 discriminator 1
 1238 0088 1423     		mov	r3, #20
 1239 008a FB18     		add	r3, r7, r3
 1240 008c 1B78     		ldrb	r3, [r3]
 1241 008e 3A69     		ldr	r2, [r7, #16]
 1242 0090 D318     		add	r3, r2, r3
 1243 0092 1B78     		ldrb	r3, [r3]
1204:.\Generated_Source\PSoC4/BLE.c ****                        (CYBLE_COMPLETE_LOCAL_NAME == destBuffer[byteCounter]))
 1244              		.loc 1 1204 0 discriminator 1
 1245 0094 092B     		cmp	r3, #9
 1246 0096 04D1     		bne	.L61
 1247              	.L60:
1206:.\Generated_Source\PSoC4/BLE.c ****                     {
1207:.\Generated_Source\PSoC4/BLE.c ****                         /* Start of the Local Name AD type was fount. Set flag and exit the loop. *
1208:.\Generated_Source\PSoC4/BLE.c ****                         flag = 1u;
 1248              		.loc 1 1208 0
 1249 0098 1623     		mov	r3, #22
 1250 009a FB18     		add	r3, r7, r3
 1251 009c 0122     		mov	r2, #1
 1252 009e 1A70     		strb	r2, [r3]
 1253 00a0 09E0     		b	.L62
 1254              	.L61:
1209:.\Generated_Source\PSoC4/BLE.c ****                     }
1210:.\Generated_Source\PSoC4/BLE.c ****                     else
1211:.\Generated_Source\PSoC4/BLE.c ****                     {
1212:.\Generated_Source\PSoC4/BLE.c ****                         byteCounter += adLength;
 1255              		.loc 1 1212 0
 1256 00a2 1423     		mov	r3, #20
 1257 00a4 FB18     		add	r3, r7, r3
 1258 00a6 1422     		mov	r2, #20
 1259 00a8 B918     		add	r1, r7, r2
 1260 00aa 1522     		mov	r2, #21
 1261 00ac BA18     		add	r2, r7, r2
 1262 00ae 0978     		ldrb	r1, [r1]
 1263 00b0 1278     		ldrb	r2, [r2]
 1264 00b2 8A18     		add	r2, r1, r2
 1265 00b4 1A70     		strb	r2, [r3]
 1266              	.L62:
 1267 00b6 00E0     		b	.L58
 1268              	.L59:
1213:.\Generated_Source\PSoC4/BLE.c ****                     }
1214:.\Generated_Source\PSoC4/BLE.c ****                 }
1215:.\Generated_Source\PSoC4/BLE.c ****                 else
1216:.\Generated_Source\PSoC4/BLE.c ****                 {
1217:.\Generated_Source\PSoC4/BLE.c ****                     /* The end of advertisement data structure was encountered though exit the loop
1218:.\Generated_Source\PSoC4/BLE.c ****                     break;
 1269              		.loc 1 1218 0
 1270 00b8 0CE0     		b	.L63
 1271              	.L58:
1195:.\Generated_Source\PSoC4/BLE.c ****             {
 1272              		.loc 1 1195 0
 1273 00ba 1423     		mov	r3, #20
ARM GAS  C:\Users\ADMINI~1\AppData\Local\Temp\ccieeocD.s 			page 45


 1274 00bc FA18     		add	r2, r7, r3
 1275 00be 0F23     		mov	r3, #15
 1276 00c0 FB18     		add	r3, r7, r3
 1277 00c2 1278     		ldrb	r2, [r2]
 1278 00c4 1B78     		ldrb	r3, [r3]
 1279 00c6 9A42     		cmp	r2, r3
 1280 00c8 04D2     		bcs	.L63
1195:.\Generated_Source\PSoC4/BLE.c ****             {
 1281              		.loc 1 1195 0 is_stmt 0 discriminator 1
 1282 00ca 1623     		mov	r3, #22
 1283 00cc FB18     		add	r3, r7, r3
 1284 00ce 1B78     		ldrb	r3, [r3]
 1285 00d0 002B     		cmp	r3, #0
 1286 00d2 BCD0     		beq	.L64
 1287              	.L63:
1219:.\Generated_Source\PSoC4/BLE.c ****                 }
1220:.\Generated_Source\PSoC4/BLE.c ****             }
1221:.\Generated_Source\PSoC4/BLE.c ****             
1222:.\Generated_Source\PSoC4/BLE.c ****             if(0u != flag)
 1288              		.loc 1 1222 0 is_stmt 1
 1289 00d4 1623     		mov	r3, #22
 1290 00d6 FB18     		add	r3, r7, r3
 1291 00d8 1B78     		ldrb	r3, [r3]
 1292 00da 002B     		cmp	r3, #0
 1293 00dc 5BD0     		beq	.L55
1223:.\Generated_Source\PSoC4/BLE.c ****             {
1224:.\Generated_Source\PSoC4/BLE.c ****                 /* Reuse "adLength" to hold location of the last character of local name in 
1225:.\Generated_Source\PSoC4/BLE.c ****                    AD structure. */
1226:.\Generated_Source\PSoC4/BLE.c ****                 adLength += byteCounter;
 1294              		.loc 1 1226 0
 1295 00de 1523     		mov	r3, #21
 1296 00e0 FB18     		add	r3, r7, r3
 1297 00e2 1522     		mov	r2, #21
 1298 00e4 B918     		add	r1, r7, r2
 1299 00e6 1422     		mov	r2, #20
 1300 00e8 BA18     		add	r2, r7, r2
 1301 00ea 0978     		ldrb	r1, [r1]
 1302 00ec 1278     		ldrb	r2, [r2]
 1303 00ee 8A18     		add	r2, r1, r2
 1304 00f0 1A70     		strb	r2, [r3]
1227:.\Generated_Source\PSoC4/BLE.c ****                 
1228:.\Generated_Source\PSoC4/BLE.c ****                 /* Increment byte counter to point to start of the local Name string */
1229:.\Generated_Source\PSoC4/BLE.c ****                 byteCounter++;
 1305              		.loc 1 1229 0
 1306 00f2 1423     		mov	r3, #20
 1307 00f4 FB18     		add	r3, r7, r3
 1308 00f6 1A78     		ldrb	r2, [r3]
 1309 00f8 1423     		mov	r3, #20
 1310 00fa FB18     		add	r3, r7, r3
 1311 00fc 0132     		add	r2, r2, #1
 1312 00fe 1A70     		strb	r2, [r3]
1230:.\Generated_Source\PSoC4/BLE.c ****                 
1231:.\Generated_Source\PSoC4/BLE.c ****                 for(i = byteCounter; ((i < (adLength)) && (CYBLE_NULL_CHARCTER != name[i - byteCoun
 1313              		.loc 1 1231 0
 1314 0100 1723     		mov	r3, #23
 1315 0102 FB18     		add	r3, r7, r3
 1316 0104 1422     		mov	r2, #20
ARM GAS  C:\Users\ADMINI~1\AppData\Local\Temp\ccieeocD.s 			page 46


 1317 0106 BA18     		add	r2, r7, r2
 1318 0108 1278     		ldrb	r2, [r2]
 1319 010a 1A70     		strb	r2, [r3]
 1320 010c 17E0     		b	.L66
 1321              	.L68:
1232:.\Generated_Source\PSoC4/BLE.c ****                 {
1233:.\Generated_Source\PSoC4/BLE.c ****                     destBuffer[i] = (uint8)name[i - byteCounter];
 1322              		.loc 1 1233 0 discriminator 4
 1323 010e 1723     		mov	r3, #23
 1324 0110 FB18     		add	r3, r7, r3
 1325 0112 1B78     		ldrb	r3, [r3]
 1326 0114 3A69     		ldr	r2, [r7, #16]
 1327 0116 D318     		add	r3, r2, r3
 1328 0118 1722     		mov	r2, #23
 1329 011a BA18     		add	r2, r7, r2
 1330 011c 1178     		ldrb	r1, [r2]
 1331 011e 1422     		mov	r2, #20
 1332 0120 BA18     		add	r2, r7, r2
 1333 0122 1278     		ldrb	r2, [r2]
 1334 0124 8A1A     		sub	r2, r1, r2
 1335 0126 111C     		mov	r1, r2
 1336 0128 7A68     		ldr	r2, [r7, #4]
 1337 012a 5218     		add	r2, r2, r1
 1338 012c 1278     		ldrb	r2, [r2]
 1339 012e 1A70     		strb	r2, [r3]
1231:.\Generated_Source\PSoC4/BLE.c ****                 {
 1340              		.loc 1 1231 0 discriminator 4
 1341 0130 1723     		mov	r3, #23
 1342 0132 FB18     		add	r3, r7, r3
 1343 0134 1A78     		ldrb	r2, [r3]
 1344 0136 1723     		mov	r3, #23
 1345 0138 FB18     		add	r3, r7, r3
 1346 013a 0132     		add	r2, r2, #1
 1347 013c 1A70     		strb	r2, [r3]
 1348              	.L66:
1231:.\Generated_Source\PSoC4/BLE.c ****                 {
 1349              		.loc 1 1231 0 is_stmt 0 discriminator 1
 1350 013e 1723     		mov	r3, #23
 1351 0140 FA18     		add	r2, r7, r3
 1352 0142 1523     		mov	r3, #21
 1353 0144 FB18     		add	r3, r7, r3
 1354 0146 1278     		ldrb	r2, [r2]
 1355 0148 1B78     		ldrb	r3, [r3]
 1356 014a 9A42     		cmp	r2, r3
 1357 014c 0CD2     		bcs	.L67
1231:.\Generated_Source\PSoC4/BLE.c ****                 {
 1358              		.loc 1 1231 0 discriminator 3
 1359 014e 1723     		mov	r3, #23
 1360 0150 FB18     		add	r3, r7, r3
 1361 0152 1A78     		ldrb	r2, [r3]
 1362 0154 1423     		mov	r3, #20
 1363 0156 FB18     		add	r3, r7, r3
 1364 0158 1B78     		ldrb	r3, [r3]
 1365 015a D31A     		sub	r3, r2, r3
 1366 015c 1A1C     		mov	r2, r3
 1367 015e 7B68     		ldr	r3, [r7, #4]
 1368 0160 9B18     		add	r3, r3, r2
ARM GAS  C:\Users\ADMINI~1\AppData\Local\Temp\ccieeocD.s 			page 47


 1369 0162 1B78     		ldrb	r3, [r3]
 1370 0164 002B     		cmp	r3, #0
 1371 0166 D2D1     		bne	.L68
 1372              	.L67:
1234:.\Generated_Source\PSoC4/BLE.c ****                 }
1235:.\Generated_Source\PSoC4/BLE.c ****                 
1236:.\Generated_Source\PSoC4/BLE.c ****                 /* This loop handles the case when new local name is shorted than old one.
1237:.\Generated_Source\PSoC4/BLE.c ****                    In this case all remaining characters should be null characters. */
1238:.\Generated_Source\PSoC4/BLE.c ****                 while(adLength > i)
 1373              		.loc 1 1238 0 is_stmt 1
 1374 0168 0DE0     		b	.L69
 1375              	.L70:
1239:.\Generated_Source\PSoC4/BLE.c ****                 {
1240:.\Generated_Source\PSoC4/BLE.c ****                     /* Terminate string */
1241:.\Generated_Source\PSoC4/BLE.c ****                     destBuffer[i] = (uint8)CYBLE_NULL_CHARCTER;
 1376              		.loc 1 1241 0
 1377 016a 1723     		mov	r3, #23
 1378 016c FB18     		add	r3, r7, r3
 1379 016e 1B78     		ldrb	r3, [r3]
 1380 0170 3A69     		ldr	r2, [r7, #16]
 1381 0172 D318     		add	r3, r2, r3
 1382 0174 0022     		mov	r2, #0
 1383 0176 1A70     		strb	r2, [r3]
1242:.\Generated_Source\PSoC4/BLE.c ****                     i++;
 1384              		.loc 1 1242 0
 1385 0178 1723     		mov	r3, #23
 1386 017a FB18     		add	r3, r7, r3
 1387 017c 1A78     		ldrb	r2, [r3]
 1388 017e 1723     		mov	r3, #23
 1389 0180 FB18     		add	r3, r7, r3
 1390 0182 0132     		add	r2, r2, #1
 1391 0184 1A70     		strb	r2, [r3]
 1392              	.L69:
1238:.\Generated_Source\PSoC4/BLE.c ****                 {
 1393              		.loc 1 1238 0
 1394 0186 1523     		mov	r3, #21
 1395 0188 FA18     		add	r2, r7, r3
 1396 018a 1723     		mov	r3, #23
 1397 018c FB18     		add	r3, r7, r3
 1398 018e 1278     		ldrb	r2, [r2]
 1399 0190 1B78     		ldrb	r3, [r3]
 1400 0192 9A42     		cmp	r2, r3
 1401 0194 E9D8     		bhi	.L70
 1402              	.L55:
1243:.\Generated_Source\PSoC4/BLE.c ****                 }
1244:.\Generated_Source\PSoC4/BLE.c ****             }
1245:.\Generated_Source\PSoC4/BLE.c ****         }
 1403              		.loc 1 1245 0
 1404 0196 BD46     		mov	sp, r7
 1405 0198 06B0     		add	sp, sp, #24
 1406              		@ sp needed
 1407 019a 80BD     		pop	{r7, pc}
 1408              	.L72:
 1409              		.align	2
 1410              	.L71:
 1411 019c 00000000 		.word	cyBle_discoveryData
 1412 01a0 00000000 		.word	cyBle_scanRspData
ARM GAS  C:\Users\ADMINI~1\AppData\Local\Temp\ccieeocD.s 			page 48


 1413              		.cfi_endproc
 1414              	.LFE11:
 1415              		.size	CyBle_ChangeAdLocalName, .-CyBle_ChangeAdLocalName
 1416              		.section	.text.CyBle_GapSetLocalName,"ax",%progbits
 1417              		.align	2
 1418              		.global	CyBle_GapSetLocalName
 1419              		.code	16
 1420              		.thumb_func
 1421              		.type	CyBle_GapSetLocalName, %function
 1422              	CyBle_GapSetLocalName:
 1423              	.LFB12:
1246:.\Generated_Source\PSoC4/BLE.c ****         
1247:.\Generated_Source\PSoC4/BLE.c **** #endif /* (CYBLE_GAP_ROLE_PERIPHERAL) */  
1248:.\Generated_Source\PSoC4/BLE.c ****     
1249:.\Generated_Source\PSoC4/BLE.c ****     
1250:.\Generated_Source\PSoC4/BLE.c ****     /******************************************************************************
1251:.\Generated_Source\PSoC4/BLE.c ****     * Function Name: CyBle_GapSetLocalName
1252:.\Generated_Source\PSoC4/BLE.c ****     ***************************************************************************//**
1253:.\Generated_Source\PSoC4/BLE.c ****     *  This API is used to set the local device name - a Characteristic of the 
1254:.\Generated_Source\PSoC4/BLE.c ****     *  GAP Service. If the characteristic length entered in the component customizer
1255:.\Generated_Source\PSoC4/BLE.c ****     *  is shorter than the string specified by the "name" parameter, the local device
1256:.\Generated_Source\PSoC4/BLE.c ****     *  name will be cut to the length specified in the customizer.
1257:.\Generated_Source\PSoC4/BLE.c ****     * 
1258:.\Generated_Source\PSoC4/BLE.c ****     *  \param name: The local device name string. The name string to be written as
1259:.\Generated_Source\PSoC4/BLE.c ****     *              the local device name. It represents a UTF-8 encoded User
1260:.\Generated_Source\PSoC4/BLE.c ****     *              Friendly Descriptive Name for the device. The length of the local
1261:.\Generated_Source\PSoC4/BLE.c ****     *              device string is entered into the component customizer and it can
1262:.\Generated_Source\PSoC4/BLE.c ****     *              be set to a value from 0 to 248 bytes. If the name contained in
1263:.\Generated_Source\PSoC4/BLE.c ****     *              the parameter is shorter than the length from the customizer, the
1264:.\Generated_Source\PSoC4/BLE.c ****     *              end of the name is indicated by a NULL octet (0x00).
1265:.\Generated_Source\PSoC4/BLE.c ****     * 
1266:.\Generated_Source\PSoC4/BLE.c ****     * \return
1267:.\Generated_Source\PSoC4/BLE.c ****     *  CYBLE_API_RESULT_T : Return value indicates if the function succeeded or 
1268:.\Generated_Source\PSoC4/BLE.c ****     *  failed. Following are the possible error codes.
1269:.\Generated_Source\PSoC4/BLE.c ****     *
1270:.\Generated_Source\PSoC4/BLE.c ****     *   Errors codes                       | Description
1271:.\Generated_Source\PSoC4/BLE.c ****     *   ------------                       | -----------
1272:.\Generated_Source\PSoC4/BLE.c ****     *   CYBLE_ERROR_OK                     | Function completed successfully.
1273:.\Generated_Source\PSoC4/BLE.c ****     *   CYBLE_ERROR_INVALID_PARAMETER      | On specifying NULL as input parameter
1274:.\Generated_Source\PSoC4/BLE.c ****     *  
1275:.\Generated_Source\PSoC4/BLE.c ****     *******************************************************************************/
1276:.\Generated_Source\PSoC4/BLE.c ****     CYBLE_API_RESULT_T CyBle_GapSetLocalName(const char8 name[])
1277:.\Generated_Source\PSoC4/BLE.c ****     {
 1424              		.loc 1 1277 0
 1425              		.cfi_startproc
 1426 0000 80B5     		push	{r7, lr}
 1427              		.cfi_def_cfa_offset 8
 1428              		.cfi_offset 7, -8
 1429              		.cfi_offset 14, -4
 1430 0002 86B0     		sub	sp, sp, #24
 1431              		.cfi_def_cfa_offset 32
 1432 0004 00AF     		add	r7, sp, #0
 1433              		.cfi_def_cfa_register 7
 1434 0006 7860     		str	r0, [r7, #4]
1278:.\Generated_Source\PSoC4/BLE.c ****         CYBLE_API_RESULT_T apiResult = CYBLE_ERROR_OK;
 1435              		.loc 1 1278 0
 1436 0008 1623     		mov	r3, #22
ARM GAS  C:\Users\ADMINI~1\AppData\Local\Temp\ccieeocD.s 			page 49


 1437 000a FB18     		add	r3, r7, r3
 1438 000c 0022     		mov	r2, #0
 1439 000e 1A80     		strh	r2, [r3]
1279:.\Generated_Source\PSoC4/BLE.c ****         uint8 i;
1280:.\Generated_Source\PSoC4/BLE.c ****         char8 *ptr;
1281:.\Generated_Source\PSoC4/BLE.c ****         uint8 charLen;
1282:.\Generated_Source\PSoC4/BLE.c **** 
1283:.\Generated_Source\PSoC4/BLE.c ****         if(NULL != name)
 1440              		.loc 1 1283 0
 1441 0010 7B68     		ldr	r3, [r7, #4]
 1442 0012 002B     		cmp	r3, #0
 1443 0014 4AD0     		beq	.L74
1284:.\Generated_Source\PSoC4/BLE.c ****         {
1285:.\Generated_Source\PSoC4/BLE.c ****             /* Get the pointer to the Device Name characteristic  */
1286:.\Generated_Source\PSoC4/BLE.c ****             ptr = (char8 *) CYBLE_GATT_DB_ATTR_GET_ATTR_GEN_PTR(CYBLE_GAP_DEVICE_NAME_INDEX + 1u);
 1444              		.loc 1 1286 0
 1445 0016 2B4B     		ldr	r3, .L81
 1446 0018 9B6B     		ldr	r3, [r3, #56]
 1447 001a 5B68     		ldr	r3, [r3, #4]
 1448 001c 3B61     		str	r3, [r7, #16]
1287:.\Generated_Source\PSoC4/BLE.c **** 
1288:.\Generated_Source\PSoC4/BLE.c ****             /* First need to get the maximum length of the characteristic data in the GATT
1289:.\Generated_Source\PSoC4/BLE.c ****                 database to make sure there is enough place for the data. The length
1290:.\Generated_Source\PSoC4/BLE.c ****                 can't be longer than 248, so only the LSB of 16 bit of length is to
1291:.\Generated_Source\PSoC4/BLE.c ****                 be used. */
1292:.\Generated_Source\PSoC4/BLE.c ****             charLen = (uint8)CYBLE_GATT_DB_ATTR_GET_ATTR_GEN_MAX_LEN(CYBLE_GAP_DEVICE_NAME_INDEX + 
 1449              		.loc 1 1292 0
 1450 001e 294B     		ldr	r3, .L81
 1451 0020 9A8E     		ldrh	r2, [r3, #52]
 1452 0022 0F23     		mov	r3, #15
 1453 0024 FB18     		add	r3, r7, r3
 1454 0026 1A70     		strb	r2, [r3]
1293:.\Generated_Source\PSoC4/BLE.c **** 
1294:.\Generated_Source\PSoC4/BLE.c ****             /* Copy name into characteristic */
1295:.\Generated_Source\PSoC4/BLE.c ****             for(i = 0u; ((i < charLen) && (CYBLE_NULL_CHARCTER != name[i])); i++)
 1455              		.loc 1 1295 0
 1456 0028 1523     		mov	r3, #21
 1457 002a FB18     		add	r3, r7, r3
 1458 002c 0022     		mov	r2, #0
 1459 002e 1A70     		strb	r2, [r3]
 1460 0030 12E0     		b	.L75
 1461              	.L77:
1296:.\Generated_Source\PSoC4/BLE.c ****             {
1297:.\Generated_Source\PSoC4/BLE.c ****                 ptr[i] = name[i];
 1462              		.loc 1 1297 0 discriminator 4
 1463 0032 1523     		mov	r3, #21
 1464 0034 FB18     		add	r3, r7, r3
 1465 0036 1B78     		ldrb	r3, [r3]
 1466 0038 3A69     		ldr	r2, [r7, #16]
 1467 003a D318     		add	r3, r2, r3
 1468 003c 1522     		mov	r2, #21
 1469 003e BA18     		add	r2, r7, r2
 1470 0040 1278     		ldrb	r2, [r2]
 1471 0042 7968     		ldr	r1, [r7, #4]
 1472 0044 8A18     		add	r2, r1, r2
 1473 0046 1278     		ldrb	r2, [r2]
 1474 0048 1A70     		strb	r2, [r3]
ARM GAS  C:\Users\ADMINI~1\AppData\Local\Temp\ccieeocD.s 			page 50


1295:.\Generated_Source\PSoC4/BLE.c ****             {
 1475              		.loc 1 1295 0 discriminator 4
 1476 004a 1523     		mov	r3, #21
 1477 004c FB18     		add	r3, r7, r3
 1478 004e 1A78     		ldrb	r2, [r3]
 1479 0050 1523     		mov	r3, #21
 1480 0052 FB18     		add	r3, r7, r3
 1481 0054 0132     		add	r2, r2, #1
 1482 0056 1A70     		strb	r2, [r3]
 1483              	.L75:
1295:.\Generated_Source\PSoC4/BLE.c ****             {
 1484              		.loc 1 1295 0 is_stmt 0 discriminator 1
 1485 0058 1523     		mov	r3, #21
 1486 005a FA18     		add	r2, r7, r3
 1487 005c 0F23     		mov	r3, #15
 1488 005e FB18     		add	r3, r7, r3
 1489 0060 1278     		ldrb	r2, [r2]
 1490 0062 1B78     		ldrb	r3, [r3]
 1491 0064 9A42     		cmp	r2, r3
 1492 0066 07D2     		bcs	.L76
1295:.\Generated_Source\PSoC4/BLE.c ****             {
 1493              		.loc 1 1295 0 discriminator 3
 1494 0068 1523     		mov	r3, #21
 1495 006a FB18     		add	r3, r7, r3
 1496 006c 1B78     		ldrb	r3, [r3]
 1497 006e 7A68     		ldr	r2, [r7, #4]
 1498 0070 D318     		add	r3, r2, r3
 1499 0072 1B78     		ldrb	r3, [r3]
 1500 0074 002B     		cmp	r3, #0
 1501 0076 DCD1     		bne	.L77
 1502              	.L76:
1298:.\Generated_Source\PSoC4/BLE.c ****             }
1299:.\Generated_Source\PSoC4/BLE.c **** 
1300:.\Generated_Source\PSoC4/BLE.c ****             if(i < charLen)
 1503              		.loc 1 1300 0 is_stmt 1
 1504 0078 1523     		mov	r3, #21
 1505 007a FA18     		add	r2, r7, r3
 1506 007c 0F23     		mov	r3, #15
 1507 007e FB18     		add	r3, r7, r3
 1508 0080 1278     		ldrb	r2, [r2]
 1509 0082 1B78     		ldrb	r3, [r3]
 1510 0084 9A42     		cmp	r2, r3
 1511 0086 06D2     		bcs	.L78
1301:.\Generated_Source\PSoC4/BLE.c ****             {
1302:.\Generated_Source\PSoC4/BLE.c ****                 /* Terminate string */
1303:.\Generated_Source\PSoC4/BLE.c ****                 ptr[i] = CYBLE_NULL_CHARCTER;
 1512              		.loc 1 1303 0
 1513 0088 1523     		mov	r3, #21
 1514 008a FB18     		add	r3, r7, r3
 1515 008c 1B78     		ldrb	r3, [r3]
 1516 008e 3A69     		ldr	r2, [r7, #16]
 1517 0090 D318     		add	r3, r2, r3
 1518 0092 0022     		mov	r2, #0
 1519 0094 1A70     		strb	r2, [r3]
 1520              	.L78:
1304:.\Generated_Source\PSoC4/BLE.c ****             }
1305:.\Generated_Source\PSoC4/BLE.c ****             
ARM GAS  C:\Users\ADMINI~1\AppData\Local\Temp\ccieeocD.s 			page 51


1306:.\Generated_Source\PSoC4/BLE.c ****             /* Set new actual length */
1307:.\Generated_Source\PSoC4/BLE.c ****             
1308:.\Generated_Source\PSoC4/BLE.c ****             /* Update device name in advertising and scan response structure */
1309:.\Generated_Source\PSoC4/BLE.c ****             #if(CYBLE_GAP_ROLE_PERIPHERAL)
1310:.\Generated_Source\PSoC4/BLE.c ****                 CyBle_ChangeAdLocalName(name, 0u);
 1521              		.loc 1 1310 0
 1522 0096 7B68     		ldr	r3, [r7, #4]
 1523 0098 181C     		mov	r0, r3
 1524 009a 0021     		mov	r1, #0
 1525 009c FFF7FEFF 		bl	CyBle_ChangeAdLocalName
1311:.\Generated_Source\PSoC4/BLE.c ****                 CyBle_ChangeAdLocalName(name, 1u);
 1526              		.loc 1 1311 0
 1527 00a0 7B68     		ldr	r3, [r7, #4]
 1528 00a2 181C     		mov	r0, r3
 1529 00a4 0121     		mov	r1, #1
 1530 00a6 FFF7FEFF 		bl	CyBle_ChangeAdLocalName
 1531 00aa 03E0     		b	.L79
 1532              	.L74:
1312:.\Generated_Source\PSoC4/BLE.c ****             #endif /* (CYBLE_GAP_ROLE_PERIPHERAL) */
1313:.\Generated_Source\PSoC4/BLE.c ****         }
1314:.\Generated_Source\PSoC4/BLE.c ****         else
1315:.\Generated_Source\PSoC4/BLE.c ****         {
1316:.\Generated_Source\PSoC4/BLE.c ****             apiResult = CYBLE_ERROR_INVALID_PARAMETER;
 1533              		.loc 1 1316 0
 1534 00ac 1623     		mov	r3, #22
 1535 00ae FB18     		add	r3, r7, r3
 1536 00b0 0122     		mov	r2, #1
 1537 00b2 1A80     		strh	r2, [r3]
 1538              	.L79:
1317:.\Generated_Source\PSoC4/BLE.c ****         }
1318:.\Generated_Source\PSoC4/BLE.c ****         
1319:.\Generated_Source\PSoC4/BLE.c ****         return(apiResult);
 1539              		.loc 1 1319 0
 1540 00b4 1623     		mov	r3, #22
 1541 00b6 FB18     		add	r3, r7, r3
 1542 00b8 1B88     		ldrh	r3, [r3]
1320:.\Generated_Source\PSoC4/BLE.c ****     }
 1543              		.loc 1 1320 0
 1544 00ba 181C     		mov	r0, r3
 1545 00bc BD46     		mov	sp, r7
 1546 00be 06B0     		add	sp, sp, #24
 1547              		@ sp needed
 1548 00c0 80BD     		pop	{r7, pc}
 1549              	.L82:
 1550 00c2 C046     		.align	2
 1551              	.L81:
 1552 00c4 00000000 		.word	cyBle_gattDB
 1553              		.cfi_endproc
 1554              	.LFE12:
 1555              		.size	CyBle_GapSetLocalName, .-CyBle_GapSetLocalName
 1556              		.section	.text.CyBle_GapGetLocalName,"ax",%progbits
 1557              		.align	2
 1558              		.global	CyBle_GapGetLocalName
 1559              		.code	16
 1560              		.thumb_func
 1561              		.type	CyBle_GapGetLocalName, %function
 1562              	CyBle_GapGetLocalName:
ARM GAS  C:\Users\ADMINI~1\AppData\Local\Temp\ccieeocD.s 			page 52


 1563              	.LFB13:
1321:.\Generated_Source\PSoC4/BLE.c **** 
1322:.\Generated_Source\PSoC4/BLE.c **** 
1323:.\Generated_Source\PSoC4/BLE.c ****     /******************************************************************************
1324:.\Generated_Source\PSoC4/BLE.c ****     * Function Name: CyBle_GapGetLocalName
1325:.\Generated_Source\PSoC4/BLE.c ****     ***************************************************************************//**
1326:.\Generated_Source\PSoC4/BLE.c ****     *  
1327:.\Generated_Source\PSoC4/BLE.c ****     *  This API is used to read the local device name - a Characteristic of the 
1328:.\Generated_Source\PSoC4/BLE.c ****     *  GAP Service.
1329:.\Generated_Source\PSoC4/BLE.c ****     * 
1330:.\Generated_Source\PSoC4/BLE.c ****     * \param name: The local device name string. Used to read the local name to the
1331:.\Generated_Source\PSoC4/BLE.c ****     *             given string array. It represents a UTF-8 encoded User Friendly 
1332:.\Generated_Source\PSoC4/BLE.c ****     *             Descriptive Name for the device. The length of the local device
1333:.\Generated_Source\PSoC4/BLE.c ****     *             string is entered into the component customizer and it can be set
1334:.\Generated_Source\PSoC4/BLE.c ****     *             to a value from 0 to 248 bytes. If the name contained in the
1335:.\Generated_Source\PSoC4/BLE.c ****     *             parameter is shorter than the length from the customizer, the end
1336:.\Generated_Source\PSoC4/BLE.c ****     *             of the name is indicated by a NULL octet (0x00).
1337:.\Generated_Source\PSoC4/BLE.c ****     * 
1338:.\Generated_Source\PSoC4/BLE.c ****     * \return
1339:.\Generated_Source\PSoC4/BLE.c ****     *  CYBLE_API_RESULT_T : Return value indicates if the function succeeded or 
1340:.\Generated_Source\PSoC4/BLE.c ****     *  failed. Following are the possible error codes.
1341:.\Generated_Source\PSoC4/BLE.c ****     *
1342:.\Generated_Source\PSoC4/BLE.c ****     *   Errors codes                       | Description
1343:.\Generated_Source\PSoC4/BLE.c ****     *   ------------                       | -----------
1344:.\Generated_Source\PSoC4/BLE.c ****     *   CYBLE_ERROR_OK                     | Function completed successfully.
1345:.\Generated_Source\PSoC4/BLE.c ****     *   CYBLE_ERROR_INVALID_PARAMETER      | On specifying NULL as input parameter
1346:.\Generated_Source\PSoC4/BLE.c ****     *
1347:.\Generated_Source\PSoC4/BLE.c ****     *******************************************************************************/
1348:.\Generated_Source\PSoC4/BLE.c ****     CYBLE_API_RESULT_T CyBle_GapGetLocalName(char8 name[])
1349:.\Generated_Source\PSoC4/BLE.c ****     {
 1564              		.loc 1 1349 0
 1565              		.cfi_startproc
 1566 0000 80B5     		push	{r7, lr}
 1567              		.cfi_def_cfa_offset 8
 1568              		.cfi_offset 7, -8
 1569              		.cfi_offset 14, -4
 1570 0002 86B0     		sub	sp, sp, #24
 1571              		.cfi_def_cfa_offset 32
 1572 0004 00AF     		add	r7, sp, #0
 1573              		.cfi_def_cfa_register 7
 1574 0006 7860     		str	r0, [r7, #4]
1350:.\Generated_Source\PSoC4/BLE.c ****         CYBLE_API_RESULT_T apiResult = CYBLE_ERROR_OK;
 1575              		.loc 1 1350 0
 1576 0008 1623     		mov	r3, #22
 1577 000a FB18     		add	r3, r7, r3
 1578 000c 0022     		mov	r2, #0
 1579 000e 1A80     		strh	r2, [r3]
1351:.\Generated_Source\PSoC4/BLE.c ****         uint8 charLen;
1352:.\Generated_Source\PSoC4/BLE.c ****         uint8 i;
1353:.\Generated_Source\PSoC4/BLE.c ****         char8 *ptr;
1354:.\Generated_Source\PSoC4/BLE.c **** 
1355:.\Generated_Source\PSoC4/BLE.c ****         if(NULL != name)
 1580              		.loc 1 1355 0
 1581 0010 7B68     		ldr	r3, [r7, #4]
 1582 0012 002B     		cmp	r3, #0
 1583 0014 39D0     		beq	.L84
1356:.\Generated_Source\PSoC4/BLE.c ****         {
ARM GAS  C:\Users\ADMINI~1\AppData\Local\Temp\ccieeocD.s 			page 53


1357:.\Generated_Source\PSoC4/BLE.c ****             /* Get the pointer to the Device Name characteristic  */
1358:.\Generated_Source\PSoC4/BLE.c ****             ptr = (char8 *) CYBLE_GATT_DB_ATTR_GET_ATTR_GEN_PTR(CYBLE_GAP_DEVICE_NAME_INDEX + 1u);
 1584              		.loc 1 1358 0
 1585 0016 224B     		ldr	r3, .L90
 1586 0018 9B6B     		ldr	r3, [r3, #56]
 1587 001a 5B68     		ldr	r3, [r3, #4]
 1588 001c 3B61     		str	r3, [r7, #16]
1359:.\Generated_Source\PSoC4/BLE.c **** 
1360:.\Generated_Source\PSoC4/BLE.c ****             /* First need to get the length of the characteristic data in the GATT
1361:.\Generated_Source\PSoC4/BLE.c ****                 database to make sure there is enough place for the data. The length
1362:.\Generated_Source\PSoC4/BLE.c ****                 can't be longer than 248, so only the LSB of 16 bit of length is to
1363:.\Generated_Source\PSoC4/BLE.c ****                 be used. */
1364:.\Generated_Source\PSoC4/BLE.c ****             charLen = (uint8)CYBLE_GATT_DB_ATTR_GET_ATTR_GEN_LEN(CYBLE_GAP_DEVICE_NAME_INDEX + 1u);
 1589              		.loc 1 1364 0
 1590 001e 204B     		ldr	r3, .L90
 1591 0020 9B6B     		ldr	r3, [r3, #56]
 1592 0022 1A88     		ldrh	r2, [r3]
 1593 0024 0F23     		mov	r3, #15
 1594 0026 FB18     		add	r3, r7, r3
 1595 0028 1A70     		strb	r2, [r3]
1365:.\Generated_Source\PSoC4/BLE.c **** 
1366:.\Generated_Source\PSoC4/BLE.c ****             /* Copy name from characteristic */
1367:.\Generated_Source\PSoC4/BLE.c ****             for(i = 0u; ((i < charLen) && (CYBLE_NULL_CHARCTER != ptr[i])); i++)
 1596              		.loc 1 1367 0
 1597 002a 1523     		mov	r3, #21
 1598 002c FB18     		add	r3, r7, r3
 1599 002e 0022     		mov	r2, #0
 1600 0030 1A70     		strb	r2, [r3]
 1601 0032 12E0     		b	.L85
 1602              	.L87:
1368:.\Generated_Source\PSoC4/BLE.c ****             {
1369:.\Generated_Source\PSoC4/BLE.c ****                 name[i] = ptr[i];
 1603              		.loc 1 1369 0 discriminator 4
 1604 0034 1523     		mov	r3, #21
 1605 0036 FB18     		add	r3, r7, r3
 1606 0038 1B78     		ldrb	r3, [r3]
 1607 003a 7A68     		ldr	r2, [r7, #4]
 1608 003c D318     		add	r3, r2, r3
 1609 003e 1522     		mov	r2, #21
 1610 0040 BA18     		add	r2, r7, r2
 1611 0042 1278     		ldrb	r2, [r2]
 1612 0044 3969     		ldr	r1, [r7, #16]
 1613 0046 8A18     		add	r2, r1, r2
 1614 0048 1278     		ldrb	r2, [r2]
 1615 004a 1A70     		strb	r2, [r3]
1367:.\Generated_Source\PSoC4/BLE.c ****             {
 1616              		.loc 1 1367 0 discriminator 4
 1617 004c 1523     		mov	r3, #21
 1618 004e FB18     		add	r3, r7, r3
 1619 0050 1A78     		ldrb	r2, [r3]
 1620 0052 1523     		mov	r3, #21
 1621 0054 FB18     		add	r3, r7, r3
 1622 0056 0132     		add	r2, r2, #1
 1623 0058 1A70     		strb	r2, [r3]
 1624              	.L85:
1367:.\Generated_Source\PSoC4/BLE.c ****             {
 1625              		.loc 1 1367 0 is_stmt 0 discriminator 1
ARM GAS  C:\Users\ADMINI~1\AppData\Local\Temp\ccieeocD.s 			page 54


 1626 005a 1523     		mov	r3, #21
 1627 005c FA18     		add	r2, r7, r3
 1628 005e 0F23     		mov	r3, #15
 1629 0060 FB18     		add	r3, r7, r3
 1630 0062 1278     		ldrb	r2, [r2]
 1631 0064 1B78     		ldrb	r3, [r3]
 1632 0066 9A42     		cmp	r2, r3
 1633 0068 07D2     		bcs	.L86
1367:.\Generated_Source\PSoC4/BLE.c ****             {
 1634              		.loc 1 1367 0 discriminator 3
 1635 006a 1523     		mov	r3, #21
 1636 006c FB18     		add	r3, r7, r3
 1637 006e 1B78     		ldrb	r3, [r3]
 1638 0070 3A69     		ldr	r2, [r7, #16]
 1639 0072 D318     		add	r3, r2, r3
 1640 0074 1B78     		ldrb	r3, [r3]
 1641 0076 002B     		cmp	r3, #0
 1642 0078 DCD1     		bne	.L87
 1643              	.L86:
1370:.\Generated_Source\PSoC4/BLE.c ****             }
1371:.\Generated_Source\PSoC4/BLE.c **** 
1372:.\Generated_Source\PSoC4/BLE.c ****             /* Terminate string */
1373:.\Generated_Source\PSoC4/BLE.c ****             name[i] = CYBLE_NULL_CHARCTER;
 1644              		.loc 1 1373 0 is_stmt 1
 1645 007a 1523     		mov	r3, #21
 1646 007c FB18     		add	r3, r7, r3
 1647 007e 1B78     		ldrb	r3, [r3]
 1648 0080 7A68     		ldr	r2, [r7, #4]
 1649 0082 D318     		add	r3, r2, r3
 1650 0084 0022     		mov	r2, #0
 1651 0086 1A70     		strb	r2, [r3]
 1652 0088 03E0     		b	.L88
 1653              	.L84:
1374:.\Generated_Source\PSoC4/BLE.c ****         }
1375:.\Generated_Source\PSoC4/BLE.c ****         else
1376:.\Generated_Source\PSoC4/BLE.c ****         {
1377:.\Generated_Source\PSoC4/BLE.c ****             apiResult = CYBLE_ERROR_INVALID_PARAMETER;
 1654              		.loc 1 1377 0
 1655 008a 1623     		mov	r3, #22
 1656 008c FB18     		add	r3, r7, r3
 1657 008e 0122     		mov	r2, #1
 1658 0090 1A80     		strh	r2, [r3]
 1659              	.L88:
1378:.\Generated_Source\PSoC4/BLE.c ****         }
1379:.\Generated_Source\PSoC4/BLE.c ****         
1380:.\Generated_Source\PSoC4/BLE.c ****         return(apiResult);
 1660              		.loc 1 1380 0
 1661 0092 1623     		mov	r3, #22
 1662 0094 FB18     		add	r3, r7, r3
 1663 0096 1B88     		ldrh	r3, [r3]
1381:.\Generated_Source\PSoC4/BLE.c ****     }
 1664              		.loc 1 1381 0
 1665 0098 181C     		mov	r0, r3
 1666 009a BD46     		mov	sp, r7
 1667 009c 06B0     		add	sp, sp, #24
 1668              		@ sp needed
 1669 009e 80BD     		pop	{r7, pc}
ARM GAS  C:\Users\ADMINI~1\AppData\Local\Temp\ccieeocD.s 			page 55


 1670              	.L91:
 1671              		.align	2
 1672              	.L90:
 1673 00a0 00000000 		.word	cyBle_gattDB
 1674              		.cfi_endproc
 1675              	.LFE13:
 1676              		.size	CyBle_GapGetLocalName, .-CyBle_GapGetLocalName
 1677              		.section	.text.CyBle_Get16ByPtr,"ax",%progbits
 1678              		.align	2
 1679              		.global	CyBle_Get16ByPtr
 1680              		.code	16
 1681              		.thumb_func
 1682              		.type	CyBle_Get16ByPtr, %function
 1683              	CyBle_Get16ByPtr:
 1684              	.LFB14:
1382:.\Generated_Source\PSoC4/BLE.c **** 
1383:.\Generated_Source\PSoC4/BLE.c **** #endif /* (CYBLE_GATT_ROLE_SERVER) */
1384:.\Generated_Source\PSoC4/BLE.c **** 
1385:.\Generated_Source\PSoC4/BLE.c **** 
1386:.\Generated_Source\PSoC4/BLE.c **** /******************************************************************************
1387:.\Generated_Source\PSoC4/BLE.c **** * Function Name: CyBle_Get16ByPtr
1388:.\Generated_Source\PSoC4/BLE.c **** ***************************************************************************//**
1389:.\Generated_Source\PSoC4/BLE.c **** * 
1390:.\Generated_Source\PSoC4/BLE.c **** *  Returns the two-bytes value by using a pointer to the LSB.
1391:.\Generated_Source\PSoC4/BLE.c **** * 
1392:.\Generated_Source\PSoC4/BLE.c **** *  \param ptr: Pointer to the LSB of two-bytes data (little endian).
1393:.\Generated_Source\PSoC4/BLE.c **** * 
1394:.\Generated_Source\PSoC4/BLE.c **** *  \return
1395:.\Generated_Source\PSoC4/BLE.c **** *  uint16: Two-bytes data.
1396:.\Generated_Source\PSoC4/BLE.c **** * 
1397:.\Generated_Source\PSoC4/BLE.c **** ******************************************************************************/
1398:.\Generated_Source\PSoC4/BLE.c **** uint16 CyBle_Get16ByPtr(const uint8 ptr[])
1399:.\Generated_Source\PSoC4/BLE.c **** {
 1685              		.loc 1 1399 0
 1686              		.cfi_startproc
 1687 0000 80B5     		push	{r7, lr}
 1688              		.cfi_def_cfa_offset 8
 1689              		.cfi_offset 7, -8
 1690              		.cfi_offset 14, -4
 1691 0002 82B0     		sub	sp, sp, #8
 1692              		.cfi_def_cfa_offset 16
 1693 0004 00AF     		add	r7, sp, #0
 1694              		.cfi_def_cfa_register 7
 1695 0006 7860     		str	r0, [r7, #4]
1400:.\Generated_Source\PSoC4/BLE.c ****     return ((uint16) ptr[0u] | ((uint16) (((uint16) ptr[1u]) << 8u)));
 1696              		.loc 1 1400 0
 1697 0008 7B68     		ldr	r3, [r7, #4]
 1698 000a 1B78     		ldrb	r3, [r3]
 1699 000c 9AB2     		uxth	r2, r3
 1700 000e 7B68     		ldr	r3, [r7, #4]
 1701 0010 0133     		add	r3, r3, #1
 1702 0012 1B78     		ldrb	r3, [r3]
 1703 0014 9BB2     		uxth	r3, r3
 1704 0016 1B02     		lsl	r3, r3, #8
 1705 0018 9BB2     		uxth	r3, r3
 1706 001a 1343     		orr	r3, r2
 1707 001c 9BB2     		uxth	r3, r3
ARM GAS  C:\Users\ADMINI~1\AppData\Local\Temp\ccieeocD.s 			page 56


1401:.\Generated_Source\PSoC4/BLE.c **** }
 1708              		.loc 1 1401 0
 1709 001e 181C     		mov	r0, r3
 1710 0020 BD46     		mov	sp, r7
 1711 0022 02B0     		add	sp, sp, #8
 1712              		@ sp needed
 1713 0024 80BD     		pop	{r7, pc}
 1714              		.cfi_endproc
 1715              	.LFE14:
 1716              		.size	CyBle_Get16ByPtr, .-CyBle_Get16ByPtr
 1717 0026 C046     		.section	.text.CyBle_Set16ByPtr,"ax",%progbits
 1718              		.align	2
 1719              		.global	CyBle_Set16ByPtr
 1720              		.code	16
 1721              		.thumb_func
 1722              		.type	CyBle_Set16ByPtr, %function
 1723              	CyBle_Set16ByPtr:
 1724              	.LFB15:
1402:.\Generated_Source\PSoC4/BLE.c **** 
1403:.\Generated_Source\PSoC4/BLE.c **** 
1404:.\Generated_Source\PSoC4/BLE.c **** /******************************************************************************
1405:.\Generated_Source\PSoC4/BLE.c **** * Function Name: CyBle_Set16ByPtr
1406:.\Generated_Source\PSoC4/BLE.c **** ***************************************************************************//**
1407:.\Generated_Source\PSoC4/BLE.c **** * 
1408:.\Generated_Source\PSoC4/BLE.c **** *  Sets the two-bytes value by using a pointer to the LSB.
1409:.\Generated_Source\PSoC4/BLE.c **** * 
1410:.\Generated_Source\PSoC4/BLE.c **** *  \param ptr:    Pointer to the LSB of two-bytes data (little endian).
1411:.\Generated_Source\PSoC4/BLE.c **** *  \param value:  Two-bytes data to be written.
1412:.\Generated_Source\PSoC4/BLE.c **** * 
1413:.\Generated_Source\PSoC4/BLE.c **** *  \return
1414:.\Generated_Source\PSoC4/BLE.c **** *  None
1415:.\Generated_Source\PSoC4/BLE.c **** * 
1416:.\Generated_Source\PSoC4/BLE.c **** ******************************************************************************/
1417:.\Generated_Source\PSoC4/BLE.c **** void CyBle_Set16ByPtr(uint8 ptr[], uint16 value)
1418:.\Generated_Source\PSoC4/BLE.c **** {
 1725              		.loc 1 1418 0
 1726              		.cfi_startproc
 1727 0000 80B5     		push	{r7, lr}
 1728              		.cfi_def_cfa_offset 8
 1729              		.cfi_offset 7, -8
 1730              		.cfi_offset 14, -4
 1731 0002 82B0     		sub	sp, sp, #8
 1732              		.cfi_def_cfa_offset 16
 1733 0004 00AF     		add	r7, sp, #0
 1734              		.cfi_def_cfa_register 7
 1735 0006 7860     		str	r0, [r7, #4]
 1736 0008 0A1C     		mov	r2, r1
 1737 000a BB1C     		add	r3, r7, #2
 1738 000c 1A80     		strh	r2, [r3]
1419:.\Generated_Source\PSoC4/BLE.c ****     ptr[0u] = (uint8) value;
 1739              		.loc 1 1419 0
 1740 000e BB1C     		add	r3, r7, #2
 1741 0010 1B88     		ldrh	r3, [r3]
 1742 0012 DAB2     		uxtb	r2, r3
 1743 0014 7B68     		ldr	r3, [r7, #4]
 1744 0016 1A70     		strb	r2, [r3]
1420:.\Generated_Source\PSoC4/BLE.c ****     ptr[1u] = (uint8) (value >> 8u);
ARM GAS  C:\Users\ADMINI~1\AppData\Local\Temp\ccieeocD.s 			page 57


 1745              		.loc 1 1420 0
 1746 0018 7B68     		ldr	r3, [r7, #4]
 1747 001a 0133     		add	r3, r3, #1
 1748 001c BA1C     		add	r2, r7, #2
 1749 001e 1288     		ldrh	r2, [r2]
 1750 0020 120A     		lsr	r2, r2, #8
 1751 0022 92B2     		uxth	r2, r2
 1752 0024 D2B2     		uxtb	r2, r2
 1753 0026 1A70     		strb	r2, [r3]
1421:.\Generated_Source\PSoC4/BLE.c **** }
 1754              		.loc 1 1421 0
 1755 0028 BD46     		mov	sp, r7
 1756 002a 02B0     		add	sp, sp, #8
 1757              		@ sp needed
 1758 002c 80BD     		pop	{r7, pc}
 1759              		.cfi_endproc
 1760              	.LFE15:
 1761              		.size	CyBle_Set16ByPtr, .-CyBle_Set16ByPtr
 1762 002e C046     		.text
 1763              	.Letext0:
 1764              		.file 2 ".\\Generated_Source\\PSoC4\\cytypes.h"
 1765              		.file 3 ".\\Generated_Source\\PSoC4\\BLE_Stack.h"
 1766              		.file 4 ".\\Generated_Source\\PSoC4\\BLE_StackGap.h"
 1767              		.file 5 ".\\Generated_Source\\PSoC4\\BLE_StackGatt.h"
 1768              		.file 6 ".\\Generated_Source\\PSoC4\\BLE_StackGattDb.h"
 1769              		.file 7 ".\\Generated_Source\\PSoC4\\BLE.h"
 1770              		.file 8 ".\\Generated_Source\\PSoC4\\BLE_gatt.h"
 1771              		.file 9 ".\\Generated_Source\\PSoC4\\BLE_eventHandler.h"
 1772              		.section	.debug_info,"",%progbits
 1773              	.Ldebug_info0:
 1774 0000 510D0000 		.4byte	0xd51
 1775 0004 0400     		.2byte	0x4
 1776 0006 00000000 		.4byte	.Ldebug_abbrev0
 1777 000a 04       		.byte	0x4
 1778 000b 01       		.uleb128 0x1
 1779 000c 37140000 		.4byte	.LASF241
 1780 0010 01       		.byte	0x1
 1781 0011 51060000 		.4byte	.LASF242
 1782 0015 D0150000 		.4byte	.LASF243
 1783 0019 00000000 		.4byte	.Ldebug_ranges0+0
 1784 001d 00000000 		.4byte	0
 1785 0021 00000000 		.4byte	.Ldebug_line0
 1786 0025 02       		.uleb128 0x2
 1787 0026 01       		.byte	0x1
 1788 0027 06       		.byte	0x6
 1789 0028 B5040000 		.4byte	.LASF0
 1790 002c 02       		.uleb128 0x2
 1791 002d 01       		.byte	0x1
 1792 002e 08       		.byte	0x8
 1793 002f 9E0E0000 		.4byte	.LASF1
 1794 0033 02       		.uleb128 0x2
 1795 0034 02       		.byte	0x2
 1796 0035 05       		.byte	0x5
 1797 0036 0C0F0000 		.4byte	.LASF2
 1798 003a 02       		.uleb128 0x2
 1799 003b 02       		.byte	0x2
 1800 003c 07       		.byte	0x7
ARM GAS  C:\Users\ADMINI~1\AppData\Local\Temp\ccieeocD.s 			page 58


 1801 003d 27120000 		.4byte	.LASF3
 1802 0041 02       		.uleb128 0x2
 1803 0042 04       		.byte	0x4
 1804 0043 05       		.byte	0x5
 1805 0044 91020000 		.4byte	.LASF4
 1806 0048 02       		.uleb128 0x2
 1807 0049 04       		.byte	0x4
 1808 004a 07       		.byte	0x7
 1809 004b F8080000 		.4byte	.LASF5
 1810 004f 02       		.uleb128 0x2
 1811 0050 08       		.byte	0x8
 1812 0051 05       		.byte	0x5
 1813 0052 7C060000 		.4byte	.LASF6
 1814 0056 02       		.uleb128 0x2
 1815 0057 08       		.byte	0x8
 1816 0058 07       		.byte	0x7
 1817 0059 02080000 		.4byte	.LASF7
 1818 005d 03       		.uleb128 0x3
 1819 005e 04       		.byte	0x4
 1820 005f 05       		.byte	0x5
 1821 0060 696E7400 		.ascii	"int\000"
 1822 0064 02       		.uleb128 0x2
 1823 0065 04       		.byte	0x4
 1824 0066 07       		.byte	0x7
 1825 0067 10110000 		.4byte	.LASF8
 1826 006b 04       		.uleb128 0x4
 1827 006c A9090000 		.4byte	.LASF9
 1828 0070 02       		.byte	0x2
 1829 0071 3801     		.2byte	0x138
 1830 0073 2C000000 		.4byte	0x2c
 1831 0077 04       		.uleb128 0x4
 1832 0078 AC0E0000 		.4byte	.LASF10
 1833 007c 02       		.byte	0x2
 1834 007d 3901     		.2byte	0x139
 1835 007f 3A000000 		.4byte	0x3a
 1836 0083 04       		.uleb128 0x4
 1837 0084 4E070000 		.4byte	.LASF11
 1838 0088 02       		.byte	0x2
 1839 0089 3A01     		.2byte	0x13a
 1840 008b 48000000 		.4byte	0x48
 1841 008f 02       		.uleb128 0x2
 1842 0090 04       		.byte	0x4
 1843 0091 04       		.byte	0x4
 1844 0092 D50D0000 		.4byte	.LASF12
 1845 0096 02       		.uleb128 0x2
 1846 0097 08       		.byte	0x8
 1847 0098 04       		.byte	0x4
 1848 0099 CF060000 		.4byte	.LASF13
 1849 009d 04       		.uleb128 0x4
 1850 009e 76110000 		.4byte	.LASF14
 1851 00a2 02       		.byte	0x2
 1852 00a3 4901     		.2byte	0x149
 1853 00a5 A9000000 		.4byte	0xa9
 1854 00a9 02       		.uleb128 0x2
 1855 00aa 01       		.byte	0x1
 1856 00ab 08       		.byte	0x8
 1857 00ac A8100000 		.4byte	.LASF15
ARM GAS  C:\Users\ADMINI~1\AppData\Local\Temp\ccieeocD.s 			page 59


 1858 00b0 05       		.uleb128 0x5
 1859 00b1 6B000000 		.4byte	0x6b
 1860 00b5 02       		.uleb128 0x2
 1861 00b6 04       		.byte	0x4
 1862 00b7 07       		.byte	0x7
 1863 00b8 1A0C0000 		.4byte	.LASF16
 1864 00bc 06       		.uleb128 0x6
 1865 00bd 04       		.byte	0x4
 1866 00be 07       		.uleb128 0x7
 1867 00bf 01       		.byte	0x1
 1868 00c0 03       		.byte	0x3
 1869 00c1 4201     		.2byte	0x142
 1870 00c3 7B020000 		.4byte	0x27b
 1871 00c7 08       		.uleb128 0x8
 1872 00c8 D4090000 		.4byte	.LASF17
 1873 00cc 00       		.sleb128 0
 1874 00cd 08       		.uleb128 0x8
 1875 00ce C1040000 		.4byte	.LASF18
 1876 00d2 01       		.sleb128 1
 1877 00d3 08       		.uleb128 0x8
 1878 00d4 7F020000 		.4byte	.LASF19
 1879 00d8 02       		.sleb128 2
 1880 00d9 08       		.uleb128 0x8
 1881 00da 0E120000 		.4byte	.LASF20
 1882 00de 03       		.sleb128 3
 1883 00df 08       		.uleb128 0x8
 1884 00e0 50030000 		.4byte	.LASF21
 1885 00e4 04       		.sleb128 4
 1886 00e5 08       		.uleb128 0x8
 1887 00e6 23000000 		.4byte	.LASF22
 1888 00ea 05       		.sleb128 5
 1889 00eb 08       		.uleb128 0x8
 1890 00ec 090A0000 		.4byte	.LASF23
 1891 00f0 06       		.sleb128 6
 1892 00f1 08       		.uleb128 0x8
 1893 00f2 7E0B0000 		.4byte	.LASF24
 1894 00f6 20       		.sleb128 32
 1895 00f7 08       		.uleb128 0x8
 1896 00f8 34050000 		.4byte	.LASF25
 1897 00fc 21       		.sleb128 33
 1898 00fd 08       		.uleb128 0x8
 1899 00fe 300A0000 		.4byte	.LASF26
 1900 0102 22       		.sleb128 34
 1901 0103 08       		.uleb128 0x8
 1902 0104 F90A0000 		.4byte	.LASF27
 1903 0108 23       		.sleb128 35
 1904 0109 08       		.uleb128 0x8
 1905 010a DF0C0000 		.4byte	.LASF28
 1906 010e 24       		.sleb128 36
 1907 010f 08       		.uleb128 0x8
 1908 0110 480C0000 		.4byte	.LASF29
 1909 0114 25       		.sleb128 37
 1910 0115 08       		.uleb128 0x8
 1911 0116 E8050000 		.4byte	.LASF30
 1912 011a 26       		.sleb128 38
 1913 011b 08       		.uleb128 0x8
 1914 011c 540A0000 		.4byte	.LASF31
ARM GAS  C:\Users\ADMINI~1\AppData\Local\Temp\ccieeocD.s 			page 60


 1915 0120 27       		.sleb128 39
 1916 0121 08       		.uleb128 0x8
 1917 0122 D6100000 		.4byte	.LASF32
 1918 0126 28       		.sleb128 40
 1919 0127 08       		.uleb128 0x8
 1920 0128 12040000 		.4byte	.LASF33
 1921 012c 29       		.sleb128 41
 1922 012d 08       		.uleb128 0x8
 1923 012e 17010000 		.4byte	.LASF34
 1924 0132 2A       		.sleb128 42
 1925 0133 08       		.uleb128 0x8
 1926 0134 6D030000 		.4byte	.LASF35
 1927 0138 2B       		.sleb128 43
 1928 0139 08       		.uleb128 0x8
 1929 013a 0B150000 		.4byte	.LASF36
 1930 013e 2C       		.sleb128 44
 1931 013f 08       		.uleb128 0x8
 1932 0140 2F040000 		.4byte	.LASF37
 1933 0144 2D       		.sleb128 45
 1934 0145 08       		.uleb128 0x8
 1935 0146 B30E0000 		.4byte	.LASF38
 1936 014a 2E       		.sleb128 46
 1937 014b 08       		.uleb128 0x8
 1938 014c CE010000 		.4byte	.LASF39
 1939 0150 2F       		.sleb128 47
 1940 0151 08       		.uleb128 0x8
 1941 0152 AE0C0000 		.4byte	.LASF40
 1942 0156 30       		.sleb128 48
 1943 0157 08       		.uleb128 0x8
 1944 0158 AC150000 		.4byte	.LASF41
 1945 015c 31       		.sleb128 49
 1946 015d 08       		.uleb128 0x8
 1947 015e 8D0C0000 		.4byte	.LASF42
 1948 0162 32       		.sleb128 50
 1949 0163 08       		.uleb128 0x8
 1950 0164 D4000000 		.4byte	.LASF43
 1951 0168 33       		.sleb128 51
 1952 0169 08       		.uleb128 0x8
 1953 016a 8B070000 		.4byte	.LASF44
 1954 016e C000     		.sleb128 64
 1955 0170 08       		.uleb128 0x8
 1956 0171 1F0B0000 		.4byte	.LASF45
 1957 0175 C100     		.sleb128 65
 1958 0177 08       		.uleb128 0x8
 1959 0178 29160000 		.4byte	.LASF46
 1960 017c C200     		.sleb128 66
 1961 017e 08       		.uleb128 0x8
 1962 017f 33060000 		.4byte	.LASF47
 1963 0183 C300     		.sleb128 67
 1964 0185 08       		.uleb128 0x8
 1965 0186 24090000 		.4byte	.LASF48
 1966 018a C400     		.sleb128 68
 1967 018c 08       		.uleb128 0x8
 1968 018d AE0D0000 		.4byte	.LASF49
 1969 0191 C500     		.sleb128 69
 1970 0193 08       		.uleb128 0x8
 1971 0194 E10B0000 		.4byte	.LASF50
ARM GAS  C:\Users\ADMINI~1\AppData\Local\Temp\ccieeocD.s 			page 61


 1972 0198 C600     		.sleb128 70
 1973 019a 08       		.uleb128 0x8
 1974 019b EB090000 		.4byte	.LASF51
 1975 019f C700     		.sleb128 71
 1976 01a1 08       		.uleb128 0x8
 1977 01a2 C5140000 		.4byte	.LASF52
 1978 01a6 C800     		.sleb128 72
 1979 01a8 08       		.uleb128 0x8
 1980 01a9 56050000 		.4byte	.LASF53
 1981 01ad C900     		.sleb128 73
 1982 01af 08       		.uleb128 0x8
 1983 01b0 4C130000 		.4byte	.LASF54
 1984 01b4 CA00     		.sleb128 74
 1985 01b6 08       		.uleb128 0x8
 1986 01b7 F7010000 		.4byte	.LASF55
 1987 01bb CB00     		.sleb128 75
 1988 01bd 08       		.uleb128 0x8
 1989 01be 0A090000 		.4byte	.LASF56
 1990 01c2 CC00     		.sleb128 76
 1991 01c4 08       		.uleb128 0x8
 1992 01c5 730C0000 		.4byte	.LASF57
 1993 01c9 CD00     		.sleb128 77
 1994 01cb 08       		.uleb128 0x8
 1995 01cc 99050000 		.4byte	.LASF58
 1996 01d0 CE00     		.sleb128 78
 1997 01d2 08       		.uleb128 0x8
 1998 01d3 A00F0000 		.4byte	.LASF59
 1999 01d7 CF00     		.sleb128 79
 2000 01d9 08       		.uleb128 0x8
 2001 01da 16020000 		.4byte	.LASF60
 2002 01de D000     		.sleb128 80
 2003 01e0 08       		.uleb128 0x8
 2004 01e1 91060000 		.4byte	.LASF61
 2005 01e5 D100     		.sleb128 81
 2006 01e7 08       		.uleb128 0x8
 2007 01e8 230D0000 		.4byte	.LASF62
 2008 01ec D200     		.sleb128 82
 2009 01ee 08       		.uleb128 0x8
 2010 01ef 160F0000 		.4byte	.LASF63
 2011 01f3 D300     		.sleb128 83
 2012 01f5 08       		.uleb128 0x8
 2013 01f6 22100000 		.4byte	.LASF64
 2014 01fa D400     		.sleb128 84
 2015 01fc 08       		.uleb128 0x8
 2016 01fd 42090000 		.4byte	.LASF65
 2017 0201 D500     		.sleb128 85
 2018 0203 08       		.uleb128 0x8
 2019 0204 42080000 		.4byte	.LASF66
 2020 0208 D600     		.sleb128 86
 2021 020a 08       		.uleb128 0x8
 2022 020b 2A110000 		.4byte	.LASF67
 2023 020f D700     		.sleb128 87
 2024 0211 08       		.uleb128 0x8
 2025 0212 1F080000 		.4byte	.LASF68
 2026 0216 D800     		.sleb128 88
 2027 0218 08       		.uleb128 0x8
 2028 0219 A5070000 		.4byte	.LASF69
ARM GAS  C:\Users\ADMINI~1\AppData\Local\Temp\ccieeocD.s 			page 62


 2029 021d F000     		.sleb128 112
 2030 021f 08       		.uleb128 0x8
 2031 0220 72150000 		.4byte	.LASF70
 2032 0224 F100     		.sleb128 113
 2033 0226 08       		.uleb128 0x8
 2034 0227 620B0000 		.4byte	.LASF71
 2035 022b F200     		.sleb128 114
 2036 022d 08       		.uleb128 0x8
 2037 022e 3D0E0000 		.4byte	.LASF72
 2038 0232 F300     		.sleb128 115
 2039 0234 08       		.uleb128 0x8
 2040 0235 7D0D0000 		.4byte	.LASF73
 2041 0239 F400     		.sleb128 116
 2042 023b 08       		.uleb128 0x8
 2043 023c D6060000 		.4byte	.LASF74
 2044 0240 F500     		.sleb128 117
 2045 0242 08       		.uleb128 0x8
 2046 0243 4E010000 		.4byte	.LASF75
 2047 0247 F600     		.sleb128 118
 2048 0249 08       		.uleb128 0x8
 2049 024a 53000000 		.4byte	.LASF76
 2050 024e F700     		.sleb128 119
 2051 0250 08       		.uleb128 0x8
 2052 0251 00000000 		.4byte	.LASF77
 2053 0255 F800     		.sleb128 120
 2054 0257 08       		.uleb128 0x8
 2055 0258 58040000 		.4byte	.LASF78
 2056 025c F900     		.sleb128 121
 2057 025e 08       		.uleb128 0x8
 2058 025f CB070000 		.4byte	.LASF79
 2059 0263 FA00     		.sleb128 122
 2060 0265 08       		.uleb128 0x8
 2061 0266 49150000 		.4byte	.LASF80
 2062 026a FA01     		.sleb128 250
 2063 026c 08       		.uleb128 0x8
 2064 026d 530F0000 		.4byte	.LASF81
 2065 0271 FB01     		.sleb128 251
 2066 0273 08       		.uleb128 0x8
 2067 0274 6E070000 		.4byte	.LASF82
 2068 0278 FF01     		.sleb128 255
 2069 027a 00       		.byte	0
 2070 027b 07       		.uleb128 0x7
 2071 027c 02       		.byte	0x2
 2072 027d 03       		.byte	0x3
 2073 027e FF02     		.2byte	0x2ff
 2074 0280 4B030000 		.4byte	0x34b
 2075 0284 08       		.uleb128 0x8
 2076 0285 7C070000 		.4byte	.LASF83
 2077 0289 00       		.sleb128 0
 2078 028a 08       		.uleb128 0x8
 2079 028b 00070000 		.4byte	.LASF84
 2080 028f 01       		.sleb128 1
 2081 0290 08       		.uleb128 0x8
 2082 0291 4B120000 		.4byte	.LASF85
 2083 0295 02       		.sleb128 2
 2084 0296 08       		.uleb128 0x8
 2085 0297 98000000 		.4byte	.LASF86
ARM GAS  C:\Users\ADMINI~1\AppData\Local\Temp\ccieeocD.s 			page 63


 2086 029b 03       		.sleb128 3
 2087 029c 08       		.uleb128 0x8
 2088 029d 2D030000 		.4byte	.LASF87
 2089 02a1 04       		.sleb128 4
 2090 02a2 08       		.uleb128 0x8
 2091 02a3 7A080000 		.4byte	.LASF88
 2092 02a7 05       		.sleb128 5
 2093 02a8 08       		.uleb128 0x8
 2094 02a9 770F0000 		.4byte	.LASF89
 2095 02ad 06       		.sleb128 6
 2096 02ae 08       		.uleb128 0x8
 2097 02af F6040000 		.4byte	.LASF90
 2098 02b3 07       		.sleb128 7
 2099 02b4 08       		.uleb128 0x8
 2100 02b5 43100000 		.4byte	.LASF91
 2101 02b9 08       		.sleb128 8
 2102 02ba 08       		.uleb128 0x8
 2103 02bb EC140000 		.4byte	.LASF92
 2104 02bf 09       		.sleb128 9
 2105 02c0 08       		.uleb128 0x8
 2106 02c1 6E0E0000 		.4byte	.LASF93
 2107 02c5 0A       		.sleb128 10
 2108 02c6 08       		.uleb128 0x8
 2109 02c7 AD100000 		.4byte	.LASF94
 2110 02cb 0B       		.sleb128 11
 2111 02cc 08       		.uleb128 0x8
 2112 02cd D7030000 		.4byte	.LASF95
 2113 02d1 0C       		.sleb128 12
 2114 02d2 08       		.uleb128 0x8
 2115 02d3 08030000 		.4byte	.LASF96
 2116 02d7 0D       		.sleb128 13
 2117 02d8 08       		.uleb128 0x8
 2118 02d9 BF080000 		.4byte	.LASF97
 2119 02dd 0E       		.sleb128 14
 2120 02de 08       		.uleb128 0x8
 2121 02df E2130000 		.4byte	.LASF98
 2122 02e3 0F       		.sleb128 15
 2123 02e4 08       		.uleb128 0x8
 2124 02e5 A1110000 		.4byte	.LASF99
 2125 02e9 10       		.sleb128 16
 2126 02ea 08       		.uleb128 0x8
 2127 02eb EE030000 		.4byte	.LASF100
 2128 02ef 11       		.sleb128 17
 2129 02f0 08       		.uleb128 0x8
 2130 02f1 10060000 		.4byte	.LASF101
 2131 02f5 12       		.sleb128 18
 2132 02f6 08       		.uleb128 0x8
 2133 02f7 47160000 		.4byte	.LASF102
 2134 02fb 13       		.sleb128 19
 2135 02fc 08       		.uleb128 0x8
 2136 02fd D4040000 		.4byte	.LASF103
 2137 0301 27       		.sleb128 39
 2138 0302 08       		.uleb128 0x8
 2139 0303 7C110000 		.4byte	.LASF104
 2140 0307 28       		.sleb128 40
 2141 0308 08       		.uleb128 0x8
 2142 0309 AD130000 		.4byte	.LASF105
ARM GAS  C:\Users\ADMINI~1\AppData\Local\Temp\ccieeocD.s 			page 64


 2143 030d 29       		.sleb128 41
 2144 030e 08       		.uleb128 0x8
 2145 030f 9A020000 		.4byte	.LASF106
 2146 0313 2A       		.sleb128 42
 2147 0314 08       		.uleb128 0x8
 2148 0315 6F010000 		.4byte	.LASF107
 2149 0319 2B       		.sleb128 43
 2150 031a 08       		.uleb128 0x8
 2151 031b C90B0000 		.4byte	.LASF108
 2152 031f 2C       		.sleb128 44
 2153 0320 08       		.uleb128 0x8
 2154 0321 FB000000 		.4byte	.LASF109
 2155 0325 FE01     		.sleb128 254
 2156 0327 08       		.uleb128 0x8
 2157 0328 B90B0000 		.4byte	.LASF110
 2158 032c FF01     		.sleb128 255
 2159 032e 08       		.uleb128 0x8
 2160 032f BB090000 		.4byte	.LASF111
 2161 0333 8002     		.sleb128 256
 2162 0335 08       		.uleb128 0x8
 2163 0336 440D0000 		.4byte	.LASF112
 2164 033a 8102     		.sleb128 257
 2165 033c 08       		.uleb128 0x8
 2166 033d E90E0000 		.4byte	.LASF113
 2167 0341 8202     		.sleb128 258
 2168 0343 08       		.uleb128 0x8
 2169 0344 6F050000 		.4byte	.LASF114
 2170 0348 8302     		.sleb128 259
 2171 034a 00       		.byte	0
 2172 034b 04       		.uleb128 0x4
 2173 034c 050D0000 		.4byte	.LASF115
 2174 0350 03       		.byte	0x3
 2175 0351 6B03     		.2byte	0x36b
 2176 0353 7B020000 		.4byte	0x27b
 2177 0357 09       		.uleb128 0x9
 2178 0358 07       		.byte	0x7
 2179 0359 03       		.byte	0x3
 2180 035a 2804     		.2byte	0x428
 2181 035c 7B030000 		.4byte	0x37b
 2182 0360 0A       		.uleb128 0xa
 2183 0361 8A060000 		.4byte	.LASF116
 2184 0365 03       		.byte	0x3
 2185 0366 2B04     		.2byte	0x42b
 2186 0368 7B030000 		.4byte	0x37b
 2187 036c 00       		.byte	0
 2188 036d 0A       		.uleb128 0xa
 2189 036e 70020000 		.4byte	.LASF117
 2190 0372 03       		.byte	0x3
 2191 0373 2D04     		.2byte	0x42d
 2192 0375 6B000000 		.4byte	0x6b
 2193 0379 06       		.byte	0x6
 2194 037a 00       		.byte	0
 2195 037b 0B       		.uleb128 0xb
 2196 037c 6B000000 		.4byte	0x6b
 2197 0380 8B030000 		.4byte	0x38b
 2198 0384 0C       		.uleb128 0xc
 2199 0385 B5000000 		.4byte	0xb5
ARM GAS  C:\Users\ADMINI~1\AppData\Local\Temp\ccieeocD.s 			page 65


 2200 0389 05       		.byte	0x5
 2201 038a 00       		.byte	0
 2202 038b 04       		.uleb128 0x4
 2203 038c C3030000 		.4byte	.LASF118
 2204 0390 03       		.byte	0x3
 2205 0391 2E04     		.2byte	0x42e
 2206 0393 57030000 		.4byte	0x357
 2207 0397 09       		.uleb128 0x9
 2208 0398 04       		.byte	0x4
 2209 0399 03       		.byte	0x3
 2210 039a 3804     		.2byte	0x438
 2211 039c BB030000 		.4byte	0x3bb
 2212 03a0 0A       		.uleb128 0xa
 2213 03a1 53110000 		.4byte	.LASF119
 2214 03a5 03       		.byte	0x3
 2215 03a6 3B04     		.2byte	0x43b
 2216 03a8 77000000 		.4byte	0x77
 2217 03ac 00       		.byte	0
 2218 03ad 0A       		.uleb128 0xa
 2219 03ae AF090000 		.4byte	.LASF120
 2220 03b2 03       		.byte	0x3
 2221 03b3 3D04     		.2byte	0x43d
 2222 03b5 6B000000 		.4byte	0x6b
 2223 03b9 02       		.byte	0x2
 2224 03ba 00       		.byte	0
 2225 03bb 04       		.uleb128 0x4
 2226 03bc 3A0B0000 		.4byte	.LASF121
 2227 03c0 03       		.byte	0x3
 2228 03c1 3E04     		.2byte	0x43e
 2229 03c3 97030000 		.4byte	0x397
 2230 03c7 09       		.uleb128 0x9
 2231 03c8 06       		.byte	0x6
 2232 03c9 03       		.byte	0x3
 2233 03ca 4204     		.2byte	0x442
 2234 03cc F8030000 		.4byte	0x3f8
 2235 03d0 0A       		.uleb128 0xa
 2236 03d1 5D020000 		.4byte	.LASF122
 2237 03d5 03       		.byte	0x3
 2238 03d6 4504     		.2byte	0x445
 2239 03d8 77000000 		.4byte	0x77
 2240 03dc 00       		.byte	0
 2241 03dd 0A       		.uleb128 0xa
 2242 03de 5B0E0000 		.4byte	.LASF123
 2243 03e2 03       		.byte	0x3
 2244 03e3 4804     		.2byte	0x448
 2245 03e5 77000000 		.4byte	0x77
 2246 03e9 02       		.byte	0x2
 2247 03ea 0A       		.uleb128 0xa
 2248 03eb 920A0000 		.4byte	.LASF124
 2249 03ef 03       		.byte	0x3
 2250 03f0 4B04     		.2byte	0x44b
 2251 03f2 6B000000 		.4byte	0x6b
 2252 03f6 04       		.byte	0x4
 2253 03f7 00       		.byte	0
 2254 03f8 04       		.uleb128 0x4
 2255 03f9 C9130000 		.4byte	.LASF125
 2256 03fd 03       		.byte	0x3
ARM GAS  C:\Users\ADMINI~1\AppData\Local\Temp\ccieeocD.s 			page 66


 2257 03fe 4C04     		.2byte	0x44c
 2258 0400 C7030000 		.4byte	0x3c7
 2259 0404 09       		.uleb128 0x9
 2260 0405 01       		.byte	0x1
 2261 0406 03       		.byte	0x3
 2262 0407 4F04     		.2byte	0x44f
 2263 0409 1B040000 		.4byte	0x41b
 2264 040d 0A       		.uleb128 0xa
 2265 040e 6F160000 		.4byte	.LASF126
 2266 0412 03       		.byte	0x3
 2267 0413 5204     		.2byte	0x452
 2268 0415 6B000000 		.4byte	0x6b
 2269 0419 00       		.byte	0
 2270 041a 00       		.byte	0
 2271 041b 04       		.uleb128 0x4
 2272 041c B7020000 		.4byte	.LASF127
 2273 0420 03       		.byte	0x3
 2274 0421 5304     		.2byte	0x453
 2275 0423 04040000 		.4byte	0x404
 2276 0427 09       		.uleb128 0x9
 2277 0428 0C       		.byte	0xc
 2278 0429 03       		.byte	0x3
 2279 042a 5904     		.2byte	0x459
 2280 042c 58040000 		.4byte	0x458
 2281 0430 0A       		.uleb128 0xa
 2282 0431 01150000 		.4byte	.LASF128
 2283 0435 03       		.byte	0x3
 2284 0436 5C04     		.2byte	0x45c
 2285 0438 58040000 		.4byte	0x458
 2286 043c 00       		.byte	0
 2287 043d 0A       		.uleb128 0xa
 2288 043e 69120000 		.4byte	.LASF129
 2289 0442 03       		.byte	0x3
 2290 0443 5F04     		.2byte	0x45f
 2291 0445 5E040000 		.4byte	0x45e
 2292 0449 04       		.byte	0x4
 2293 044a 0A       		.uleb128 0xa
 2294 044b FD0F0000 		.4byte	.LASF130
 2295 044f 03       		.byte	0x3
 2296 0450 6504     		.2byte	0x465
 2297 0452 77000000 		.4byte	0x77
 2298 0456 08       		.byte	0x8
 2299 0457 00       		.byte	0
 2300 0458 0D       		.uleb128 0xd
 2301 0459 04       		.byte	0x4
 2302 045a F8030000 		.4byte	0x3f8
 2303 045e 0D       		.uleb128 0xd
 2304 045f 04       		.byte	0x4
 2305 0460 1B040000 		.4byte	0x41b
 2306 0464 04       		.uleb128 0x4
 2307 0465 CF110000 		.4byte	.LASF131
 2308 0469 03       		.byte	0x3
 2309 046a 6604     		.2byte	0x466
 2310 046c 27040000 		.4byte	0x427
 2311 0470 0E       		.uleb128 0xe
 2312 0471 01       		.byte	0x1
 2313 0472 04       		.byte	0x4
ARM GAS  C:\Users\ADMINI~1\AppData\Local\Temp\ccieeocD.s 			page 67


 2314 0473 D0       		.byte	0xd0
 2315 0474 97040000 		.4byte	0x497
 2316 0478 08       		.uleb128 0x8
 2317 0479 9D030000 		.4byte	.LASF132
 2318 047d 00       		.sleb128 0
 2319 047e 08       		.uleb128 0x8
 2320 047f A2010000 		.4byte	.LASF133
 2321 0483 01       		.sleb128 1
 2322 0484 08       		.uleb128 0x8
 2323 0485 EA110000 		.4byte	.LASF134
 2324 0489 02       		.sleb128 2
 2325 048a 08       		.uleb128 0x8
 2326 048b 22130000 		.4byte	.LASF135
 2327 048f 03       		.sleb128 3
 2328 0490 08       		.uleb128 0x8
 2329 0491 CA0F0000 		.4byte	.LASF136
 2330 0495 04       		.sleb128 4
 2331 0496 00       		.byte	0
 2332 0497 0F       		.uleb128 0xf
 2333 0498 EE120000 		.4byte	.LASF137
 2334 049c 04       		.byte	0x4
 2335 049d E0       		.byte	0xe0
 2336 049e 70040000 		.4byte	0x470
 2337 04a2 09       		.uleb128 0x9
 2338 04a3 10       		.byte	0x10
 2339 04a4 04       		.byte	0x4
 2340 04a5 0902     		.2byte	0x209
 2341 04a7 14050000 		.4byte	0x514
 2342 04ab 0A       		.uleb128 0xa
 2343 04ac BF0F0000 		.4byte	.LASF138
 2344 04b0 04       		.byte	0x4
 2345 04b1 0F02     		.2byte	0x20f
 2346 04b3 77000000 		.4byte	0x77
 2347 04b7 00       		.byte	0
 2348 04b8 0A       		.uleb128 0xa
 2349 04b9 C4050000 		.4byte	.LASF139
 2350 04bd 04       		.byte	0x4
 2351 04be 1502     		.2byte	0x215
 2352 04c0 77000000 		.4byte	0x77
 2353 04c4 02       		.byte	0x2
 2354 04c5 0A       		.uleb128 0xa
 2355 04c6 65030000 		.4byte	.LASF140
 2356 04ca 04       		.byte	0x4
 2357 04cb 1E02     		.2byte	0x21e
 2358 04cd 97040000 		.4byte	0x497
 2359 04d1 04       		.byte	0x4
 2360 04d2 0A       		.uleb128 0xa
 2361 04d3 3C0C0000 		.4byte	.LASF141
 2362 04d7 04       		.byte	0x4
 2363 04d8 2602     		.2byte	0x226
 2364 04da 6B000000 		.4byte	0x6b
 2365 04de 05       		.byte	0x5
 2366 04df 0A       		.uleb128 0xa
 2367 04e0 2E0E0000 		.4byte	.LASF142
 2368 04e4 04       		.byte	0x4
 2369 04e5 2D02     		.2byte	0x22d
 2370 04e7 6B000000 		.4byte	0x6b
ARM GAS  C:\Users\ADMINI~1\AppData\Local\Temp\ccieeocD.s 			page 68


 2371 04eb 06       		.byte	0x6
 2372 04ec 0A       		.uleb128 0xa
 2373 04ed 13050000 		.4byte	.LASF143
 2374 04f1 04       		.byte	0x4
 2375 04f2 3302     		.2byte	0x233
 2376 04f4 7B030000 		.4byte	0x37b
 2377 04f8 07       		.byte	0x7
 2378 04f9 0A       		.uleb128 0xa
 2379 04fa 40010000 		.4byte	.LASF144
 2380 04fe 04       		.byte	0x4
 2381 04ff 3B02     		.2byte	0x23b
 2382 0501 6B000000 		.4byte	0x6b
 2383 0505 0D       		.byte	0xd
 2384 0506 0A       		.uleb128 0xa
 2385 0507 89050000 		.4byte	.LASF145
 2386 050b 04       		.byte	0x4
 2387 050c 4702     		.2byte	0x247
 2388 050e 6B000000 		.4byte	0x6b
 2389 0512 0E       		.byte	0xe
 2390 0513 00       		.byte	0
 2391 0514 04       		.uleb128 0x4
 2392 0515 5E110000 		.4byte	.LASF146
 2393 0519 04       		.byte	0x4
 2394 051a 4902     		.2byte	0x249
 2395 051c A2040000 		.4byte	0x4a2
 2396 0520 09       		.uleb128 0x9
 2397 0521 20       		.byte	0x20
 2398 0522 04       		.byte	0x4
 2399 0523 4C02     		.2byte	0x24c
 2400 0525 44050000 		.4byte	0x544
 2401 0529 0A       		.uleb128 0xa
 2402 052a F50F0000 		.4byte	.LASF147
 2403 052e 04       		.byte	0x4
 2404 052f 4F02     		.2byte	0x24f
 2405 0531 44050000 		.4byte	0x544
 2406 0535 00       		.byte	0
 2407 0536 0A       		.uleb128 0xa
 2408 0537 F7070000 		.4byte	.LASF148
 2409 053b 04       		.byte	0x4
 2410 053c 5202     		.2byte	0x252
 2411 053e 6B000000 		.4byte	0x6b
 2412 0542 1F       		.byte	0x1f
 2413 0543 00       		.byte	0
 2414 0544 0B       		.uleb128 0xb
 2415 0545 6B000000 		.4byte	0x6b
 2416 0549 54050000 		.4byte	0x554
 2417 054d 0C       		.uleb128 0xc
 2418 054e B5000000 		.4byte	0xb5
 2419 0552 1E       		.byte	0x1e
 2420 0553 00       		.byte	0
 2421 0554 04       		.uleb128 0x4
 2422 0555 BD000000 		.4byte	.LASF149
 2423 0559 04       		.byte	0x4
 2424 055a 5402     		.2byte	0x254
 2425 055c 20050000 		.4byte	0x520
 2426 0560 09       		.uleb128 0x9
 2427 0561 20       		.byte	0x20
ARM GAS  C:\Users\ADMINI~1\AppData\Local\Temp\ccieeocD.s 			page 69


 2428 0562 04       		.byte	0x4
 2429 0563 5702     		.2byte	0x257
 2430 0565 84050000 		.4byte	0x584
 2431 0569 0A       		.uleb128 0xa
 2432 056a 70060000 		.4byte	.LASF150
 2433 056e 04       		.byte	0x4
 2434 056f 5B02     		.2byte	0x25b
 2435 0571 44050000 		.4byte	0x544
 2436 0575 00       		.byte	0
 2437 0576 0A       		.uleb128 0xa
 2438 0577 A10A0000 		.4byte	.LASF151
 2439 057b 04       		.byte	0x4
 2440 057c 5E02     		.2byte	0x25e
 2441 057e 6B000000 		.4byte	0x6b
 2442 0582 1F       		.byte	0x1f
 2443 0583 00       		.byte	0
 2444 0584 04       		.uleb128 0x4
 2445 0585 8E090000 		.4byte	.LASF152
 2446 0589 04       		.byte	0x4
 2447 058a 6002     		.2byte	0x260
 2448 058c 60050000 		.4byte	0x560
 2449 0590 09       		.uleb128 0x9
 2450 0591 14       		.byte	0x14
 2451 0592 04       		.byte	0x4
 2452 0593 6302     		.2byte	0x263
 2453 0595 DB050000 		.4byte	0x5db
 2454 0599 0A       		.uleb128 0xa
 2455 059a F7060000 		.4byte	.LASF153
 2456 059e 04       		.byte	0x4
 2457 059f 6B02     		.2byte	0x26b
 2458 05a1 6B000000 		.4byte	0x6b
 2459 05a5 00       		.byte	0
 2460 05a6 0A       		.uleb128 0xa
 2461 05a7 E5120000 		.4byte	.LASF154
 2462 05ab 04       		.byte	0x4
 2463 05ac 6E02     		.2byte	0x26e
 2464 05ae DB050000 		.4byte	0x5db
 2465 05b2 04       		.byte	0x4
 2466 05b3 0A       		.uleb128 0xa
 2467 05b4 F50F0000 		.4byte	.LASF147
 2468 05b8 04       		.byte	0x4
 2469 05b9 7002     		.2byte	0x270
 2470 05bb E1050000 		.4byte	0x5e1
 2471 05bf 08       		.byte	0x8
 2472 05c0 0A       		.uleb128 0xa
 2473 05c1 70060000 		.4byte	.LASF150
 2474 05c5 04       		.byte	0x4
 2475 05c6 7202     		.2byte	0x272
 2476 05c8 E7050000 		.4byte	0x5e7
 2477 05cc 0C       		.byte	0xc
 2478 05cd 0A       		.uleb128 0xa
 2479 05ce 23160000 		.4byte	.LASF155
 2480 05d2 04       		.byte	0x4
 2481 05d3 7C02     		.2byte	0x27c
 2482 05d5 77000000 		.4byte	0x77
 2483 05d9 10       		.byte	0x10
 2484 05da 00       		.byte	0
ARM GAS  C:\Users\ADMINI~1\AppData\Local\Temp\ccieeocD.s 			page 70


 2485 05db 0D       		.uleb128 0xd
 2486 05dc 04       		.byte	0x4
 2487 05dd 14050000 		.4byte	0x514
 2488 05e1 0D       		.uleb128 0xd
 2489 05e2 04       		.byte	0x4
 2490 05e3 54050000 		.4byte	0x554
 2491 05e7 0D       		.uleb128 0xd
 2492 05e8 04       		.byte	0x4
 2493 05e9 84050000 		.4byte	0x584
 2494 05ed 04       		.uleb128 0x4
 2495 05ee C9120000 		.4byte	.LASF156
 2496 05f2 04       		.byte	0x4
 2497 05f3 7E02     		.2byte	0x27e
 2498 05f5 90050000 		.4byte	0x590
 2499 05f9 0D       		.uleb128 0xd
 2500 05fa 04       		.byte	0x4
 2501 05fb 6B000000 		.4byte	0x6b
 2502 05ff 09       		.uleb128 0x9
 2503 0600 02       		.byte	0x2
 2504 0601 05       		.byte	0x5
 2505 0602 9C01     		.2byte	0x19c
 2506 0604 23060000 		.4byte	0x623
 2507 0608 0A       		.uleb128 0xa
 2508 0609 40150000 		.4byte	.LASF157
 2509 060d 05       		.byte	0x5
 2510 060e A301     		.2byte	0x1a3
 2511 0610 6B000000 		.4byte	0x6b
 2512 0614 00       		.byte	0
 2513 0615 0A       		.uleb128 0xa
 2514 0616 540B0000 		.4byte	.LASF158
 2515 061a 05       		.byte	0x5
 2516 061b A901     		.2byte	0x1a9
 2517 061d 6B000000 		.4byte	0x6b
 2518 0621 01       		.byte	0x1
 2519 0622 00       		.byte	0
 2520 0623 04       		.uleb128 0x4
 2521 0624 72000000 		.4byte	.LASF159
 2522 0628 05       		.byte	0x5
 2523 0629 AB01     		.2byte	0x1ab
 2524 062b FF050000 		.4byte	0x5ff
 2525 062f 10       		.uleb128 0x10
 2526 0630 08       		.byte	0x8
 2527 0631 06       		.byte	0x6
 2528 0632 C3       		.byte	0xc3
 2529 0633 50060000 		.4byte	0x650
 2530 0637 11       		.uleb128 0x11
 2531 0638 E00A0000 		.4byte	.LASF160
 2532 063c 06       		.byte	0x6
 2533 063d C6       		.byte	0xc6
 2534 063e 77000000 		.4byte	0x77
 2535 0642 00       		.byte	0
 2536 0643 11       		.uleb128 0x11
 2537 0644 6F0D0000 		.4byte	.LASF161
 2538 0648 06       		.byte	0x6
 2539 0649 CB       		.byte	0xcb
 2540 064a BC000000 		.4byte	0xbc
 2541 064e 04       		.byte	0x4
ARM GAS  C:\Users\ADMINI~1\AppData\Local\Temp\ccieeocD.s 			page 71


 2542 064f 00       		.byte	0
 2543 0650 0F       		.uleb128 0xf
 2544 0651 9F120000 		.4byte	.LASF162
 2545 0655 06       		.byte	0x6
 2546 0656 CD       		.byte	0xcd
 2547 0657 2F060000 		.4byte	0x62f
 2548 065b 10       		.uleb128 0x10
 2549 065c 08       		.byte	0x8
 2550 065d 06       		.byte	0x6
 2551 065e D0       		.byte	0xd0
 2552 065f 7C060000 		.4byte	0x67c
 2553 0663 11       		.uleb128 0x11
 2554 0664 730A0000 		.4byte	.LASF163
 2555 0668 06       		.byte	0x6
 2556 0669 D3       		.byte	0xd3
 2557 066a 77000000 		.4byte	0x77
 2558 066e 00       		.byte	0
 2559 066f 11       		.uleb128 0x11
 2560 0670 6A130000 		.4byte	.LASF164
 2561 0674 06       		.byte	0x6
 2562 0675 D8       		.byte	0xd8
 2563 0676 7C060000 		.4byte	0x67c
 2564 067a 04       		.byte	0x4
 2565 067b 00       		.byte	0
 2566 067c 0D       		.uleb128 0xd
 2567 067d 04       		.byte	0x4
 2568 067e 50060000 		.4byte	0x650
 2569 0682 0F       		.uleb128 0xf
 2570 0683 B0060000 		.4byte	.LASF165
 2571 0687 06       		.byte	0x6
 2572 0688 DA       		.byte	0xda
 2573 0689 5B060000 		.4byte	0x65b
 2574 068d 12       		.uleb128 0x12
 2575 068e 08       		.byte	0x8
 2576 068f 06       		.byte	0x6
 2577 0690 DD       		.byte	0xdd
 2578 0691 AC060000 		.4byte	0x6ac
 2579 0695 13       		.uleb128 0x13
 2580 0696 7F090000 		.4byte	.LASF166
 2581 069a 06       		.byte	0x6
 2582 069b E4       		.byte	0xe4
 2583 069c 82060000 		.4byte	0x682
 2584 06a0 13       		.uleb128 0x13
 2585 06a1 620D0000 		.4byte	.LASF167
 2586 06a5 06       		.byte	0x6
 2587 06a6 E7       		.byte	0xe7
 2588 06a7 77000000 		.4byte	0x77
 2589 06ab 00       		.byte	0
 2590 06ac 0F       		.uleb128 0xf
 2591 06ad 2C070000 		.4byte	.LASF168
 2592 06b1 06       		.byte	0x6
 2593 06b2 E9       		.byte	0xe9
 2594 06b3 8D060000 		.4byte	0x68d
 2595 06b7 10       		.uleb128 0x10
 2596 06b8 14       		.byte	0x14
 2597 06b9 06       		.byte	0x6
 2598 06ba EC       		.byte	0xec
ARM GAS  C:\Users\ADMINI~1\AppData\Local\Temp\ccieeocD.s 			page 72


 2599 06bb FE060000 		.4byte	0x6fe
 2600 06bf 11       		.uleb128 0x11
 2601 06c0 44070000 		.4byte	.LASF169
 2602 06c4 06       		.byte	0x6
 2603 06c5 EF       		.byte	0xef
 2604 06c6 77000000 		.4byte	0x77
 2605 06ca 00       		.byte	0
 2606 06cb 11       		.uleb128 0x11
 2607 06cc EF070000 		.4byte	.LASF170
 2608 06d0 06       		.byte	0x6
 2609 06d1 F5       		.byte	0xf5
 2610 06d2 77000000 		.4byte	0x77
 2611 06d6 02       		.byte	0x2
 2612 06d7 11       		.uleb128 0x11
 2613 06d8 4B050000 		.4byte	.LASF171
 2614 06dc 06       		.byte	0x6
 2615 06dd FF       		.byte	0xff
 2616 06de 83000000 		.4byte	0x83
 2617 06e2 04       		.byte	0x4
 2618 06e3 0A       		.uleb128 0xa
 2619 06e4 1D110000 		.4byte	.LASF172
 2620 06e8 06       		.byte	0x6
 2621 06e9 0201     		.2byte	0x102
 2622 06eb 77000000 		.4byte	0x77
 2623 06ef 08       		.byte	0x8
 2624 06f0 0A       		.uleb128 0xa
 2625 06f1 950E0000 		.4byte	.LASF173
 2626 06f5 06       		.byte	0x6
 2627 06f6 0B01     		.2byte	0x10b
 2628 06f8 AC060000 		.4byte	0x6ac
 2629 06fc 0C       		.byte	0xc
 2630 06fd 00       		.byte	0
 2631 06fe 04       		.uleb128 0x4
 2632 06ff 3A120000 		.4byte	.LASF174
 2633 0703 06       		.byte	0x6
 2634 0704 0C01     		.2byte	0x10c
 2635 0706 B7060000 		.4byte	0x6b7
 2636 070a 04       		.uleb128 0x4
 2637 070b 8E120000 		.4byte	.LASF175
 2638 070f 07       		.byte	0x7
 2639 0710 E501     		.2byte	0x1e5
 2640 0712 16070000 		.4byte	0x716
 2641 0716 0D       		.uleb128 0xd
 2642 0717 04       		.byte	0x4
 2643 0718 1C070000 		.4byte	0x71c
 2644 071c 14       		.uleb128 0x14
 2645 071d 2C070000 		.4byte	0x72c
 2646 0721 15       		.uleb128 0x15
 2647 0722 83000000 		.4byte	0x83
 2648 0726 15       		.uleb128 0x15
 2649 0727 BC000000 		.4byte	0xbc
 2650 072b 00       		.byte	0
 2651 072c 16       		.uleb128 0x16
 2652 072d 8F02     		.2byte	0x28f
 2653 072f 08       		.byte	0x8
 2654 0730 9C       		.byte	0x9c
 2655 0731 69070000 		.4byte	0x769
ARM GAS  C:\Users\ADMINI~1\AppData\Local\Temp\ccieeocD.s 			page 73


 2656 0735 11       		.uleb128 0x11
 2657 0736 1E070000 		.4byte	.LASF176
 2658 073a 08       		.byte	0x8
 2659 073b 9F       		.byte	0x9f
 2660 073c 69070000 		.4byte	0x769
 2661 0740 00       		.byte	0
 2662 0741 17       		.uleb128 0x17
 2663 0742 C70A0000 		.4byte	.LASF177
 2664 0746 08       		.byte	0x8
 2665 0747 A2       		.byte	0xa2
 2666 0748 7A070000 		.4byte	0x77a
 2667 074c 7902     		.2byte	0x279
 2668 074e 17       		.uleb128 0x17
 2669 074f 75020000 		.4byte	.LASF178
 2670 0753 08       		.byte	0x8
 2671 0754 A5       		.byte	0xa5
 2672 0755 6B000000 		.4byte	0x6b
 2673 0759 8D02     		.2byte	0x28d
 2674 075b 17       		.uleb128 0x17
 2675 075c CF0C0000 		.4byte	.LASF179
 2676 0760 08       		.byte	0x8
 2677 0761 A8       		.byte	0xa8
 2678 0762 6B000000 		.4byte	0x6b
 2679 0766 8E02     		.2byte	0x28e
 2680 0768 00       		.byte	0
 2681 0769 0B       		.uleb128 0xb
 2682 076a 6B000000 		.4byte	0x6b
 2683 076e 7A070000 		.4byte	0x77a
 2684 0772 18       		.uleb128 0x18
 2685 0773 B5000000 		.4byte	0xb5
 2686 0777 7802     		.2byte	0x278
 2687 0779 00       		.byte	0
 2688 077a 0B       		.uleb128 0xb
 2689 077b 6B000000 		.4byte	0x6b
 2690 077f 90070000 		.4byte	0x790
 2691 0783 0C       		.uleb128 0xc
 2692 0784 B5000000 		.4byte	0xb5
 2693 0788 04       		.byte	0x4
 2694 0789 0C       		.uleb128 0xc
 2695 078a B5000000 		.4byte	0xb5
 2696 078e 03       		.byte	0x3
 2697 078f 00       		.byte	0
 2698 0790 0F       		.uleb128 0xf
 2699 0791 FF120000 		.4byte	.LASF180
 2700 0795 08       		.byte	0x8
 2701 0796 A9       		.byte	0xa9
 2702 0797 2C070000 		.4byte	0x72c
 2703 079b 07       		.uleb128 0x7
 2704 079c 01       		.byte	0x1
 2705 079d 09       		.byte	0x9
 2706 079e BF07     		.2byte	0x7bf
 2707 07a0 C3070000 		.4byte	0x7c3
 2708 07a4 08       		.uleb128 0x8
 2709 07a5 3F000000 		.4byte	.LASF181
 2710 07a9 00       		.sleb128 0
 2711 07aa 08       		.uleb128 0x8
 2712 07ab 230C0000 		.4byte	.LASF182
ARM GAS  C:\Users\ADMINI~1\AppData\Local\Temp\ccieeocD.s 			page 74


 2713 07af 01       		.sleb128 1
 2714 07b0 08       		.uleb128 0x8
 2715 07b1 21140000 		.4byte	.LASF183
 2716 07b5 02       		.sleb128 2
 2717 07b6 08       		.uleb128 0x8
 2718 07b7 7B040000 		.4byte	.LASF184
 2719 07bb 03       		.sleb128 3
 2720 07bc 08       		.uleb128 0x8
 2721 07bd CF050000 		.4byte	.LASF185
 2722 07c1 04       		.sleb128 4
 2723 07c2 00       		.byte	0
 2724 07c3 04       		.uleb128 0x4
 2725 07c4 14130000 		.4byte	.LASF186
 2726 07c8 09       		.byte	0x9
 2727 07c9 CD07     		.2byte	0x7cd
 2728 07cb 9B070000 		.4byte	0x79b
 2729 07cf 19       		.uleb128 0x19
 2730 07d0 67150000 		.4byte	.LASF187
 2731 07d4 01       		.byte	0x1
 2732 07d5 98       		.byte	0x98
 2733 07d6 00000000 		.4byte	.LFB2
 2734 07da 40000000 		.4byte	.LFE2-.LFB2
 2735 07de 01       		.uleb128 0x1
 2736 07df 9C       		.byte	0x9c
 2737 07e0 19       		.uleb128 0x19
 2738 07e1 AD080000 		.4byte	.LASF188
 2739 07e5 01       		.byte	0x1
 2740 07e6 C9       		.byte	0xc9
 2741 07e7 00000000 		.4byte	.LFB3
 2742 07eb 0C000000 		.4byte	.LFE3-.LFB3
 2743 07ef 01       		.uleb128 0x1
 2744 07f0 9C       		.byte	0x9c
 2745 07f1 1A       		.uleb128 0x1a
 2746 07f2 B00A0000 		.4byte	.LASF196
 2747 07f6 01       		.byte	0x1
 2748 07f7 8F01     		.2byte	0x18f
 2749 07f9 4B030000 		.4byte	0x34b
 2750 07fd 00000000 		.4byte	.LFB4
 2751 0801 34010000 		.4byte	.LFE4-.LFB4
 2752 0805 01       		.uleb128 0x1
 2753 0806 9C       		.byte	0x9c
 2754 0807 81080000 		.4byte	0x881
 2755 080b 1B       		.uleb128 0x1b
 2756 080c 880E0000 		.4byte	.LASF198
 2757 0810 01       		.byte	0x1
 2758 0811 8F01     		.2byte	0x18f
 2759 0813 0A070000 		.4byte	0x70a
 2760 0817 03       		.uleb128 0x3
 2761 0818 91       		.byte	0x91
 2762 0819 B47F     		.sleb128 -76
 2763 081b 1C       		.uleb128 0x1c
 2764 081c FB0C0000 		.4byte	.LASF189
 2765 0820 01       		.byte	0x1
 2766 0821 9101     		.2byte	0x191
 2767 0823 4B030000 		.4byte	0x34b
 2768 0827 02       		.uleb128 0x2
 2769 0828 91       		.byte	0x91
ARM GAS  C:\Users\ADMINI~1\AppData\Local\Temp\ccieeocD.s 			page 75


 2770 0829 6E       		.sleb128 -18
 2771 082a 1C       		.uleb128 0x1c
 2772 082b 7D100000 		.4byte	.LASF190
 2773 082f 01       		.byte	0x1
 2774 0830 9501     		.2byte	0x195
 2775 0832 81080000 		.4byte	0x881
 2776 0836 02       		.uleb128 0x2
 2777 0837 91       		.byte	0x91
 2778 0838 58       		.sleb128 -40
 2779 0839 1D       		.uleb128 0x1d
 2780 083a 4E000000 		.4byte	.LBB2
 2781 083e 54000000 		.4byte	.LBE2-.LBB2
 2782 0842 1C       		.uleb128 0x1c
 2783 0843 E8080000 		.4byte	.LASF191
 2784 0847 01       		.byte	0x1
 2785 0848 B701     		.2byte	0x1b7
 2786 084a F8030000 		.4byte	0x3f8
 2787 084e 02       		.uleb128 0x2
 2788 084f 91       		.byte	0x91
 2789 0850 50       		.sleb128 -48
 2790 0851 1C       		.uleb128 0x1c
 2791 0852 6B090000 		.4byte	.LASF192
 2792 0856 01       		.byte	0x1
 2793 0857 B801     		.2byte	0x1b8
 2794 0859 1B040000 		.4byte	0x41b
 2795 085d 02       		.uleb128 0x2
 2796 085e 91       		.byte	0x91
 2797 085f 4C       		.sleb128 -52
 2798 0860 1C       		.uleb128 0x1c
 2799 0861 7B130000 		.4byte	.LASF193
 2800 0865 01       		.byte	0x1
 2801 0866 B901     		.2byte	0x1b9
 2802 0868 64040000 		.4byte	0x464
 2803 086c 02       		.uleb128 0x2
 2804 086d 91       		.byte	0x91
 2805 086e 40       		.sleb128 -64
 2806 086f 1C       		.uleb128 0x1c
 2807 0870 910F0000 		.4byte	.LASF194
 2808 0874 01       		.byte	0x1
 2809 0875 BA01     		.2byte	0x1ba
 2810 0877 77000000 		.4byte	0x77
 2811 087b 03       		.uleb128 0x3
 2812 087c 91       		.byte	0x91
 2813 087d BE7F     		.sleb128 -66
 2814 087f 00       		.byte	0
 2815 0880 00       		.byte	0
 2816 0881 0B       		.uleb128 0xb
 2817 0882 BB030000 		.4byte	0x3bb
 2818 0886 91080000 		.4byte	0x891
 2819 088a 0C       		.uleb128 0xc
 2820 088b B5000000 		.4byte	0xb5
 2821 088f 04       		.byte	0x4
 2822 0890 00       		.byte	0
 2823 0891 1E       		.uleb128 0x1e
 2824 0892 180D0000 		.4byte	.LASF195
 2825 0896 01       		.byte	0x1
 2826 0897 0902     		.2byte	0x209
ARM GAS  C:\Users\ADMINI~1\AppData\Local\Temp\ccieeocD.s 			page 76


 2827 0899 00000000 		.4byte	.LFB5
 2828 089d 18000000 		.4byte	.LFE5-.LFB5
 2829 08a1 01       		.uleb128 0x1
 2830 08a2 9C       		.byte	0x9c
 2831 08a3 1A       		.uleb128 0x1a
 2832 08a4 77120000 		.4byte	.LASF197
 2833 08a8 01       		.byte	0x1
 2834 08a9 3E02     		.2byte	0x23e
 2835 08ab 4B030000 		.4byte	0x34b
 2836 08af 00000000 		.4byte	.LFB6
 2837 08b3 A0010000 		.4byte	.LFE6-.LFB6
 2838 08b7 01       		.uleb128 0x1
 2839 08b8 9C       		.byte	0x9c
 2840 08b9 12090000 		.4byte	0x912
 2841 08bd 1B       		.uleb128 0x1b
 2842 08be B7050000 		.4byte	.LASF199
 2843 08c2 01       		.byte	0x1
 2844 08c3 3E02     		.2byte	0x23e
 2845 08c5 6B000000 		.4byte	0x6b
 2846 08c9 02       		.uleb128 0x2
 2847 08ca 91       		.byte	0x91
 2848 08cb 4F       		.sleb128 -49
 2849 08cc 1C       		.uleb128 0x1c
 2850 08cd FB0C0000 		.4byte	.LASF189
 2851 08d1 01       		.byte	0x1
 2852 08d2 4002     		.2byte	0x240
 2853 08d4 4B030000 		.4byte	0x34b
 2854 08d8 02       		.uleb128 0x2
 2855 08d9 91       		.byte	0x91
 2856 08da 6E       		.sleb128 -18
 2857 08db 1F       		.uleb128 0x1f
 2858 08dc EC000000 		.4byte	.LBB3
 2859 08e0 42000000 		.4byte	.LBE3-.LBB3
 2860 08e4 F8080000 		.4byte	0x8f8
 2861 08e8 1C       		.uleb128 0x1c
 2862 08e9 86000000 		.4byte	.LASF200
 2863 08ed 01       		.byte	0x1
 2864 08ee 6402     		.2byte	0x264
 2865 08f0 7A070000 		.4byte	0x77a
 2866 08f4 02       		.uleb128 0x2
 2867 08f5 91       		.byte	0x91
 2868 08f6 58       		.sleb128 -40
 2869 08f7 00       		.byte	0
 2870 08f8 1D       		.uleb128 0x1d
 2871 08f9 32010000 		.4byte	.LBB4
 2872 08fd 48000000 		.4byte	.LBE4-.LBB4
 2873 0901 1C       		.uleb128 0x1c
 2874 0902 86000000 		.4byte	.LASF200
 2875 0906 01       		.byte	0x1
 2876 0907 7102     		.2byte	0x271
 2877 0909 12090000 		.4byte	0x912
 2878 090d 02       		.uleb128 0x2
 2879 090e 91       		.byte	0x91
 2880 090f 54       		.sleb128 -44
 2881 0910 00       		.byte	0
 2882 0911 00       		.byte	0
 2883 0912 0B       		.uleb128 0xb
ARM GAS  C:\Users\ADMINI~1\AppData\Local\Temp\ccieeocD.s 			page 77


 2884 0913 6B000000 		.4byte	0x6b
 2885 0917 22090000 		.4byte	0x922
 2886 091b 0C       		.uleb128 0xc
 2887 091c B5000000 		.4byte	0xb5
 2888 0920 03       		.byte	0x3
 2889 0921 00       		.byte	0
 2890 0922 1A       		.uleb128 0x1a
 2891 0923 61100000 		.4byte	.LASF201
 2892 0927 01       		.byte	0x1
 2893 0928 A002     		.2byte	0x2a0
 2894 092a 4B030000 		.4byte	0x34b
 2895 092e 00000000 		.4byte	.LFB7
 2896 0932 E8000000 		.4byte	.LFE7-.LFB7
 2897 0936 01       		.uleb128 0x1
 2898 0937 9C       		.byte	0x9c
 2899 0938 83090000 		.4byte	0x983
 2900 093c 1B       		.uleb128 0x1b
 2901 093d 8A060000 		.4byte	.LASF116
 2902 0941 01       		.byte	0x1
 2903 0942 A002     		.2byte	0x2a0
 2904 0944 83090000 		.4byte	0x983
 2905 0948 02       		.uleb128 0x2
 2906 0949 91       		.byte	0x91
 2907 094a 5C       		.sleb128 -36
 2908 094b 1C       		.uleb128 0x1c
 2909 094c FB0C0000 		.4byte	.LASF189
 2910 0950 01       		.byte	0x1
 2911 0951 A202     		.2byte	0x2a2
 2912 0953 4B030000 		.4byte	0x34b
 2913 0957 02       		.uleb128 0x2
 2914 0958 91       		.byte	0x91
 2915 0959 6E       		.sleb128 -18
 2916 095a 1D       		.uleb128 0x1d
 2917 095b 18000000 		.4byte	.LBB5
 2918 095f AE000000 		.4byte	.LBE5-.LBB5
 2919 0963 1C       		.uleb128 0x1c
 2920 0964 BC0A0000 		.4byte	.LASF202
 2921 0968 01       		.byte	0x1
 2922 0969 A902     		.2byte	0x2a9
 2923 096b 6B000000 		.4byte	0x6b
 2924 096f 02       		.uleb128 0x2
 2925 0970 91       		.byte	0x91
 2926 0971 6D       		.sleb128 -19
 2927 0972 1C       		.uleb128 0x1c
 2928 0973 55070000 		.4byte	.LASF203
 2929 0977 01       		.byte	0x1
 2930 0978 AA02     		.2byte	0x2aa
 2931 097a 8B030000 		.4byte	0x38b
 2932 097e 02       		.uleb128 0x2
 2933 097f 91       		.byte	0x91
 2934 0980 64       		.sleb128 -28
 2935 0981 00       		.byte	0
 2936 0982 00       		.byte	0
 2937 0983 0D       		.uleb128 0xd
 2938 0984 04       		.byte	0x4
 2939 0985 8B030000 		.4byte	0x38b
 2940 0989 1A       		.uleb128 0x1a
ARM GAS  C:\Users\ADMINI~1\AppData\Local\Temp\ccieeocD.s 			page 78


 2941 098a 110E0000 		.4byte	.LASF204
 2942 098e 01       		.byte	0x1
 2943 098f 0503     		.2byte	0x305
 2944 0991 4B030000 		.4byte	0x34b
 2945 0995 00000000 		.4byte	.LFB8
 2946 0999 D4000000 		.4byte	.LFE8-.LFB8
 2947 099d 01       		.uleb128 0x1
 2948 099e 9C       		.byte	0x9c
 2949 099f C2090000 		.4byte	0x9c2
 2950 09a3 1B       		.uleb128 0x1b
 2951 09a4 F8100000 		.4byte	.LASF205
 2952 09a8 01       		.byte	0x1
 2953 09a9 0503     		.2byte	0x305
 2954 09ab 6B000000 		.4byte	0x6b
 2955 09af 02       		.uleb128 0x2
 2956 09b0 91       		.byte	0x91
 2957 09b1 67       		.sleb128 -25
 2958 09b2 1C       		.uleb128 0x1c
 2959 09b3 FB0C0000 		.4byte	.LASF189
 2960 09b7 01       		.byte	0x1
 2961 09b8 0703     		.2byte	0x307
 2962 09ba 4B030000 		.4byte	0x34b
 2963 09be 02       		.uleb128 0x2
 2964 09bf 91       		.byte	0x91
 2965 09c0 6E       		.sleb128 -18
 2966 09c1 00       		.byte	0
 2967 09c2 1E       		.uleb128 0x1e
 2968 09c3 D8020000 		.4byte	.LASF206
 2969 09c7 01       		.byte	0x1
 2970 09c8 4203     		.2byte	0x342
 2971 09ca 00000000 		.4byte	.LFB9
 2972 09ce 20000000 		.4byte	.LFE9-.LFB9
 2973 09d2 01       		.uleb128 0x1
 2974 09d3 9C       		.byte	0x9c
 2975 09d4 20       		.uleb128 0x20
 2976 09d5 370F0000 		.4byte	.LASF218
 2977 09d9 01       		.byte	0x1
 2978 09da 5803     		.2byte	0x358
 2979 09dc 00000000 		.4byte	.LFB10
 2980 09e0 60000000 		.4byte	.LFE10-.LFB10
 2981 09e4 01       		.uleb128 0x1
 2982 09e5 9C       		.byte	0x9c
 2983 09e6 250A0000 		.4byte	0xa25
 2984 09ea 1B       		.uleb128 0x1b
 2985 09eb 8A060000 		.4byte	.LASF116
 2986 09ef 01       		.byte	0x1
 2987 09f0 5803     		.2byte	0x358
 2988 09f2 250A0000 		.4byte	0xa25
 2989 09f6 02       		.uleb128 0x2
 2990 09f7 91       		.byte	0x91
 2991 09f8 6C       		.sleb128 -20
 2992 09f9 1B       		.uleb128 0x1b
 2993 09fa 5D0D0000 		.4byte	.LASF207
 2994 09fe 01       		.byte	0x1
 2995 09ff 5803     		.2byte	0x358
 2996 0a01 6B000000 		.4byte	0x6b
 2997 0a05 02       		.uleb128 0x2
ARM GAS  C:\Users\ADMINI~1\AppData\Local\Temp\ccieeocD.s 			page 79


 2998 0a06 91       		.byte	0x91
 2999 0a07 6B       		.sleb128 -21
 3000 0a08 21       		.uleb128 0x21
 3001 0a09 6900     		.ascii	"i\000"
 3002 0a0b 01       		.byte	0x1
 3003 0a0c 5A03     		.2byte	0x35a
 3004 0a0e 6B000000 		.4byte	0x6b
 3005 0a12 02       		.uleb128 0x2
 3006 0a13 91       		.byte	0x91
 3007 0a14 77       		.sleb128 -9
 3008 0a15 1C       		.uleb128 0x1c
 3009 0a16 63070000 		.4byte	.LASF208
 3010 0a1a 01       		.byte	0x1
 3011 0a1b 5B03     		.2byte	0x35b
 3012 0a1d F9050000 		.4byte	0x5f9
 3013 0a21 02       		.uleb128 0x2
 3014 0a22 91       		.byte	0x91
 3015 0a23 70       		.sleb128 -16
 3016 0a24 00       		.byte	0
 3017 0a25 0D       		.uleb128 0xd
 3018 0a26 04       		.byte	0x4
 3019 0a27 2B0A0000 		.4byte	0xa2b
 3020 0a2b 22       		.uleb128 0x22
 3021 0a2c 8B030000 		.4byte	0x38b
 3022 0a30 23       		.uleb128 0x23
 3023 0a31 0A100000 		.4byte	.LASF244
 3024 0a35 01       		.byte	0x1
 3025 0a36 9704     		.2byte	0x497
 3026 0a38 00000000 		.4byte	.LFB11
 3027 0a3c A4010000 		.4byte	.LFE11-.LFB11
 3028 0a40 01       		.uleb128 0x1
 3029 0a41 9C       		.byte	0x9c
 3030 0a42 BD0A0000 		.4byte	0xabd
 3031 0a46 1B       		.uleb128 0x1b
 3032 0a47 66090000 		.4byte	.LASF209
 3033 0a4b 01       		.byte	0x1
 3034 0a4c 9704     		.2byte	0x497
 3035 0a4e BD0A0000 		.4byte	0xabd
 3036 0a52 02       		.uleb128 0x2
 3037 0a53 91       		.byte	0x91
 3038 0a54 64       		.sleb128 -28
 3039 0a55 1B       		.uleb128 0x1b
 3040 0a56 5D0D0000 		.4byte	.LASF207
 3041 0a5a 01       		.byte	0x1
 3042 0a5b 9704     		.2byte	0x497
 3043 0a5d 6B000000 		.4byte	0x6b
 3044 0a61 02       		.uleb128 0x2
 3045 0a62 91       		.byte	0x91
 3046 0a63 63       		.sleb128 -29
 3047 0a64 21       		.uleb128 0x21
 3048 0a65 6900     		.ascii	"i\000"
 3049 0a67 01       		.byte	0x1
 3050 0a68 9904     		.2byte	0x499
 3051 0a6a 6B000000 		.4byte	0x6b
 3052 0a6e 02       		.uleb128 0x2
 3053 0a6f 91       		.byte	0x91
 3054 0a70 77       		.sleb128 -9
ARM GAS  C:\Users\ADMINI~1\AppData\Local\Temp\ccieeocD.s 			page 80


 3055 0a71 1C       		.uleb128 0x1c
 3056 0a72 720F0000 		.4byte	.LASF210
 3057 0a76 01       		.byte	0x1
 3058 0a77 9A04     		.2byte	0x49a
 3059 0a79 6B000000 		.4byte	0x6b
 3060 0a7d 02       		.uleb128 0x2
 3061 0a7e 91       		.byte	0x91
 3062 0a7f 76       		.sleb128 -10
 3063 0a80 1C       		.uleb128 0x1c
 3064 0a81 CD100000 		.4byte	.LASF211
 3065 0a85 01       		.byte	0x1
 3066 0a86 9B04     		.2byte	0x49b
 3067 0a88 6B000000 		.4byte	0x6b
 3068 0a8c 02       		.uleb128 0x2
 3069 0a8d 91       		.byte	0x91
 3070 0a8e 75       		.sleb128 -11
 3071 0a8f 1C       		.uleb128 0x1c
 3072 0a90 BD120000 		.4byte	.LASF212
 3073 0a94 01       		.byte	0x1
 3074 0a95 9C04     		.2byte	0x49c
 3075 0a97 6B000000 		.4byte	0x6b
 3076 0a9b 02       		.uleb128 0x2
 3077 0a9c 91       		.byte	0x91
 3078 0a9d 74       		.sleb128 -12
 3079 0a9e 1C       		.uleb128 0x1c
 3080 0a9f 63070000 		.4byte	.LASF208
 3081 0aa3 01       		.byte	0x1
 3082 0aa4 9D04     		.2byte	0x49d
 3083 0aa6 F9050000 		.4byte	0x5f9
 3084 0aaa 02       		.uleb128 0x2
 3085 0aab 91       		.byte	0x91
 3086 0aac 70       		.sleb128 -16
 3087 0aad 1C       		.uleb128 0x1c
 3088 0aae 91100000 		.4byte	.LASF213
 3089 0ab2 01       		.byte	0x1
 3090 0ab3 9E04     		.2byte	0x49e
 3091 0ab5 6B000000 		.4byte	0x6b
 3092 0ab9 02       		.uleb128 0x2
 3093 0aba 91       		.byte	0x91
 3094 0abb 6F       		.sleb128 -17
 3095 0abc 00       		.byte	0
 3096 0abd 0D       		.uleb128 0xd
 3097 0abe 04       		.byte	0x4
 3098 0abf C30A0000 		.4byte	0xac3
 3099 0ac3 22       		.uleb128 0x22
 3100 0ac4 9D000000 		.4byte	0x9d
 3101 0ac8 1A       		.uleb128 0x1a
 3102 0ac9 1E050000 		.4byte	.LASF214
 3103 0acd 01       		.byte	0x1
 3104 0ace FC04     		.2byte	0x4fc
 3105 0ad0 4B030000 		.4byte	0x34b
 3106 0ad4 00000000 		.4byte	.LFB12
 3107 0ad8 C8000000 		.4byte	.LFE12-.LFB12
 3108 0adc 01       		.uleb128 0x1
 3109 0add 9C       		.byte	0x9c
 3110 0ade 2C0B0000 		.4byte	0xb2c
 3111 0ae2 1B       		.uleb128 0x1b
ARM GAS  C:\Users\ADMINI~1\AppData\Local\Temp\ccieeocD.s 			page 81


 3112 0ae3 66090000 		.4byte	.LASF209
 3113 0ae7 01       		.byte	0x1
 3114 0ae8 FC04     		.2byte	0x4fc
 3115 0aea BD0A0000 		.4byte	0xabd
 3116 0aee 02       		.uleb128 0x2
 3117 0aef 91       		.byte	0x91
 3118 0af0 64       		.sleb128 -28
 3119 0af1 1C       		.uleb128 0x1c
 3120 0af2 FB0C0000 		.4byte	.LASF189
 3121 0af6 01       		.byte	0x1
 3122 0af7 FE04     		.2byte	0x4fe
 3123 0af9 4B030000 		.4byte	0x34b
 3124 0afd 02       		.uleb128 0x2
 3125 0afe 91       		.byte	0x91
 3126 0aff 76       		.sleb128 -10
 3127 0b00 21       		.uleb128 0x21
 3128 0b01 6900     		.ascii	"i\000"
 3129 0b03 01       		.byte	0x1
 3130 0b04 FF04     		.2byte	0x4ff
 3131 0b06 6B000000 		.4byte	0x6b
 3132 0b0a 02       		.uleb128 0x2
 3133 0b0b 91       		.byte	0x91
 3134 0b0c 75       		.sleb128 -11
 3135 0b0d 21       		.uleb128 0x21
 3136 0b0e 70747200 		.ascii	"ptr\000"
 3137 0b12 01       		.byte	0x1
 3138 0b13 0005     		.2byte	0x500
 3139 0b15 2C0B0000 		.4byte	0xb2c
 3140 0b19 02       		.uleb128 0x2
 3141 0b1a 91       		.byte	0x91
 3142 0b1b 70       		.sleb128 -16
 3143 0b1c 1C       		.uleb128 0x1c
 3144 0b1d 5A0B0000 		.4byte	.LASF215
 3145 0b21 01       		.byte	0x1
 3146 0b22 0105     		.2byte	0x501
 3147 0b24 6B000000 		.4byte	0x6b
 3148 0b28 02       		.uleb128 0x2
 3149 0b29 91       		.byte	0x91
 3150 0b2a 6F       		.sleb128 -17
 3151 0b2b 00       		.byte	0
 3152 0b2c 0D       		.uleb128 0xd
 3153 0b2d 04       		.byte	0x4
 3154 0b2e 9D000000 		.4byte	0x9d
 3155 0b32 24       		.uleb128 0x24
 3156 0b33 64080000 		.4byte	.LASF216
 3157 0b37 01       		.byte	0x1
 3158 0b38 4405     		.2byte	0x544
 3159 0b3a 4B030000 		.4byte	0x34b
 3160 0b3e 00000000 		.4byte	.LFB13
 3161 0b42 A4000000 		.4byte	.LFE13-.LFB13
 3162 0b46 01       		.uleb128 0x1
 3163 0b47 9C       		.byte	0x9c
 3164 0b48 960B0000 		.4byte	0xb96
 3165 0b4c 1B       		.uleb128 0x1b
 3166 0b4d 66090000 		.4byte	.LASF209
 3167 0b51 01       		.byte	0x1
 3168 0b52 4405     		.2byte	0x544
ARM GAS  C:\Users\ADMINI~1\AppData\Local\Temp\ccieeocD.s 			page 82


 3169 0b54 2C0B0000 		.4byte	0xb2c
 3170 0b58 02       		.uleb128 0x2
 3171 0b59 91       		.byte	0x91
 3172 0b5a 64       		.sleb128 -28
 3173 0b5b 1C       		.uleb128 0x1c
 3174 0b5c FB0C0000 		.4byte	.LASF189
 3175 0b60 01       		.byte	0x1
 3176 0b61 4605     		.2byte	0x546
 3177 0b63 4B030000 		.4byte	0x34b
 3178 0b67 02       		.uleb128 0x2
 3179 0b68 91       		.byte	0x91
 3180 0b69 76       		.sleb128 -10
 3181 0b6a 1C       		.uleb128 0x1c
 3182 0b6b 5A0B0000 		.4byte	.LASF215
 3183 0b6f 01       		.byte	0x1
 3184 0b70 4705     		.2byte	0x547
 3185 0b72 6B000000 		.4byte	0x6b
 3186 0b76 02       		.uleb128 0x2
 3187 0b77 91       		.byte	0x91
 3188 0b78 6F       		.sleb128 -17
 3189 0b79 21       		.uleb128 0x21
 3190 0b7a 6900     		.ascii	"i\000"
 3191 0b7c 01       		.byte	0x1
 3192 0b7d 4805     		.2byte	0x548
 3193 0b7f 6B000000 		.4byte	0x6b
 3194 0b83 02       		.uleb128 0x2
 3195 0b84 91       		.byte	0x91
 3196 0b85 75       		.sleb128 -11
 3197 0b86 21       		.uleb128 0x21
 3198 0b87 70747200 		.ascii	"ptr\000"
 3199 0b8b 01       		.byte	0x1
 3200 0b8c 4905     		.2byte	0x549
 3201 0b8e 2C0B0000 		.4byte	0xb2c
 3202 0b92 02       		.uleb128 0x2
 3203 0b93 91       		.byte	0x91
 3204 0b94 70       		.sleb128 -16
 3205 0b95 00       		.byte	0
 3206 0b96 24       		.uleb128 0x24
 3207 0b97 2F150000 		.4byte	.LASF217
 3208 0b9b 01       		.byte	0x1
 3209 0b9c 7605     		.2byte	0x576
 3210 0b9e 77000000 		.4byte	0x77
 3211 0ba2 00000000 		.4byte	.LFB14
 3212 0ba6 26000000 		.4byte	.LFE14-.LFB14
 3213 0baa 01       		.uleb128 0x1
 3214 0bab 9C       		.byte	0x9c
 3215 0bac C00B0000 		.4byte	0xbc0
 3216 0bb0 25       		.uleb128 0x25
 3217 0bb1 70747200 		.ascii	"ptr\000"
 3218 0bb5 01       		.byte	0x1
 3219 0bb6 7605     		.2byte	0x576
 3220 0bb8 C00B0000 		.4byte	0xbc0
 3221 0bbc 02       		.uleb128 0x2
 3222 0bbd 91       		.byte	0x91
 3223 0bbe 74       		.sleb128 -12
 3224 0bbf 00       		.byte	0
 3225 0bc0 0D       		.uleb128 0xd
ARM GAS  C:\Users\ADMINI~1\AppData\Local\Temp\ccieeocD.s 			page 83


 3226 0bc1 04       		.byte	0x4
 3227 0bc2 C60B0000 		.4byte	0xbc6
 3228 0bc6 22       		.uleb128 0x22
 3229 0bc7 6B000000 		.4byte	0x6b
 3230 0bcb 20       		.uleb128 0x20
 3231 0bcc 810A0000 		.4byte	.LASF219
 3232 0bd0 01       		.byte	0x1
 3233 0bd1 8905     		.2byte	0x589
 3234 0bd3 00000000 		.4byte	.LFB15
 3235 0bd7 2E000000 		.4byte	.LFE15-.LFB15
 3236 0bdb 01       		.uleb128 0x1
 3237 0bdc 9C       		.byte	0x9c
 3238 0bdd 000C0000 		.4byte	0xc00
 3239 0be1 25       		.uleb128 0x25
 3240 0be2 70747200 		.ascii	"ptr\000"
 3241 0be6 01       		.byte	0x1
 3242 0be7 8905     		.2byte	0x589
 3243 0be9 F9050000 		.4byte	0x5f9
 3244 0bed 02       		.uleb128 0x2
 3245 0bee 91       		.byte	0x91
 3246 0bef 74       		.sleb128 -12
 3247 0bf0 1B       		.uleb128 0x1b
 3248 0bf1 19080000 		.4byte	.LASF220
 3249 0bf5 01       		.byte	0x1
 3250 0bf6 8905     		.2byte	0x589
 3251 0bf8 77000000 		.4byte	0x77
 3252 0bfc 02       		.uleb128 0x2
 3253 0bfd 91       		.byte	0x91
 3254 0bfe 72       		.sleb128 -14
 3255 0bff 00       		.byte	0
 3256 0c00 26       		.uleb128 0x26
 3257 0c01 93040000 		.4byte	.LASF221
 3258 0c05 01       		.byte	0x1
 3259 0c06 84       		.byte	0x84
 3260 0c07 6B000000 		.4byte	0x6b
 3261 0c0b 05       		.uleb128 0x5
 3262 0c0c 03       		.byte	0x3
 3263 0c0d 24000000 		.4byte	cyBle_pendingFlashClearCccdHandle
 3264 0c11 27       		.uleb128 0x27
 3265 0c12 4A020000 		.4byte	.LASF222
 3266 0c16 01       		.byte	0x1
 3267 0c17 89       		.byte	0x89
 3268 0c18 0A070000 		.4byte	0x70a
 3269 0c1c 05       		.uleb128 0x5
 3270 0c1d 03       		.byte	0x3
 3271 0c1e 00000000 		.4byte	CyBle_ApplCallback
 3272 0c22 27       		.uleb128 0x27
 3273 0c23 220A0000 		.4byte	.LASF223
 3274 0c27 01       		.byte	0x1
 3275 0c28 2B       		.byte	0x2b
 3276 0c29 6B000000 		.4byte	0x6b
 3277 0c2d 05       		.uleb128 0x5
 3278 0c2e 03       		.byte	0x3
 3279 0c2f 00000000 		.4byte	cyBle_initVar
 3280 0c33 0B       		.uleb128 0xb
 3281 0c34 6B000000 		.4byte	0x6b
 3282 0c38 440C0000 		.4byte	0xc44
ARM GAS  C:\Users\ADMINI~1\AppData\Local\Temp\ccieeocD.s 			page 84


 3283 0c3c 18       		.uleb128 0x18
 3284 0c3d B5000000 		.4byte	0xb5
 3285 0c41 170B     		.2byte	0xb17
 3286 0c43 00       		.byte	0
 3287 0c44 27       		.uleb128 0x27
 3288 0c45 35020000 		.4byte	.LASF224
 3289 0c49 01       		.byte	0x1
 3290 0c4a 36       		.byte	0x36
 3291 0c4b 330C0000 		.4byte	0xc33
 3292 0c4f 05       		.uleb128 0x5
 3293 0c50 03       		.byte	0x3
 3294 0c51 00000000 		.4byte	cyBle_stackMemoryRam
 3295 0c55 28       		.uleb128 0x28
 3296 0c56 A20B0000 		.4byte	.LASF225
 3297 0c5a 07       		.byte	0x7
 3298 0c5b 8502     		.2byte	0x285
 3299 0c5d B0000000 		.4byte	0xb0
 3300 0c61 27       		.uleb128 0x27
 3301 0c62 87130000 		.4byte	.LASF226
 3302 0c66 01       		.byte	0x1
 3303 0c67 8A       		.byte	0x8a
 3304 0c68 8B030000 		.4byte	0x38b
 3305 0c6c 05       		.uleb128 0x5
 3306 0c6d 03       		.byte	0x3
 3307 0c6e 00000000 		.4byte	cyBle_deviceAddress
 3308 0c72 27       		.uleb128 0x27
 3309 0c73 07140000 		.4byte	.LASF227
 3310 0c77 01       		.byte	0x1
 3311 0c78 8B       		.byte	0x8b
 3312 0c79 83090000 		.4byte	0x983
 3313 0c7d 05       		.uleb128 0x5
 3314 0c7e 03       		.byte	0x3
 3315 0c7f 00000000 		.4byte	cyBle_sflashDeviceAddress
 3316 0c83 27       		.uleb128 0x27
 3317 0c84 98080000 		.4byte	.LASF228
 3318 0c88 01       		.byte	0x1
 3319 0c89 3C       		.byte	0x3c
 3320 0c8a 14050000 		.4byte	0x514
 3321 0c8e 05       		.uleb128 0x5
 3322 0c8f 03       		.byte	0x3
 3323 0c90 00000000 		.4byte	cyBle_discoveryParam
 3324 0c94 27       		.uleb128 0x27
 3325 0c95 F4020000 		.4byte	.LASF229
 3326 0c99 01       		.byte	0x1
 3327 0c9a 48       		.byte	0x48
 3328 0c9b 54050000 		.4byte	0x554
 3329 0c9f 05       		.uleb128 0x5
 3330 0ca0 03       		.byte	0x3
 3331 0ca1 00000000 		.4byte	cyBle_discoveryData
 3332 0ca5 27       		.uleb128 0x27
 3333 0ca6 9B130000 		.4byte	.LASF230
 3334 0caa 01       		.byte	0x1
 3335 0cab 51       		.byte	0x51
 3336 0cac 84050000 		.4byte	0x584
 3337 0cb0 05       		.uleb128 0x5
 3338 0cb1 03       		.byte	0x3
 3339 0cb2 00000000 		.4byte	cyBle_scanRspData
ARM GAS  C:\Users\ADMINI~1\AppData\Local\Temp\ccieeocD.s 			page 85


 3340 0cb6 27       		.uleb128 0x27
 3341 0cb7 020C0000 		.4byte	.LASF231
 3342 0cbb 01       		.byte	0x1
 3343 0cbc 61       		.byte	0x61
 3344 0cbd ED050000 		.4byte	0x5ed
 3345 0cc1 05       		.uleb128 0x5
 3346 0cc2 03       		.byte	0x3
 3347 0cc3 00000000 		.4byte	cyBle_discoveryModeInfo
 3348 0cc7 27       		.uleb128 0x27
 3349 0cc8 DB0D0000 		.4byte	.LASF232
 3350 0ccc 01       		.byte	0x1
 3351 0ccd 81       		.byte	0x81
 3352 0cce 6B000000 		.4byte	0x6b
 3353 0cd2 05       		.uleb128 0x5
 3354 0cd3 03       		.byte	0x3
 3355 0cd4 00000000 		.4byte	cyBle_pendingFlashWrite
 3356 0cd8 27       		.uleb128 0x27
 3357 0cd9 D70E0000 		.4byte	.LASF233
 3358 0cdd 01       		.byte	0x1
 3359 0cde 80       		.byte	0x80
 3360 0cdf 6B000000 		.4byte	0x6b
 3361 0ce3 05       		.uleb128 0x5
 3362 0ce4 03       		.byte	0x3
 3363 0ce5 00000000 		.4byte	cyBle_peerBonding
 3364 0ce9 0B       		.uleb128 0xb
 3365 0cea FE060000 		.4byte	0x6fe
 3366 0cee F90C0000 		.4byte	0xcf9
 3367 0cf2 0C       		.uleb128 0xc
 3368 0cf3 B5000000 		.4byte	0xb5
 3369 0cf7 12       		.byte	0x12
 3370 0cf8 00       		.byte	0
 3371 0cf9 29       		.uleb128 0x29
 3372 0cfa 9B100000 		.4byte	.LASF234
 3373 0cfe 08       		.byte	0x8
 3374 0cff E8       		.byte	0xe8
 3375 0d00 040D0000 		.4byte	0xd04
 3376 0d04 22       		.uleb128 0x22
 3377 0d05 E90C0000 		.4byte	0xce9
 3378 0d09 29       		.uleb128 0x29
 3379 0d0a 98150000 		.4byte	.LASF235
 3380 0d0e 08       		.byte	0x8
 3381 0d0f EC       		.byte	0xec
 3382 0d10 12090000 		.4byte	0x912
 3383 0d14 29       		.uleb128 0x29
 3384 0d15 9B0D0000 		.4byte	.LASF236
 3385 0d19 08       		.byte	0x8
 3386 0d1a F4       		.byte	0xf4
 3387 0d1b 1F0D0000 		.4byte	0xd1f
 3388 0d1f 22       		.uleb128 0x22
 3389 0d20 90070000 		.4byte	0x790
 3390 0d24 28       		.uleb128 0x28
 3391 0d25 ED0A0000 		.4byte	.LASF237
 3392 0d29 09       		.byte	0x9
 3393 0d2a DA09     		.2byte	0x9da
 3394 0d2c C3070000 		.4byte	0x7c3
 3395 0d30 28       		.uleb128 0x28
 3396 0d31 620C0000 		.4byte	.LASF238
ARM GAS  C:\Users\ADMINI~1\AppData\Local\Temp\ccieeocD.s 			page 86


 3397 0d35 09       		.byte	0x9
 3398 0d36 DB09     		.2byte	0x9db
 3399 0d38 23060000 		.4byte	0x623
 3400 0d3c 28       		.uleb128 0x28
 3401 0d3d 8C030000 		.4byte	.LASF239
 3402 0d41 09       		.byte	0x9
 3403 0d42 DC09     		.2byte	0x9dc
 3404 0d44 B0000000 		.4byte	0xb0
 3405 0d48 28       		.uleb128 0x28
 3406 0d49 F30D0000 		.4byte	.LASF240
 3407 0d4d 09       		.byte	0x9
 3408 0d4e DF09     		.2byte	0x9df
 3409 0d50 6B000000 		.4byte	0x6b
 3410 0d54 00       		.byte	0
 3411              		.section	.debug_abbrev,"",%progbits
 3412              	.Ldebug_abbrev0:
 3413 0000 01       		.uleb128 0x1
 3414 0001 11       		.uleb128 0x11
 3415 0002 01       		.byte	0x1
 3416 0003 25       		.uleb128 0x25
 3417 0004 0E       		.uleb128 0xe
 3418 0005 13       		.uleb128 0x13
 3419 0006 0B       		.uleb128 0xb
 3420 0007 03       		.uleb128 0x3
 3421 0008 0E       		.uleb128 0xe
 3422 0009 1B       		.uleb128 0x1b
 3423 000a 0E       		.uleb128 0xe
 3424 000b 55       		.uleb128 0x55
 3425 000c 17       		.uleb128 0x17
 3426 000d 11       		.uleb128 0x11
 3427 000e 01       		.uleb128 0x1
 3428 000f 10       		.uleb128 0x10
 3429 0010 17       		.uleb128 0x17
 3430 0011 00       		.byte	0
 3431 0012 00       		.byte	0
 3432 0013 02       		.uleb128 0x2
 3433 0014 24       		.uleb128 0x24
 3434 0015 00       		.byte	0
 3435 0016 0B       		.uleb128 0xb
 3436 0017 0B       		.uleb128 0xb
 3437 0018 3E       		.uleb128 0x3e
 3438 0019 0B       		.uleb128 0xb
 3439 001a 03       		.uleb128 0x3
 3440 001b 0E       		.uleb128 0xe
 3441 001c 00       		.byte	0
 3442 001d 00       		.byte	0
 3443 001e 03       		.uleb128 0x3
 3444 001f 24       		.uleb128 0x24
 3445 0020 00       		.byte	0
 3446 0021 0B       		.uleb128 0xb
 3447 0022 0B       		.uleb128 0xb
 3448 0023 3E       		.uleb128 0x3e
 3449 0024 0B       		.uleb128 0xb
 3450 0025 03       		.uleb128 0x3
 3451 0026 08       		.uleb128 0x8
 3452 0027 00       		.byte	0
 3453 0028 00       		.byte	0
ARM GAS  C:\Users\ADMINI~1\AppData\Local\Temp\ccieeocD.s 			page 87


 3454 0029 04       		.uleb128 0x4
 3455 002a 16       		.uleb128 0x16
 3456 002b 00       		.byte	0
 3457 002c 03       		.uleb128 0x3
 3458 002d 0E       		.uleb128 0xe
 3459 002e 3A       		.uleb128 0x3a
 3460 002f 0B       		.uleb128 0xb
 3461 0030 3B       		.uleb128 0x3b
 3462 0031 05       		.uleb128 0x5
 3463 0032 49       		.uleb128 0x49
 3464 0033 13       		.uleb128 0x13
 3465 0034 00       		.byte	0
 3466 0035 00       		.byte	0
 3467 0036 05       		.uleb128 0x5
 3468 0037 35       		.uleb128 0x35
 3469 0038 00       		.byte	0
 3470 0039 49       		.uleb128 0x49
 3471 003a 13       		.uleb128 0x13
 3472 003b 00       		.byte	0
 3473 003c 00       		.byte	0
 3474 003d 06       		.uleb128 0x6
 3475 003e 0F       		.uleb128 0xf
 3476 003f 00       		.byte	0
 3477 0040 0B       		.uleb128 0xb
 3478 0041 0B       		.uleb128 0xb
 3479 0042 00       		.byte	0
 3480 0043 00       		.byte	0
 3481 0044 07       		.uleb128 0x7
 3482 0045 04       		.uleb128 0x4
 3483 0046 01       		.byte	0x1
 3484 0047 0B       		.uleb128 0xb
 3485 0048 0B       		.uleb128 0xb
 3486 0049 3A       		.uleb128 0x3a
 3487 004a 0B       		.uleb128 0xb
 3488 004b 3B       		.uleb128 0x3b
 3489 004c 05       		.uleb128 0x5
 3490 004d 01       		.uleb128 0x1
 3491 004e 13       		.uleb128 0x13
 3492 004f 00       		.byte	0
 3493 0050 00       		.byte	0
 3494 0051 08       		.uleb128 0x8
 3495 0052 28       		.uleb128 0x28
 3496 0053 00       		.byte	0
 3497 0054 03       		.uleb128 0x3
 3498 0055 0E       		.uleb128 0xe
 3499 0056 1C       		.uleb128 0x1c
 3500 0057 0D       		.uleb128 0xd
 3501 0058 00       		.byte	0
 3502 0059 00       		.byte	0
 3503 005a 09       		.uleb128 0x9
 3504 005b 13       		.uleb128 0x13
 3505 005c 01       		.byte	0x1
 3506 005d 0B       		.uleb128 0xb
 3507 005e 0B       		.uleb128 0xb
 3508 005f 3A       		.uleb128 0x3a
 3509 0060 0B       		.uleb128 0xb
 3510 0061 3B       		.uleb128 0x3b
ARM GAS  C:\Users\ADMINI~1\AppData\Local\Temp\ccieeocD.s 			page 88


 3511 0062 05       		.uleb128 0x5
 3512 0063 01       		.uleb128 0x1
 3513 0064 13       		.uleb128 0x13
 3514 0065 00       		.byte	0
 3515 0066 00       		.byte	0
 3516 0067 0A       		.uleb128 0xa
 3517 0068 0D       		.uleb128 0xd
 3518 0069 00       		.byte	0
 3519 006a 03       		.uleb128 0x3
 3520 006b 0E       		.uleb128 0xe
 3521 006c 3A       		.uleb128 0x3a
 3522 006d 0B       		.uleb128 0xb
 3523 006e 3B       		.uleb128 0x3b
 3524 006f 05       		.uleb128 0x5
 3525 0070 49       		.uleb128 0x49
 3526 0071 13       		.uleb128 0x13
 3527 0072 38       		.uleb128 0x38
 3528 0073 0B       		.uleb128 0xb
 3529 0074 00       		.byte	0
 3530 0075 00       		.byte	0
 3531 0076 0B       		.uleb128 0xb
 3532 0077 01       		.uleb128 0x1
 3533 0078 01       		.byte	0x1
 3534 0079 49       		.uleb128 0x49
 3535 007a 13       		.uleb128 0x13
 3536 007b 01       		.uleb128 0x1
 3537 007c 13       		.uleb128 0x13
 3538 007d 00       		.byte	0
 3539 007e 00       		.byte	0
 3540 007f 0C       		.uleb128 0xc
 3541 0080 21       		.uleb128 0x21
 3542 0081 00       		.byte	0
 3543 0082 49       		.uleb128 0x49
 3544 0083 13       		.uleb128 0x13
 3545 0084 2F       		.uleb128 0x2f
 3546 0085 0B       		.uleb128 0xb
 3547 0086 00       		.byte	0
 3548 0087 00       		.byte	0
 3549 0088 0D       		.uleb128 0xd
 3550 0089 0F       		.uleb128 0xf
 3551 008a 00       		.byte	0
 3552 008b 0B       		.uleb128 0xb
 3553 008c 0B       		.uleb128 0xb
 3554 008d 49       		.uleb128 0x49
 3555 008e 13       		.uleb128 0x13
 3556 008f 00       		.byte	0
 3557 0090 00       		.byte	0
 3558 0091 0E       		.uleb128 0xe
 3559 0092 04       		.uleb128 0x4
 3560 0093 01       		.byte	0x1
 3561 0094 0B       		.uleb128 0xb
 3562 0095 0B       		.uleb128 0xb
 3563 0096 3A       		.uleb128 0x3a
 3564 0097 0B       		.uleb128 0xb
 3565 0098 3B       		.uleb128 0x3b
 3566 0099 0B       		.uleb128 0xb
 3567 009a 01       		.uleb128 0x1
ARM GAS  C:\Users\ADMINI~1\AppData\Local\Temp\ccieeocD.s 			page 89


 3568 009b 13       		.uleb128 0x13
 3569 009c 00       		.byte	0
 3570 009d 00       		.byte	0
 3571 009e 0F       		.uleb128 0xf
 3572 009f 16       		.uleb128 0x16
 3573 00a0 00       		.byte	0
 3574 00a1 03       		.uleb128 0x3
 3575 00a2 0E       		.uleb128 0xe
 3576 00a3 3A       		.uleb128 0x3a
 3577 00a4 0B       		.uleb128 0xb
 3578 00a5 3B       		.uleb128 0x3b
 3579 00a6 0B       		.uleb128 0xb
 3580 00a7 49       		.uleb128 0x49
 3581 00a8 13       		.uleb128 0x13
 3582 00a9 00       		.byte	0
 3583 00aa 00       		.byte	0
 3584 00ab 10       		.uleb128 0x10
 3585 00ac 13       		.uleb128 0x13
 3586 00ad 01       		.byte	0x1
 3587 00ae 0B       		.uleb128 0xb
 3588 00af 0B       		.uleb128 0xb
 3589 00b0 3A       		.uleb128 0x3a
 3590 00b1 0B       		.uleb128 0xb
 3591 00b2 3B       		.uleb128 0x3b
 3592 00b3 0B       		.uleb128 0xb
 3593 00b4 01       		.uleb128 0x1
 3594 00b5 13       		.uleb128 0x13
 3595 00b6 00       		.byte	0
 3596 00b7 00       		.byte	0
 3597 00b8 11       		.uleb128 0x11
 3598 00b9 0D       		.uleb128 0xd
 3599 00ba 00       		.byte	0
 3600 00bb 03       		.uleb128 0x3
 3601 00bc 0E       		.uleb128 0xe
 3602 00bd 3A       		.uleb128 0x3a
 3603 00be 0B       		.uleb128 0xb
 3604 00bf 3B       		.uleb128 0x3b
 3605 00c0 0B       		.uleb128 0xb
 3606 00c1 49       		.uleb128 0x49
 3607 00c2 13       		.uleb128 0x13
 3608 00c3 38       		.uleb128 0x38
 3609 00c4 0B       		.uleb128 0xb
 3610 00c5 00       		.byte	0
 3611 00c6 00       		.byte	0
 3612 00c7 12       		.uleb128 0x12
 3613 00c8 17       		.uleb128 0x17
 3614 00c9 01       		.byte	0x1
 3615 00ca 0B       		.uleb128 0xb
 3616 00cb 0B       		.uleb128 0xb
 3617 00cc 3A       		.uleb128 0x3a
 3618 00cd 0B       		.uleb128 0xb
 3619 00ce 3B       		.uleb128 0x3b
 3620 00cf 0B       		.uleb128 0xb
 3621 00d0 01       		.uleb128 0x1
 3622 00d1 13       		.uleb128 0x13
 3623 00d2 00       		.byte	0
 3624 00d3 00       		.byte	0
ARM GAS  C:\Users\ADMINI~1\AppData\Local\Temp\ccieeocD.s 			page 90


 3625 00d4 13       		.uleb128 0x13
 3626 00d5 0D       		.uleb128 0xd
 3627 00d6 00       		.byte	0
 3628 00d7 03       		.uleb128 0x3
 3629 00d8 0E       		.uleb128 0xe
 3630 00d9 3A       		.uleb128 0x3a
 3631 00da 0B       		.uleb128 0xb
 3632 00db 3B       		.uleb128 0x3b
 3633 00dc 0B       		.uleb128 0xb
 3634 00dd 49       		.uleb128 0x49
 3635 00de 13       		.uleb128 0x13
 3636 00df 00       		.byte	0
 3637 00e0 00       		.byte	0
 3638 00e1 14       		.uleb128 0x14
 3639 00e2 15       		.uleb128 0x15
 3640 00e3 01       		.byte	0x1
 3641 00e4 27       		.uleb128 0x27
 3642 00e5 19       		.uleb128 0x19
 3643 00e6 01       		.uleb128 0x1
 3644 00e7 13       		.uleb128 0x13
 3645 00e8 00       		.byte	0
 3646 00e9 00       		.byte	0
 3647 00ea 15       		.uleb128 0x15
 3648 00eb 05       		.uleb128 0x5
 3649 00ec 00       		.byte	0
 3650 00ed 49       		.uleb128 0x49
 3651 00ee 13       		.uleb128 0x13
 3652 00ef 00       		.byte	0
 3653 00f0 00       		.byte	0
 3654 00f1 16       		.uleb128 0x16
 3655 00f2 13       		.uleb128 0x13
 3656 00f3 01       		.byte	0x1
 3657 00f4 0B       		.uleb128 0xb
 3658 00f5 05       		.uleb128 0x5
 3659 00f6 3A       		.uleb128 0x3a
 3660 00f7 0B       		.uleb128 0xb
 3661 00f8 3B       		.uleb128 0x3b
 3662 00f9 0B       		.uleb128 0xb
 3663 00fa 01       		.uleb128 0x1
 3664 00fb 13       		.uleb128 0x13
 3665 00fc 00       		.byte	0
 3666 00fd 00       		.byte	0
 3667 00fe 17       		.uleb128 0x17
 3668 00ff 0D       		.uleb128 0xd
 3669 0100 00       		.byte	0
 3670 0101 03       		.uleb128 0x3
 3671 0102 0E       		.uleb128 0xe
 3672 0103 3A       		.uleb128 0x3a
 3673 0104 0B       		.uleb128 0xb
 3674 0105 3B       		.uleb128 0x3b
 3675 0106 0B       		.uleb128 0xb
 3676 0107 49       		.uleb128 0x49
 3677 0108 13       		.uleb128 0x13
 3678 0109 38       		.uleb128 0x38
 3679 010a 05       		.uleb128 0x5
 3680 010b 00       		.byte	0
 3681 010c 00       		.byte	0
ARM GAS  C:\Users\ADMINI~1\AppData\Local\Temp\ccieeocD.s 			page 91


 3682 010d 18       		.uleb128 0x18
 3683 010e 21       		.uleb128 0x21
 3684 010f 00       		.byte	0
 3685 0110 49       		.uleb128 0x49
 3686 0111 13       		.uleb128 0x13
 3687 0112 2F       		.uleb128 0x2f
 3688 0113 05       		.uleb128 0x5
 3689 0114 00       		.byte	0
 3690 0115 00       		.byte	0
 3691 0116 19       		.uleb128 0x19
 3692 0117 2E       		.uleb128 0x2e
 3693 0118 00       		.byte	0
 3694 0119 3F       		.uleb128 0x3f
 3695 011a 19       		.uleb128 0x19
 3696 011b 03       		.uleb128 0x3
 3697 011c 0E       		.uleb128 0xe
 3698 011d 3A       		.uleb128 0x3a
 3699 011e 0B       		.uleb128 0xb
 3700 011f 3B       		.uleb128 0x3b
 3701 0120 0B       		.uleb128 0xb
 3702 0121 27       		.uleb128 0x27
 3703 0122 19       		.uleb128 0x19
 3704 0123 11       		.uleb128 0x11
 3705 0124 01       		.uleb128 0x1
 3706 0125 12       		.uleb128 0x12
 3707 0126 06       		.uleb128 0x6
 3708 0127 40       		.uleb128 0x40
 3709 0128 18       		.uleb128 0x18
 3710 0129 9642     		.uleb128 0x2116
 3711 012b 19       		.uleb128 0x19
 3712 012c 00       		.byte	0
 3713 012d 00       		.byte	0
 3714 012e 1A       		.uleb128 0x1a
 3715 012f 2E       		.uleb128 0x2e
 3716 0130 01       		.byte	0x1
 3717 0131 3F       		.uleb128 0x3f
 3718 0132 19       		.uleb128 0x19
 3719 0133 03       		.uleb128 0x3
 3720 0134 0E       		.uleb128 0xe
 3721 0135 3A       		.uleb128 0x3a
 3722 0136 0B       		.uleb128 0xb
 3723 0137 3B       		.uleb128 0x3b
 3724 0138 05       		.uleb128 0x5
 3725 0139 27       		.uleb128 0x27
 3726 013a 19       		.uleb128 0x19
 3727 013b 49       		.uleb128 0x49
 3728 013c 13       		.uleb128 0x13
 3729 013d 11       		.uleb128 0x11
 3730 013e 01       		.uleb128 0x1
 3731 013f 12       		.uleb128 0x12
 3732 0140 06       		.uleb128 0x6
 3733 0141 40       		.uleb128 0x40
 3734 0142 18       		.uleb128 0x18
 3735 0143 9642     		.uleb128 0x2116
 3736 0145 19       		.uleb128 0x19
 3737 0146 01       		.uleb128 0x1
 3738 0147 13       		.uleb128 0x13
ARM GAS  C:\Users\ADMINI~1\AppData\Local\Temp\ccieeocD.s 			page 92


 3739 0148 00       		.byte	0
 3740 0149 00       		.byte	0
 3741 014a 1B       		.uleb128 0x1b
 3742 014b 05       		.uleb128 0x5
 3743 014c 00       		.byte	0
 3744 014d 03       		.uleb128 0x3
 3745 014e 0E       		.uleb128 0xe
 3746 014f 3A       		.uleb128 0x3a
 3747 0150 0B       		.uleb128 0xb
 3748 0151 3B       		.uleb128 0x3b
 3749 0152 05       		.uleb128 0x5
 3750 0153 49       		.uleb128 0x49
 3751 0154 13       		.uleb128 0x13
 3752 0155 02       		.uleb128 0x2
 3753 0156 18       		.uleb128 0x18
 3754 0157 00       		.byte	0
 3755 0158 00       		.byte	0
 3756 0159 1C       		.uleb128 0x1c
 3757 015a 34       		.uleb128 0x34
 3758 015b 00       		.byte	0
 3759 015c 03       		.uleb128 0x3
 3760 015d 0E       		.uleb128 0xe
 3761 015e 3A       		.uleb128 0x3a
 3762 015f 0B       		.uleb128 0xb
 3763 0160 3B       		.uleb128 0x3b
 3764 0161 05       		.uleb128 0x5
 3765 0162 49       		.uleb128 0x49
 3766 0163 13       		.uleb128 0x13
 3767 0164 02       		.uleb128 0x2
 3768 0165 18       		.uleb128 0x18
 3769 0166 00       		.byte	0
 3770 0167 00       		.byte	0
 3771 0168 1D       		.uleb128 0x1d
 3772 0169 0B       		.uleb128 0xb
 3773 016a 01       		.byte	0x1
 3774 016b 11       		.uleb128 0x11
 3775 016c 01       		.uleb128 0x1
 3776 016d 12       		.uleb128 0x12
 3777 016e 06       		.uleb128 0x6
 3778 016f 00       		.byte	0
 3779 0170 00       		.byte	0
 3780 0171 1E       		.uleb128 0x1e
 3781 0172 2E       		.uleb128 0x2e
 3782 0173 00       		.byte	0
 3783 0174 3F       		.uleb128 0x3f
 3784 0175 19       		.uleb128 0x19
 3785 0176 03       		.uleb128 0x3
 3786 0177 0E       		.uleb128 0xe
 3787 0178 3A       		.uleb128 0x3a
 3788 0179 0B       		.uleb128 0xb
 3789 017a 3B       		.uleb128 0x3b
 3790 017b 05       		.uleb128 0x5
 3791 017c 27       		.uleb128 0x27
 3792 017d 19       		.uleb128 0x19
 3793 017e 11       		.uleb128 0x11
 3794 017f 01       		.uleb128 0x1
 3795 0180 12       		.uleb128 0x12
ARM GAS  C:\Users\ADMINI~1\AppData\Local\Temp\ccieeocD.s 			page 93


 3796 0181 06       		.uleb128 0x6
 3797 0182 40       		.uleb128 0x40
 3798 0183 18       		.uleb128 0x18
 3799 0184 9642     		.uleb128 0x2116
 3800 0186 19       		.uleb128 0x19
 3801 0187 00       		.byte	0
 3802 0188 00       		.byte	0
 3803 0189 1F       		.uleb128 0x1f
 3804 018a 0B       		.uleb128 0xb
 3805 018b 01       		.byte	0x1
 3806 018c 11       		.uleb128 0x11
 3807 018d 01       		.uleb128 0x1
 3808 018e 12       		.uleb128 0x12
 3809 018f 06       		.uleb128 0x6
 3810 0190 01       		.uleb128 0x1
 3811 0191 13       		.uleb128 0x13
 3812 0192 00       		.byte	0
 3813 0193 00       		.byte	0
 3814 0194 20       		.uleb128 0x20
 3815 0195 2E       		.uleb128 0x2e
 3816 0196 01       		.byte	0x1
 3817 0197 3F       		.uleb128 0x3f
 3818 0198 19       		.uleb128 0x19
 3819 0199 03       		.uleb128 0x3
 3820 019a 0E       		.uleb128 0xe
 3821 019b 3A       		.uleb128 0x3a
 3822 019c 0B       		.uleb128 0xb
 3823 019d 3B       		.uleb128 0x3b
 3824 019e 05       		.uleb128 0x5
 3825 019f 27       		.uleb128 0x27
 3826 01a0 19       		.uleb128 0x19
 3827 01a1 11       		.uleb128 0x11
 3828 01a2 01       		.uleb128 0x1
 3829 01a3 12       		.uleb128 0x12
 3830 01a4 06       		.uleb128 0x6
 3831 01a5 40       		.uleb128 0x40
 3832 01a6 18       		.uleb128 0x18
 3833 01a7 9742     		.uleb128 0x2117
 3834 01a9 19       		.uleb128 0x19
 3835 01aa 01       		.uleb128 0x1
 3836 01ab 13       		.uleb128 0x13
 3837 01ac 00       		.byte	0
 3838 01ad 00       		.byte	0
 3839 01ae 21       		.uleb128 0x21
 3840 01af 34       		.uleb128 0x34
 3841 01b0 00       		.byte	0
 3842 01b1 03       		.uleb128 0x3
 3843 01b2 08       		.uleb128 0x8
 3844 01b3 3A       		.uleb128 0x3a
 3845 01b4 0B       		.uleb128 0xb
 3846 01b5 3B       		.uleb128 0x3b
 3847 01b6 05       		.uleb128 0x5
 3848 01b7 49       		.uleb128 0x49
 3849 01b8 13       		.uleb128 0x13
 3850 01b9 02       		.uleb128 0x2
 3851 01ba 18       		.uleb128 0x18
 3852 01bb 00       		.byte	0
ARM GAS  C:\Users\ADMINI~1\AppData\Local\Temp\ccieeocD.s 			page 94


 3853 01bc 00       		.byte	0
 3854 01bd 22       		.uleb128 0x22
 3855 01be 26       		.uleb128 0x26
 3856 01bf 00       		.byte	0
 3857 01c0 49       		.uleb128 0x49
 3858 01c1 13       		.uleb128 0x13
 3859 01c2 00       		.byte	0
 3860 01c3 00       		.byte	0
 3861 01c4 23       		.uleb128 0x23
 3862 01c5 2E       		.uleb128 0x2e
 3863 01c6 01       		.byte	0x1
 3864 01c7 03       		.uleb128 0x3
 3865 01c8 0E       		.uleb128 0xe
 3866 01c9 3A       		.uleb128 0x3a
 3867 01ca 0B       		.uleb128 0xb
 3868 01cb 3B       		.uleb128 0x3b
 3869 01cc 05       		.uleb128 0x5
 3870 01cd 27       		.uleb128 0x27
 3871 01ce 19       		.uleb128 0x19
 3872 01cf 11       		.uleb128 0x11
 3873 01d0 01       		.uleb128 0x1
 3874 01d1 12       		.uleb128 0x12
 3875 01d2 06       		.uleb128 0x6
 3876 01d3 40       		.uleb128 0x40
 3877 01d4 18       		.uleb128 0x18
 3878 01d5 9742     		.uleb128 0x2117
 3879 01d7 19       		.uleb128 0x19
 3880 01d8 01       		.uleb128 0x1
 3881 01d9 13       		.uleb128 0x13
 3882 01da 00       		.byte	0
 3883 01db 00       		.byte	0
 3884 01dc 24       		.uleb128 0x24
 3885 01dd 2E       		.uleb128 0x2e
 3886 01de 01       		.byte	0x1
 3887 01df 3F       		.uleb128 0x3f
 3888 01e0 19       		.uleb128 0x19
 3889 01e1 03       		.uleb128 0x3
 3890 01e2 0E       		.uleb128 0xe
 3891 01e3 3A       		.uleb128 0x3a
 3892 01e4 0B       		.uleb128 0xb
 3893 01e5 3B       		.uleb128 0x3b
 3894 01e6 05       		.uleb128 0x5
 3895 01e7 27       		.uleb128 0x27
 3896 01e8 19       		.uleb128 0x19
 3897 01e9 49       		.uleb128 0x49
 3898 01ea 13       		.uleb128 0x13
 3899 01eb 11       		.uleb128 0x11
 3900 01ec 01       		.uleb128 0x1
 3901 01ed 12       		.uleb128 0x12
 3902 01ee 06       		.uleb128 0x6
 3903 01ef 40       		.uleb128 0x40
 3904 01f0 18       		.uleb128 0x18
 3905 01f1 9742     		.uleb128 0x2117
 3906 01f3 19       		.uleb128 0x19
 3907 01f4 01       		.uleb128 0x1
 3908 01f5 13       		.uleb128 0x13
 3909 01f6 00       		.byte	0
ARM GAS  C:\Users\ADMINI~1\AppData\Local\Temp\ccieeocD.s 			page 95


 3910 01f7 00       		.byte	0
 3911 01f8 25       		.uleb128 0x25
 3912 01f9 05       		.uleb128 0x5
 3913 01fa 00       		.byte	0
 3914 01fb 03       		.uleb128 0x3
 3915 01fc 08       		.uleb128 0x8
 3916 01fd 3A       		.uleb128 0x3a
 3917 01fe 0B       		.uleb128 0xb
 3918 01ff 3B       		.uleb128 0x3b
 3919 0200 05       		.uleb128 0x5
 3920 0201 49       		.uleb128 0x49
 3921 0202 13       		.uleb128 0x13
 3922 0203 02       		.uleb128 0x2
 3923 0204 18       		.uleb128 0x18
 3924 0205 00       		.byte	0
 3925 0206 00       		.byte	0
 3926 0207 26       		.uleb128 0x26
 3927 0208 34       		.uleb128 0x34
 3928 0209 00       		.byte	0
 3929 020a 03       		.uleb128 0x3
 3930 020b 0E       		.uleb128 0xe
 3931 020c 3A       		.uleb128 0x3a
 3932 020d 0B       		.uleb128 0xb
 3933 020e 3B       		.uleb128 0x3b
 3934 020f 0B       		.uleb128 0xb
 3935 0210 49       		.uleb128 0x49
 3936 0211 13       		.uleb128 0x13
 3937 0212 02       		.uleb128 0x2
 3938 0213 18       		.uleb128 0x18
 3939 0214 00       		.byte	0
 3940 0215 00       		.byte	0
 3941 0216 27       		.uleb128 0x27
 3942 0217 34       		.uleb128 0x34
 3943 0218 00       		.byte	0
 3944 0219 03       		.uleb128 0x3
 3945 021a 0E       		.uleb128 0xe
 3946 021b 3A       		.uleb128 0x3a
 3947 021c 0B       		.uleb128 0xb
 3948 021d 3B       		.uleb128 0x3b
 3949 021e 0B       		.uleb128 0xb
 3950 021f 49       		.uleb128 0x49
 3951 0220 13       		.uleb128 0x13
 3952 0221 3F       		.uleb128 0x3f
 3953 0222 19       		.uleb128 0x19
 3954 0223 02       		.uleb128 0x2
 3955 0224 18       		.uleb128 0x18
 3956 0225 00       		.byte	0
 3957 0226 00       		.byte	0
 3958 0227 28       		.uleb128 0x28
 3959 0228 34       		.uleb128 0x34
 3960 0229 00       		.byte	0
 3961 022a 03       		.uleb128 0x3
 3962 022b 0E       		.uleb128 0xe
 3963 022c 3A       		.uleb128 0x3a
 3964 022d 0B       		.uleb128 0xb
 3965 022e 3B       		.uleb128 0x3b
 3966 022f 05       		.uleb128 0x5
ARM GAS  C:\Users\ADMINI~1\AppData\Local\Temp\ccieeocD.s 			page 96


 3967 0230 49       		.uleb128 0x49
 3968 0231 13       		.uleb128 0x13
 3969 0232 3F       		.uleb128 0x3f
 3970 0233 19       		.uleb128 0x19
 3971 0234 3C       		.uleb128 0x3c
 3972 0235 19       		.uleb128 0x19
 3973 0236 00       		.byte	0
 3974 0237 00       		.byte	0
 3975 0238 29       		.uleb128 0x29
 3976 0239 34       		.uleb128 0x34
 3977 023a 00       		.byte	0
 3978 023b 03       		.uleb128 0x3
 3979 023c 0E       		.uleb128 0xe
 3980 023d 3A       		.uleb128 0x3a
 3981 023e 0B       		.uleb128 0xb
 3982 023f 3B       		.uleb128 0x3b
 3983 0240 0B       		.uleb128 0xb
 3984 0241 49       		.uleb128 0x49
 3985 0242 13       		.uleb128 0x13
 3986 0243 3F       		.uleb128 0x3f
 3987 0244 19       		.uleb128 0x19
 3988 0245 3C       		.uleb128 0x3c
 3989 0246 19       		.uleb128 0x19
 3990 0247 00       		.byte	0
 3991 0248 00       		.byte	0
 3992 0249 00       		.byte	0
 3993              		.section	.debug_aranges,"",%progbits
 3994 0000 84000000 		.4byte	0x84
 3995 0004 0200     		.2byte	0x2
 3996 0006 00000000 		.4byte	.Ldebug_info0
 3997 000a 04       		.byte	0x4
 3998 000b 00       		.byte	0
 3999 000c 0000     		.2byte	0
 4000 000e 0000     		.2byte	0
 4001 0010 00000000 		.4byte	.LFB2
 4002 0014 40000000 		.4byte	.LFE2-.LFB2
 4003 0018 00000000 		.4byte	.LFB3
 4004 001c 0C000000 		.4byte	.LFE3-.LFB3
 4005 0020 00000000 		.4byte	.LFB4
 4006 0024 34010000 		.4byte	.LFE4-.LFB4
 4007 0028 00000000 		.4byte	.LFB5
 4008 002c 18000000 		.4byte	.LFE5-.LFB5
 4009 0030 00000000 		.4byte	.LFB6
 4010 0034 A0010000 		.4byte	.LFE6-.LFB6
 4011 0038 00000000 		.4byte	.LFB7
 4012 003c E8000000 		.4byte	.LFE7-.LFB7
 4013 0040 00000000 		.4byte	.LFB8
 4014 0044 D4000000 		.4byte	.LFE8-.LFB8
 4015 0048 00000000 		.4byte	.LFB9
 4016 004c 20000000 		.4byte	.LFE9-.LFB9
 4017 0050 00000000 		.4byte	.LFB10
 4018 0054 60000000 		.4byte	.LFE10-.LFB10
 4019 0058 00000000 		.4byte	.LFB11
 4020 005c A4010000 		.4byte	.LFE11-.LFB11
 4021 0060 00000000 		.4byte	.LFB12
 4022 0064 C8000000 		.4byte	.LFE12-.LFB12
 4023 0068 00000000 		.4byte	.LFB13
ARM GAS  C:\Users\ADMINI~1\AppData\Local\Temp\ccieeocD.s 			page 97


 4024 006c A4000000 		.4byte	.LFE13-.LFB13
 4025 0070 00000000 		.4byte	.LFB14
 4026 0074 26000000 		.4byte	.LFE14-.LFB14
 4027 0078 00000000 		.4byte	.LFB15
 4028 007c 2E000000 		.4byte	.LFE15-.LFB15
 4029 0080 00000000 		.4byte	0
 4030 0084 00000000 		.4byte	0
 4031              		.section	.debug_ranges,"",%progbits
 4032              	.Ldebug_ranges0:
 4033 0000 00000000 		.4byte	.LFB2
 4034 0004 40000000 		.4byte	.LFE2
 4035 0008 00000000 		.4byte	.LFB3
 4036 000c 0C000000 		.4byte	.LFE3
 4037 0010 00000000 		.4byte	.LFB4
 4038 0014 34010000 		.4byte	.LFE4
 4039 0018 00000000 		.4byte	.LFB5
 4040 001c 18000000 		.4byte	.LFE5
 4041 0020 00000000 		.4byte	.LFB6
 4042 0024 A0010000 		.4byte	.LFE6
 4043 0028 00000000 		.4byte	.LFB7
 4044 002c E8000000 		.4byte	.LFE7
 4045 0030 00000000 		.4byte	.LFB8
 4046 0034 D4000000 		.4byte	.LFE8
 4047 0038 00000000 		.4byte	.LFB9
 4048 003c 20000000 		.4byte	.LFE9
 4049 0040 00000000 		.4byte	.LFB10
 4050 0044 60000000 		.4byte	.LFE10
 4051 0048 00000000 		.4byte	.LFB11
 4052 004c A4010000 		.4byte	.LFE11
 4053 0050 00000000 		.4byte	.LFB12
 4054 0054 C8000000 		.4byte	.LFE12
 4055 0058 00000000 		.4byte	.LFB13
 4056 005c A4000000 		.4byte	.LFE13
 4057 0060 00000000 		.4byte	.LFB14
 4058 0064 26000000 		.4byte	.LFE14
 4059 0068 00000000 		.4byte	.LFB15
 4060 006c 2E000000 		.4byte	.LFE15
 4061 0070 00000000 		.4byte	0
 4062 0074 00000000 		.4byte	0
 4063              		.section	.debug_line,"",%progbits
 4064              	.Ldebug_line0:
 4065 0000 DF020000 		.section	.debug_str,"MS",%progbits,1
 4065      0200B800 
 4065      00000201 
 4065      FB0E0D00 
 4065      01010101 
 4066              	.LASF77:
 4067 0000 4359424C 		.ascii	"CYBLE_EVT_L2CAP_CBFC_RX_CREDIT_IND\000"
 4067      455F4556 
 4067      545F4C32 
 4067      4341505F 
 4067      43424643 
 4068              	.LASF22:
 4069 0023 4359424C 		.ascii	"CYBLE_EVT_STACK_BUSY_STATUS\000"
 4069      455F4556 
 4069      545F5354 
 4069      41434B5F 
ARM GAS  C:\Users\ADMINI~1\AppData\Local\Temp\ccieeocD.s 			page 98


 4069      42555359 
 4070              	.LASF181:
 4071 003f 4359424C 		.ascii	"CYBLE_STATE_STOPPED\000"
 4071      455F5354 
 4071      4154455F 
 4071      53544F50 
 4071      50454400 
 4072              	.LASF76:
 4073 0053 4359424C 		.ascii	"CYBLE_EVT_L2CAP_CBFC_DATA_READ\000"
 4073      455F4556 
 4073      545F4C32 
 4073      4341505F 
 4073      43424643 
 4074              	.LASF159:
 4075 0072 4359424C 		.ascii	"CYBLE_CONN_HANDLE_T\000"
 4075      455F434F 
 4075      4E4E5F48 
 4075      414E444C 
 4075      455F5400 
 4076              	.LASF200:
 4077 0086 64656661 		.ascii	"defaultValuesCCCD\000"
 4077      756C7456 
 4077      616C7565 
 4077      73434343 
 4077      4400
 4078              	.LASF86:
 4079 0098 4359424C 		.ascii	"CYBLE_ERROR_MEMORY_ALLOCATION_FAILED\000"
 4079      455F4552 
 4079      524F525F 
 4079      4D454D4F 
 4079      52595F41 
 4080              	.LASF149:
 4081 00bd 4359424C 		.ascii	"CYBLE_GAPP_DISC_DATA_T\000"
 4081      455F4741 
 4081      50505F44 
 4081      4953435F 
 4081      44415441 
 4082              	.LASF43:
 4083 00d4 4359424C 		.ascii	"CYBLE_EVT_GAP_SMP_NEGOTIATED_AUTH_INFO\000"
 4083      455F4556 
 4083      545F4741 
 4083      505F534D 
 4083      505F4E45 
 4084              	.LASF109:
 4085 00fb 4359424C 		.ascii	"CYBLE_ERROR_CONTROLLER_BUSY\000"
 4085      455F4552 
 4085      524F525F 
 4085      434F4E54 
 4085      524F4C4C 
 4086              	.LASF34:
 4087 0117 4359424C 		.ascii	"CYBLE_EVT_GAP_CONNECTION_UPDATE_COMPLETE\000"
 4087      455F4556 
 4087      545F4741 
 4087      505F434F 
 4087      4E4E4543 
 4088              	.LASF144:
 4089 0140 61647643 		.ascii	"advChannelMap\000"
ARM GAS  C:\Users\ADMINI~1\AppData\Local\Temp\ccieeocD.s 			page 99


 4089      68616E6E 
 4089      656C4D61 
 4089      7000
 4090              	.LASF75:
 4091 014e 4359424C 		.ascii	"CYBLE_EVT_L2CAP_CBFC_DISCONN_CNF\000"
 4091      455F4556 
 4091      545F4C32 
 4091      4341505F 
 4091      43424643 
 4092              	.LASF107:
 4093 016f 4359424C 		.ascii	"CYBLE_ERROR_UNSUPPORTED_FEATURE_OR_PARAMETER_VALUE\000"
 4093      455F4552 
 4093      524F525F 
 4093      554E5355 
 4093      50504F52 
 4094              	.LASF133:
 4095 01a2 4359424C 		.ascii	"CYBLE_GAPP_CONNECTABLE_HIGH_DC_DIRECTED_ADV\000"
 4095      455F4741 
 4095      50505F43 
 4095      4F4E4E45 
 4095      43544142 
 4096              	.LASF39:
 4097 01ce 4359424C 		.ascii	"CYBLE_EVT_GAP_OOB_GENERATED_NOTIFICATION\000"
 4097      455F4556 
 4097      545F4741 
 4097      505F4F4F 
 4097      425F4745 
 4098              	.LASF55:
 4099 01f7 4359424C 		.ascii	"CYBLE_EVT_GATTC_READ_MULTI_RSP\000"
 4099      455F4556 
 4099      545F4741 
 4099      5454435F 
 4099      52454144 
 4100              	.LASF60:
 4101 0216 4359424C 		.ascii	"CYBLE_EVT_GATTS_EXEC_WRITE_REQ\000"
 4101      455F4556 
 4101      545F4741 
 4101      5454535F 
 4101      45584543 
 4102              	.LASF224:
 4103 0235 6379426C 		.ascii	"cyBle_stackMemoryRam\000"
 4103      655F7374 
 4103      61636B4D 
 4103      656D6F72 
 4103      7952616D 
 4104              	.LASF222:
 4105 024a 4379426C 		.ascii	"CyBle_ApplCallback\000"
 4105      655F4170 
 4105      706C4361 
 4105      6C6C6261 
 4105      636B00
 4106              	.LASF122:
 4107 025d 646C654D 		.ascii	"dleMaxTxCapability\000"
 4107      61785478 
 4107      43617061 
 4107      62696C69 
 4107      747900
ARM GAS  C:\Users\ADMINI~1\AppData\Local\Temp\ccieeocD.s 			page 100


 4108              	.LASF117:
 4109 0270 74797065 		.ascii	"type\000"
 4109      00
 4110              	.LASF178:
 4111 0275 63636364 		.ascii	"cccdCount\000"
 4111      436F756E 
 4111      7400
 4112              	.LASF19:
 4113 027f 4359424C 		.ascii	"CYBLE_EVT_TIMEOUT\000"
 4113      455F4556 
 4113      545F5449 
 4113      4D454F55 
 4113      5400
 4114              	.LASF4:
 4115 0291 6C6F6E67 		.ascii	"long int\000"
 4115      20696E74 
 4115      00
 4116              	.LASF106:
 4117 029a 4359424C 		.ascii	"CYBLE_ERROR_HARDWARE_FAILURE\000"
 4117      455F4552 
 4117      524F525F 
 4117      48415244 
 4117      57415245 
 4118              	.LASF127:
 4119 02b7 4359424C 		.ascii	"CYBLE_PRIVACY_1_2_CONFIG_PARAM_T\000"
 4119      455F5052 
 4119      49564143 
 4119      595F315F 
 4119      325F434F 
 4120              	.LASF206:
 4121 02d8 4379426C 		.ascii	"CyBle_GappStopAdvertisement\000"
 4121      655F4761 
 4121      70705374 
 4121      6F704164 
 4121      76657274 
 4122              	.LASF229:
 4123 02f4 6379426C 		.ascii	"cyBle_discoveryData\000"
 4123      655F6469 
 4123      73636F76 
 4123      65727944 
 4123      61746100 
 4124              	.LASF96:
 4125 0308 4359424C 		.ascii	"CYBLE_ERROR_L2CAP_PSM_WRONG_ENCODING\000"
 4125      455F4552 
 4125      524F525F 
 4125      4C324341 
 4125      505F5053 
 4126              	.LASF87:
 4127 032d 4359424C 		.ascii	"CYBLE_ERROR_INSUFFICIENT_RESOURCES\000"
 4127      455F4552 
 4127      524F525F 
 4127      494E5355 
 4127      46464943 
 4128              	.LASF21:
 4129 0350 4359424C 		.ascii	"CYBLE_EVT_HCI_STATUS\000"
 4129      455F4556 
 4129      545F4843 
ARM GAS  C:\Users\ADMINI~1\AppData\Local\Temp\ccieeocD.s 			page 101


 4129      495F5354 
 4129      41545553 
 4130              	.LASF140:
 4131 0365 61647654 		.ascii	"advType\000"
 4131      79706500 
 4132              	.LASF35:
 4133 036d 4359424C 		.ascii	"CYBLE_EVT_GAPC_SCAN_START_STOP\000"
 4133      455F4556 
 4133      545F4741 
 4133      50435F53 
 4133      43414E5F 
 4134              	.LASF239:
 4135 038c 6379426C 		.ascii	"cyBle_busyStatus\000"
 4135      655F6275 
 4135      73795374 
 4135      61747573 
 4135      00
 4136              	.LASF132:
 4137 039d 4359424C 		.ascii	"CYBLE_GAPP_CONNECTABLE_UNDIRECTED_ADV\000"
 4137      455F4741 
 4137      50505F43 
 4137      4F4E4E45 
 4137      43544142 
 4138              	.LASF118:
 4139 03c3 4359424C 		.ascii	"CYBLE_GAP_BD_ADDR_T\000"
 4139      455F4741 
 4139      505F4244 
 4139      5F414444 
 4139      525F5400 
 4140              	.LASF95:
 4141 03d7 4359424C 		.ascii	"CYBLE_ERROR_SEC_FAILED\000"
 4141      455F4552 
 4141      524F525F 
 4141      5345435F 
 4141      4641494C 
 4142              	.LASF100:
 4143 03ee 4359424C 		.ascii	"CYBLE_ERROR_L2CAP_CHANNEL_NOT_FOUND\000"
 4143      455F4552 
 4143      524F525F 
 4143      4C324341 
 4143      505F4348 
 4144              	.LASF33:
 4145 0412 4359424C 		.ascii	"CYBLE_EVT_GAP_ENCRYPT_CHANGE\000"
 4145      455F4556 
 4145      545F4741 
 4145      505F454E 
 4145      43525950 
 4146              	.LASF37:
 4147 042f 4359424C 		.ascii	"CYBLE_EVT_GAP_NUMERIC_COMPARISON_REQUEST\000"
 4147      455F4556 
 4147      545F4741 
 4147      505F4E55 
 4147      4D455249 
 4148              	.LASF78:
 4149 0458 4359424C 		.ascii	"CYBLE_EVT_L2CAP_CBFC_TX_CREDIT_IND\000"
 4149      455F4556 
 4149      545F4C32 
ARM GAS  C:\Users\ADMINI~1\AppData\Local\Temp\ccieeocD.s 			page 102


 4149      4341505F 
 4149      43424643 
 4150              	.LASF184:
 4151 047b 4359424C 		.ascii	"CYBLE_STATE_ADVERTISING\000"
 4151      455F5354 
 4151      4154455F 
 4151      41445645 
 4151      52544953 
 4152              	.LASF221:
 4153 0493 6379426C 		.ascii	"cyBle_pendingFlashClearCccdHandle\000"
 4153      655F7065 
 4153      6E64696E 
 4153      67466C61 
 4153      7368436C 
 4154              	.LASF0:
 4155 04b5 7369676E 		.ascii	"signed char\000"
 4155      65642063 
 4155      68617200 
 4156              	.LASF18:
 4157 04c1 4359424C 		.ascii	"CYBLE_EVT_STACK_ON\000"
 4157      455F4556 
 4157      545F5354 
 4157      41434B5F 
 4157      4F4E00
 4158              	.LASF103:
 4159 04d4 4359424C 		.ascii	"CYBLE_ERROR_DEVICE_ALREADY_EXISTS\000"
 4159      455F4552 
 4159      524F525F 
 4159      44455649 
 4159      43455F41 
 4160              	.LASF90:
 4161 04f6 4359424C 		.ascii	"CYBLE_ERROR_NO_DEVICE_ENTITY\000"
 4161      455F4552 
 4161      524F525F 
 4161      4E4F5F44 
 4161      45564943 
 4162              	.LASF143:
 4163 0513 64697265 		.ascii	"directAddr\000"
 4163      63744164 
 4163      647200
 4164              	.LASF214:
 4165 051e 4379426C 		.ascii	"CyBle_GapSetLocalName\000"
 4165      655F4761 
 4165      70536574 
 4165      4C6F6361 
 4165      6C4E616D 
 4166              	.LASF25:
 4167 0534 4359424C 		.ascii	"CYBLE_EVT_GAP_AUTH_REQ\000"
 4167      455F4556 
 4167      545F4741 
 4167      505F4155 
 4167      54485F52 
 4168              	.LASF171:
 4169 054b 7065726D 		.ascii	"permission\000"
 4169      69737369 
 4169      6F6E00
 4170              	.LASF53:
ARM GAS  C:\Users\ADMINI~1\AppData\Local\Temp\ccieeocD.s 			page 103


 4171 0556 4359424C 		.ascii	"CYBLE_EVT_GATTC_READ_RSP\000"
 4171      455F4556 
 4171      545F4741 
 4171      5454435F 
 4171      52454144 
 4172              	.LASF114:
 4173 056f 4359424C 		.ascii	"CYBLE_ERROR_INVALID_STATE\000"
 4173      455F4552 
 4173      524F525F 
 4173      494E5641 
 4173      4C49445F 
 4174              	.LASF145:
 4175 0589 61647646 		.ascii	"advFilterPolicy\000"
 4175      696C7465 
 4175      72506F6C 
 4175      69637900 
 4176              	.LASF58:
 4177 0599 4359424C 		.ascii	"CYBLE_EVT_GATTS_WRITE_CMD_REQ\000"
 4177      455F4556 
 4177      545F4741 
 4177      5454535F 
 4177      57524954 
 4178              	.LASF199:
 4179 05b7 6973466F 		.ascii	"isForceWrite\000"
 4179      72636557 
 4179      72697465 
 4179      00
 4180              	.LASF139:
 4181 05c4 61647649 		.ascii	"advIntvMax\000"
 4181      6E74764D 
 4181      617800
 4182              	.LASF185:
 4183 05cf 4359424C 		.ascii	"CYBLE_STATE_DISCONNECTED\000"
 4183      455F5354 
 4183      4154455F 
 4183      44495343 
 4183      4F4E4E45 
 4184              	.LASF30:
 4185 05e8 4359424C 		.ascii	"CYBLE_EVT_GAPP_ADVERTISEMENT_START_STOP\000"
 4185      455F4556 
 4185      545F4741 
 4185      50505F41 
 4185      44564552 
 4186              	.LASF101:
 4187 0610 4359424C 		.ascii	"CYBLE_ERROR_L2CAP_PSM_NOT_IN_RANGE\000"
 4187      455F4552 
 4187      524F525F 
 4187      4C324341 
 4187      505F5053 
 4188              	.LASF47:
 4189 0633 4359424C 		.ascii	"CYBLE_EVT_GATTS_XCNHG_MTU_REQ\000"
 4189      455F4556 
 4189      545F4741 
 4189      5454535F 
 4189      58434E48 
 4190              	.LASF242:
 4191 0651 2E5C4765 		.ascii	".\\Generated_Source\\PSoC4\\BLE.c\000"
ARM GAS  C:\Users\ADMINI~1\AppData\Local\Temp\ccieeocD.s 			page 104


 4191      6E657261 
 4191      7465645F 
 4191      536F7572 
 4191      63655C50 
 4192              	.LASF150:
 4193 0670 7363616E 		.ascii	"scanRspData\000"
 4193      52737044 
 4193      61746100 
 4194              	.LASF6:
 4195 067c 6C6F6E67 		.ascii	"long long int\000"
 4195      206C6F6E 
 4195      6720696E 
 4195      7400
 4196              	.LASF116:
 4197 068a 62644164 		.ascii	"bdAddr\000"
 4197      647200
 4198              	.LASF61:
 4199 0691 4359424C 		.ascii	"CYBLE_EVT_GATTC_EXEC_WRITE_RSP\000"
 4199      455F4556 
 4199      545F4741 
 4199      5454435F 
 4199      45584543 
 4200              	.LASF165:
 4201 06b0 4359424C 		.ascii	"CYBLE_GATTS_ATT_PACK_VAL_LEN_T\000"
 4201      455F4741 
 4201      5454535F 
 4201      4154545F 
 4201      5041434B 
 4202              	.LASF13:
 4203 06cf 646F7562 		.ascii	"double\000"
 4203      6C6500
 4204              	.LASF74:
 4205 06d6 4359424C 		.ascii	"CYBLE_EVT_L2CAP_CBFC_DISCONN_IND\000"
 4205      455F4556 
 4205      545F4C32 
 4205      4341505F 
 4205      43424643 
 4206              	.LASF153:
 4207 06f7 64697363 		.ascii	"discMode\000"
 4207      4D6F6465 
 4207      00
 4208              	.LASF84:
 4209 0700 4359424C 		.ascii	"CYBLE_ERROR_INVALID_PARAMETER\000"
 4209      455F4552 
 4209      524F525F 
 4209      494E5641 
 4209      4C49445F 
 4210              	.LASF176:
 4211 071e 73746163 		.ascii	"stackFlashptr\000"
 4211      6B466C61 
 4211      73687074 
 4211      7200
 4212              	.LASF168:
 4213 072c 4359424C 		.ascii	"CYBLE_GATTS_ATT_VALUE_T\000"
 4213      455F4741 
 4213      5454535F 
 4213      4154545F 
ARM GAS  C:\Users\ADMINI~1\AppData\Local\Temp\ccieeocD.s 			page 105


 4213      56414C55 
 4214              	.LASF169:
 4215 0744 61747448 		.ascii	"attHandle\000"
 4215      616E646C 
 4215      6500
 4216              	.LASF11:
 4217 074e 75696E74 		.ascii	"uint32\000"
 4217      333200
 4218              	.LASF203:
 4219 0755 696E7661 		.ascii	"invalidBdAddr\000"
 4219      6C696442 
 4219      64416464 
 4219      7200
 4220              	.LASF208:
 4221 0763 64657374 		.ascii	"destBuffer\000"
 4221      42756666 
 4221      657200
 4222              	.LASF82:
 4223 076e 4359424C 		.ascii	"CYBLE_EVT_MAX\000"
 4223      455F4556 
 4223      545F4D41 
 4223      5800
 4224              	.LASF83:
 4225 077c 4359424C 		.ascii	"CYBLE_ERROR_OK\000"
 4225      455F4552 
 4225      524F525F 
 4225      4F4B00
 4226              	.LASF44:
 4227 078b 4359424C 		.ascii	"CYBLE_EVT_GATTC_ERROR_RSP\000"
 4227      455F4556 
 4227      545F4741 
 4227      5454435F 
 4227      4552524F 
 4228              	.LASF69:
 4229 07a5 4359424C 		.ascii	"CYBLE_EVT_L2CAP_CONN_PARAM_UPDATE_REQ\000"
 4229      455F4556 
 4229      545F4C32 
 4229      4341505F 
 4229      434F4E4E 
 4230              	.LASF79:
 4231 07cb 4359424C 		.ascii	"CYBLE_EVT_L2CAP_CBFC_DATA_WRITE_IND\000"
 4231      455F4556 
 4231      545F4C32 
 4231      4341505F 
 4231      43424643 
 4232              	.LASF170:
 4233 07ef 61747454 		.ascii	"attType\000"
 4233      79706500 
 4234              	.LASF148:
 4235 07f7 61647644 		.ascii	"advDataLen\000"
 4235      6174614C 
 4235      656E00
 4236              	.LASF7:
 4237 0802 6C6F6E67 		.ascii	"long long unsigned int\000"
 4237      206C6F6E 
 4237      6720756E 
 4237      7369676E 
ARM GAS  C:\Users\ADMINI~1\AppData\Local\Temp\ccieeocD.s 			page 106


 4237      65642069 
 4238              	.LASF220:
 4239 0819 76616C75 		.ascii	"value\000"
 4239      6500
 4240              	.LASF68:
 4241 081f 4359424C 		.ascii	"CYBLE_EVT_GATTC_LONG_PROCEDURE_END\000"
 4241      455F4556 
 4241      545F4741 
 4241      5454435F 
 4241      4C4F4E47 
 4242              	.LASF66:
 4243 0842 4359424C 		.ascii	"CYBLE_EVT_GATTC_STOP_CMD_COMPLETE\000"
 4243      455F4556 
 4243      545F4741 
 4243      5454435F 
 4243      53544F50 
 4244              	.LASF216:
 4245 0864 4379426C 		.ascii	"CyBle_GapGetLocalName\000"
 4245      655F4761 
 4245      70476574 
 4245      4C6F6361 
 4245      6C4E616D 
 4246              	.LASF88:
 4247 087a 4359424C 		.ascii	"CYBLE_ERROR_OOB_NOT_AVAILABLE\000"
 4247      455F4552 
 4247      524F525F 
 4247      4F4F425F 
 4247      4E4F545F 
 4248              	.LASF228:
 4249 0898 6379426C 		.ascii	"cyBle_discoveryParam\000"
 4249      655F6469 
 4249      73636F76 
 4249      65727950 
 4249      6172616D 
 4250              	.LASF188:
 4251 08ad 4379426C 		.ascii	"CyBle_ServiceInit\000"
 4251      655F5365 
 4251      72766963 
 4251      65496E69 
 4251      7400
 4252              	.LASF97:
 4253 08bf 4359424C 		.ascii	"CYBLE_ERROR_L2CAP_PSM_ALREADY_REGISTERED\000"
 4253      455F4552 
 4253      524F525F 
 4253      4C324341 
 4253      505F5053 
 4254              	.LASF191:
 4255 08e8 646C6543 		.ascii	"dleConfigParams\000"
 4255      6F6E6669 
 4255      67506172 
 4255      616D7300 
 4256              	.LASF5:
 4257 08f8 6C6F6E67 		.ascii	"long unsigned int\000"
 4257      20756E73 
 4257      69676E65 
 4257      6420696E 
 4257      7400
ARM GAS  C:\Users\ADMINI~1\AppData\Local\Temp\ccieeocD.s 			page 107


 4258              	.LASF56:
 4259 090a 4359424C 		.ascii	"CYBLE_EVT_GATTS_WRITE_REQ\000"
 4259      455F4556 
 4259      545F4741 
 4259      5454535F 
 4259      57524954 
 4260              	.LASF48:
 4261 0924 4359424C 		.ascii	"CYBLE_EVT_GATTC_XCHNG_MTU_RSP\000"
 4261      455F4556 
 4261      545F4741 
 4261      5454435F 
 4261      5843484E 
 4262              	.LASF65:
 4263 0942 4359424C 		.ascii	"CYBLE_EVT_GATTS_DATA_SIGNED_CMD_REQ\000"
 4263      455F4556 
 4263      545F4741 
 4263      5454535F 
 4263      44415441 
 4264              	.LASF209:
 4265 0966 6E616D65 		.ascii	"name\000"
 4265      00
 4266              	.LASF192:
 4267 096b 70726976 		.ascii	"privacyConfigParams\000"
 4267      61637943 
 4267      6F6E6669 
 4267      67506172 
 4267      616D7300 
 4268              	.LASF166:
 4269 097f 61747446 		.ascii	"attFormatValue\000"
 4269      6F726D61 
 4269      7456616C 
 4269      756500
 4270              	.LASF152:
 4271 098e 4359424C 		.ascii	"CYBLE_GAPP_SCAN_RSP_DATA_T\000"
 4271      455F4741 
 4271      50505F53 
 4271      43414E5F 
 4271      5253505F 
 4272              	.LASF9:
 4273 09a9 75696E74 		.ascii	"uint8\000"
 4273      3800
 4274              	.LASF120:
 4275 09af 62756666 		.ascii	"bufferUnits\000"
 4275      6572556E 
 4275      69747300 
 4276              	.LASF111:
 4277 09bb 4359424C 		.ascii	"CYBLE_ERROR_NTF_DISABLED\000"
 4277      455F4552 
 4277      524F525F 
 4277      4E54465F 
 4277      44495341 
 4278              	.LASF17:
 4279 09d4 4359424C 		.ascii	"CYBLE_EVT_HOST_INVALID\000"
 4279      455F4556 
 4279      545F484F 
 4279      53545F49 
 4279      4E56414C 
ARM GAS  C:\Users\ADMINI~1\AppData\Local\Temp\ccieeocD.s 			page 108


 4280              	.LASF51:
 4281 09eb 4359424C 		.ascii	"CYBLE_EVT_GATTC_FIND_INFO_RSP\000"
 4281      455F4556 
 4281      545F4741 
 4281      5454435F 
 4281      46494E44 
 4282              	.LASF23:
 4283 0a09 4359424C 		.ascii	"CYBLE_EVT_MEMORY_REQUEST\000"
 4283      455F4556 
 4283      545F4D45 
 4283      4D4F5259 
 4283      5F524551 
 4284              	.LASF223:
 4285 0a22 6379426C 		.ascii	"cyBle_initVar\000"
 4285      655F696E 
 4285      69745661 
 4285      7200
 4286              	.LASF26:
 4287 0a30 4359424C 		.ascii	"CYBLE_EVT_GAP_PASSKEY_ENTRY_REQUEST\000"
 4287      455F4556 
 4287      545F4741 
 4287      505F5041 
 4287      53534B45 
 4288              	.LASF31:
 4289 0a54 4359424C 		.ascii	"CYBLE_EVT_GAP_DEVICE_CONNECTED\000"
 4289      455F4556 
 4289      545F4741 
 4289      505F4445 
 4289      56494345 
 4290              	.LASF163:
 4291 0a73 6D617841 		.ascii	"maxAttrLength\000"
 4291      7474724C 
 4291      656E6774 
 4291      6800
 4292              	.LASF219:
 4293 0a81 4379426C 		.ascii	"CyBle_Set16ByPtr\000"
 4293      655F5365 
 4293      74313642 
 4293      79507472 
 4293      00
 4294              	.LASF124:
 4295 0a92 646C654E 		.ascii	"dleNumTxBuffer\000"
 4295      756D5478 
 4295      42756666 
 4295      657200
 4296              	.LASF151:
 4297 0aa1 7363616E 		.ascii	"scanRspDataLen\000"
 4297      52737044 
 4297      6174614C 
 4297      656E00
 4298              	.LASF196:
 4299 0ab0 4379426C 		.ascii	"CyBle_Start\000"
 4299      655F5374 
 4299      61727400 
 4300              	.LASF202:
 4301 0abc 62446576 		.ascii	"bDevHandle\000"
 4301      48616E64 
ARM GAS  C:\Users\ADMINI~1\AppData\Local\Temp\ccieeocD.s 			page 109


 4301      6C6500
 4302              	.LASF177:
 4303 0ac7 61747456 		.ascii	"attValuesCCCDFlashMemory\000"
 4303      616C7565 
 4303      73434343 
 4303      44466C61 
 4303      73684D65 
 4304              	.LASF160:
 4305 0ae0 61637475 		.ascii	"actualLength\000"
 4305      616C4C65 
 4305      6E677468 
 4305      00
 4306              	.LASF237:
 4307 0aed 6379426C 		.ascii	"cyBle_state\000"
 4307      655F7374 
 4307      61746500 
 4308              	.LASF27:
 4309 0af9 4359424C 		.ascii	"CYBLE_EVT_GAP_PASSKEY_DISPLAY_REQUEST\000"
 4309      455F4556 
 4309      545F4741 
 4309      505F5041 
 4309      53534B45 
 4310              	.LASF45:
 4311 0b1f 4359424C 		.ascii	"CYBLE_EVT_GATT_CONNECT_IND\000"
 4311      455F4556 
 4311      545F4741 
 4311      54545F43 
 4311      4F4E4E45 
 4312              	.LASF121:
 4313 0b3a 4359424C 		.ascii	"CYBLE_STK_APP_DATA_BUFF_T\000"
 4313      455F5354 
 4313      4B5F4150 
 4313      505F4441 
 4313      54415F42 
 4314              	.LASF158:
 4315 0b54 61747449 		.ascii	"attId\000"
 4315      6400
 4316              	.LASF215:
 4317 0b5a 63686172 		.ascii	"charLen\000"
 4317      4C656E00 
 4318              	.LASF71:
 4319 0b62 4359424C 		.ascii	"CYBLE_EVT_L2CAP_COMMAND_REJ\000"
 4319      455F4556 
 4319      545F4C32 
 4319      4341505F 
 4319      434F4D4D 
 4320              	.LASF24:
 4321 0b7e 4359424C 		.ascii	"CYBLE_EVT_GAPC_SCAN_PROGRESS_RESULT\000"
 4321      455F4556 
 4321      545F4741 
 4321      50435F53 
 4321      43414E5F 
 4322              	.LASF225:
 4323 0ba2 6379426C 		.ascii	"cyBle_eventHandlerFlag\000"
 4323      655F6576 
 4323      656E7448 
 4323      616E646C 
ARM GAS  C:\Users\ADMINI~1\AppData\Local\Temp\ccieeocD.s 			page 110


 4323      6572466C 
 4324              	.LASF110:
 4325 0bb9 4359424C 		.ascii	"CYBLE_ERROR_MAX\000"
 4325      455F4552 
 4325      524F525F 
 4325      4D415800 
 4326              	.LASF108:
 4327 0bc9 4359424C 		.ascii	"CYBLE_ERROR_FLASH_WRITE\000"
 4327      455F4552 
 4327      524F525F 
 4327      464C4153 
 4327      485F5752 
 4328              	.LASF50:
 4329 0be1 4359424C 		.ascii	"CYBLE_EVT_GATTC_READ_BY_TYPE_RSP\000"
 4329      455F4556 
 4329      545F4741 
 4329      5454435F 
 4329      52454144 
 4330              	.LASF231:
 4331 0c02 6379426C 		.ascii	"cyBle_discoveryModeInfo\000"
 4331      655F6469 
 4331      73636F76 
 4331      6572794D 
 4331      6F646549 
 4332              	.LASF16:
 4333 0c1a 73697A65 		.ascii	"sizetype\000"
 4333      74797065 
 4333      00
 4334              	.LASF182:
 4335 0c23 4359424C 		.ascii	"CYBLE_STATE_INITIALIZING\000"
 4335      455F5354 
 4335      4154455F 
 4335      494E4954 
 4335      49414C49 
 4336              	.LASF141:
 4337 0c3c 6F776E41 		.ascii	"ownAddrType\000"
 4337      64647254 
 4337      79706500 
 4338              	.LASF29:
 4339 0c48 4359424C 		.ascii	"CYBLE_EVT_GAP_AUTH_FAILED\000"
 4339      455F4556 
 4339      545F4741 
 4339      505F4155 
 4339      54485F46 
 4340              	.LASF238:
 4341 0c62 6379426C 		.ascii	"cyBle_connHandle\000"
 4341      655F636F 
 4341      6E6E4861 
 4341      6E646C65 
 4341      00
 4342              	.LASF57:
 4343 0c73 4359424C 		.ascii	"CYBLE_EVT_GATTC_WRITE_RSP\000"
 4343      455F4556 
 4343      545F4741 
 4343      5454435F 
 4343      57524954 
 4344              	.LASF42:
ARM GAS  C:\Users\ADMINI~1\AppData\Local\Temp\ccieeocD.s 			page 111


 4345 0c8d 4359424C 		.ascii	"CYBLE_EVT_GAPC_DIRECT_ADV_REPORT\000"
 4345      455F4556 
 4345      545F4741 
 4345      50435F44 
 4345      49524543 
 4346              	.LASF40:
 4347 0cae 4359424C 		.ascii	"CYBLE_EVT_GAP_DATA_LENGTH_CHANGE\000"
 4347      455F4556 
 4347      545F4741 
 4347      505F4441 
 4347      54415F4C 
 4348              	.LASF179:
 4349 0ccf 626F756E 		.ascii	"boundedDevCount\000"
 4349      64656444 
 4349      6576436F 
 4349      756E7400 
 4350              	.LASF28:
 4351 0cdf 4359424C 		.ascii	"CYBLE_EVT_GAP_AUTH_COMPLETE\000"
 4351      455F4556 
 4351      545F4741 
 4351      505F4155 
 4351      54485F43 
 4352              	.LASF189:
 4353 0cfb 61706952 		.ascii	"apiResult\000"
 4353      6573756C 
 4353      7400
 4354              	.LASF115:
 4355 0d05 4359424C 		.ascii	"CYBLE_API_RESULT_T\000"
 4355      455F4150 
 4355      495F5245 
 4355      53554C54 
 4355      5F5400
 4356              	.LASF195:
 4357 0d18 4379426C 		.ascii	"CyBle_Stop\000"
 4357      655F5374 
 4357      6F7000
 4358              	.LASF62:
 4359 0d23 4359424C 		.ascii	"CYBLE_EVT_GATTC_HANDLE_VALUE_NTF\000"
 4359      455F4556 
 4359      545F4741 
 4359      5454435F 
 4359      48414E44 
 4360              	.LASF112:
 4361 0d44 4359424C 		.ascii	"CYBLE_ERROR_IND_DISABLED\000"
 4361      455F4552 
 4361      524F525F 
 4361      494E445F 
 4361      44495341 
 4362              	.LASF207:
 4363 0d5d 64657374 		.ascii	"dest\000"
 4363      00
 4364              	.LASF167:
 4365 0d62 61747456 		.ascii	"attValueUuid\000"
 4365      616C7565 
 4365      55756964 
 4365      00
 4366              	.LASF161:
ARM GAS  C:\Users\ADMINI~1\AppData\Local\Temp\ccieeocD.s 			page 112


 4367 0d6f 61747447 		.ascii	"attGenericVal\000"
 4367      656E6572 
 4367      69635661 
 4367      6C00
 4368              	.LASF73:
 4369 0d7d 4359424C 		.ascii	"CYBLE_EVT_L2CAP_CBFC_CONN_CNF\000"
 4369      455F4556 
 4369      545F4C32 
 4369      4341505F 
 4369      43424643 
 4370              	.LASF236:
 4371 0d9b 6379426C 		.ascii	"cyBle_flashStorage\000"
 4371      655F666C 
 4371      61736853 
 4371      746F7261 
 4371      676500
 4372              	.LASF49:
 4373 0dae 4359424C 		.ascii	"CYBLE_EVT_GATTC_READ_BY_GROUP_TYPE_RSP\000"
 4373      455F4556 
 4373      545F4741 
 4373      5454435F 
 4373      52454144 
 4374              	.LASF12:
 4375 0dd5 666C6F61 		.ascii	"float\000"
 4375      7400
 4376              	.LASF232:
 4377 0ddb 6379426C 		.ascii	"cyBle_pendingFlashWrite\000"
 4377      655F7065 
 4377      6E64696E 
 4377      67466C61 
 4377      73685772 
 4378              	.LASF240:
 4379 0df3 6379426C 		.ascii	"cyBle_advertisingIntervalType\000"
 4379      655F6164 
 4379      76657274 
 4379      6973696E 
 4379      67496E74 
 4380              	.LASF204:
 4381 0e11 4379426C 		.ascii	"CyBle_GappStartAdvertisement\000"
 4381      655F4761 
 4381      70705374 
 4381      61727441 
 4381      64766572 
 4382              	.LASF142:
 4383 0e2e 64697265 		.ascii	"directAddrType\000"
 4383      63744164 
 4383      64725479 
 4383      706500
 4384              	.LASF72:
 4385 0e3d 4359424C 		.ascii	"CYBLE_EVT_L2CAP_CBFC_CONN_IND\000"
 4385      455F4556 
 4385      545F4C32 
 4385      4341505F 
 4385      43424643 
 4386              	.LASF123:
 4387 0e5b 646C654D 		.ascii	"dleMaxRxCapability\000"
 4387      61785278 
ARM GAS  C:\Users\ADMINI~1\AppData\Local\Temp\ccieeocD.s 			page 113


 4387      43617061 
 4387      62696C69 
 4387      747900
 4388              	.LASF93:
 4389 0e6e 4359424C 		.ascii	"CYBLE_ERROR_TX_POWER_READ\000"
 4389      455F4552 
 4389      524F525F 
 4389      54585F50 
 4389      4F574552 
 4390              	.LASF198:
 4391 0e88 63616C6C 		.ascii	"callbackFunc\000"
 4391      6261636B 
 4391      46756E63 
 4391      00
 4392              	.LASF173:
 4393 0e95 61747456 		.ascii	"attValue\000"
 4393      616C7565 
 4393      00
 4394              	.LASF1:
 4395 0e9e 756E7369 		.ascii	"unsigned char\000"
 4395      676E6564 
 4395      20636861 
 4395      7200
 4396              	.LASF10:
 4397 0eac 75696E74 		.ascii	"uint16\000"
 4397      313600
 4398              	.LASF38:
 4399 0eb3 4359424C 		.ascii	"CYBLE_EVT_GAP_KEYPRESS_NOTIFICATION\000"
 4399      455F4556 
 4399      545F4741 
 4399      505F4B45 
 4399      59505245 
 4400              	.LASF233:
 4401 0ed7 6379426C 		.ascii	"cyBle_peerBonding\000"
 4401      655F7065 
 4401      6572426F 
 4401      6E64696E 
 4401      6700
 4402              	.LASF113:
 4403 0ee9 4359424C 		.ascii	"CYBLE_ERROR_CHAR_IS_NOT_DISCOVERED\000"
 4403      455F4552 
 4403      524F525F 
 4403      43484152 
 4403      5F49535F 
 4404              	.LASF2:
 4405 0f0c 73686F72 		.ascii	"short int\000"
 4405      7420696E 
 4405      7400
 4406              	.LASF63:
 4407 0f16 4359424C 		.ascii	"CYBLE_EVT_GATTC_HANDLE_VALUE_IND\000"
 4407      455F4556 
 4407      545F4741 
 4407      5454435F 
 4407      48414E44 
 4408              	.LASF218:
 4409 0f37 4379426C 		.ascii	"CyBle_ChangeAdDeviceAddress\000"
 4409      655F4368 
ARM GAS  C:\Users\ADMINI~1\AppData\Local\Temp\ccieeocD.s 			page 114


 4409      616E6765 
 4409      41644465 
 4409      76696365 
 4410              	.LASF81:
 4411 0f53 4359424C 		.ascii	"CYBLE_EVT_LE_PING_AUTH_TIMEOUT\000"
 4411      455F4556 
 4411      545F4C45 
 4411      5F50494E 
 4411      475F4155 
 4412              	.LASF210:
 4413 0f72 666C6167 		.ascii	"flag\000"
 4413      00
 4414              	.LASF89:
 4415 0f77 4359424C 		.ascii	"CYBLE_ERROR_NO_CONNECTION\000"
 4415      455F4552 
 4415      524F525F 
 4415      4E4F5F43 
 4415      4F4E4E45 
 4416              	.LASF194:
 4417 0f91 66656174 		.ascii	"featureHeapReq\000"
 4417      75726548 
 4417      65617052 
 4417      657100
 4418              	.LASF59:
 4419 0fa0 4359424C 		.ascii	"CYBLE_EVT_GATTS_PREP_WRITE_REQ\000"
 4419      455F4556 
 4419      545F4741 
 4419      5454535F 
 4419      50524550 
 4420              	.LASF138:
 4421 0fbf 61647649 		.ascii	"advIntvMin\000"
 4421      6E74764D 
 4421      696E00
 4422              	.LASF136:
 4423 0fca 4359424C 		.ascii	"CYBLE_GAPP_CONNECTABLE_LOW_DC_DIRECTED_ADV\000"
 4423      455F4741 
 4423      50505F43 
 4423      4F4E4E45 
 4423      43544142 
 4424              	.LASF147:
 4425 0ff5 61647644 		.ascii	"advData\000"
 4425      61746100 
 4426              	.LASF130:
 4427 0ffd 66656174 		.ascii	"feature_mask\000"
 4427      7572655F 
 4427      6D61736B 
 4427      00
 4428              	.LASF244:
 4429 100a 4379426C 		.ascii	"CyBle_ChangeAdLocalName\000"
 4429      655F4368 
 4429      616E6765 
 4429      41644C6F 
 4429      63616C4E 
 4430              	.LASF64:
 4431 1022 4359424C 		.ascii	"CYBLE_EVT_GATTS_HANDLE_VALUE_CNF\000"
 4431      455F4556 
 4431      545F4741 
ARM GAS  C:\Users\ADMINI~1\AppData\Local\Temp\ccieeocD.s 			page 115


 4431      5454535F 
 4431      48414E44 
 4432              	.LASF91:
 4433 1043 4359424C 		.ascii	"CYBLE_ERROR_REPEATED_ATTEMPTS\000"
 4433      455F4552 
 4433      524F525F 
 4433      52455045 
 4433      41544544 
 4434              	.LASF201:
 4435 1061 4379426C 		.ascii	"CyBle_GapRemoveBondedDevice\000"
 4435      655F4761 
 4435      7052656D 
 4435      6F766542 
 4435      6F6E6465 
 4436              	.LASF190:
 4437 107d 6379426C 		.ascii	"cyBle_stackDataBuff\000"
 4437      655F7374 
 4437      61636B44 
 4437      61746142 
 4437      75666600 
 4438              	.LASF213:
 4439 1091 6D61784C 		.ascii	"maxLength\000"
 4439      656E6774 
 4439      6800
 4440              	.LASF234:
 4441 109b 6379426C 		.ascii	"cyBle_gattDB\000"
 4441      655F6761 
 4441      74744442 
 4441      00
 4442              	.LASF15:
 4443 10a8 63686172 		.ascii	"char\000"
 4443      00
 4444              	.LASF94:
 4445 10ad 4359424C 		.ascii	"CYBLE_ERROR_BT_ON_NOT_COMPLETED\000"
 4445      455F4552 
 4445      524F525F 
 4445      42545F4F 
 4445      4E5F4E4F 
 4446              	.LASF211:
 4447 10cd 61644C65 		.ascii	"adLength\000"
 4447      6E677468 
 4447      00
 4448              	.LASF32:
 4449 10d6 4359424C 		.ascii	"CYBLE_EVT_GAP_DEVICE_DISCONNECTED\000"
 4449      455F4556 
 4449      545F4741 
 4449      505F4445 
 4449      56494345 
 4450              	.LASF205:
 4451 10f8 61647665 		.ascii	"advertisingIntervalType\000"
 4451      72746973 
 4451      696E6749 
 4451      6E746572 
 4451      76616C54 
 4452              	.LASF8:
 4453 1110 756E7369 		.ascii	"unsigned int\000"
 4453      676E6564 
ARM GAS  C:\Users\ADMINI~1\AppData\Local\Temp\ccieeocD.s 			page 116


 4453      20696E74 
 4453      00
 4454              	.LASF172:
 4455 111d 61747445 		.ascii	"attEndHandle\000"
 4455      6E644861 
 4455      6E646C65 
 4455      00
 4456              	.LASF67:
 4457 112a 4359424C 		.ascii	"CYBLE_EVT_GATTS_READ_CHAR_VAL_ACCESS_REQ\000"
 4457      455F4556 
 4457      545F4741 
 4457      5454535F 
 4457      52454144 
 4458              	.LASF119:
 4459 1153 62756666 		.ascii	"bufferSize\000"
 4459      65725369 
 4459      7A6500
 4460              	.LASF146:
 4461 115e 4359424C 		.ascii	"CYBLE_GAPP_DISC_PARAM_T\000"
 4461      455F4741 
 4461      50505F44 
 4461      4953435F 
 4461      50415241 
 4462              	.LASF14:
 4463 1176 63686172 		.ascii	"char8\000"
 4463      3800
 4464              	.LASF104:
 4465 117c 4359424C 		.ascii	"CYBLE_ERROR_FLASH_WRITE_NOT_PERMITED\000"
 4465      455F4552 
 4465      524F525F 
 4465      464C4153 
 4465      485F5752 
 4466              	.LASF99:
 4467 11a1 4359424C 		.ascii	"CYBLE_ERROR_L2CAP_CONNECTION_ENTITY_NOT_FOUND\000"
 4467      455F4552 
 4467      524F525F 
 4467      4C324341 
 4467      505F434F 
 4468              	.LASF131:
 4469 11cf 4359424C 		.ascii	"CYBLE_STACK_CONFIG_PARAM_T\000"
 4469      455F5354 
 4469      41434B5F 
 4469      434F4E46 
 4469      49475F50 
 4470              	.LASF134:
 4471 11ea 4359424C 		.ascii	"CYBLE_GAPP_SCANNABLE_UNDIRECTED_ADV\000"
 4471      455F4741 
 4471      50505F53 
 4471      43414E4E 
 4471      41424C45 
 4472              	.LASF20:
 4473 120e 4359424C 		.ascii	"CYBLE_EVT_HARDWARE_ERROR\000"
 4473      455F4556 
 4473      545F4841 
 4473      52445741 
 4473      52455F45 
 4474              	.LASF3:
ARM GAS  C:\Users\ADMINI~1\AppData\Local\Temp\ccieeocD.s 			page 117


 4475 1227 73686F72 		.ascii	"short unsigned int\000"
 4475      7420756E 
 4475      7369676E 
 4475      65642069 
 4475      6E7400
 4476              	.LASF174:
 4477 123a 4359424C 		.ascii	"CYBLE_GATTS_DB_T\000"
 4477      455F4741 
 4477      5454535F 
 4477      44425F54 
 4477      00
 4478              	.LASF85:
 4479 124b 4359424C 		.ascii	"CYBLE_ERROR_INVALID_OPERATION\000"
 4479      455F4552 
 4479      524F525F 
 4479      494E5641 
 4479      4C49445F 
 4480              	.LASF129:
 4481 1269 70726976 		.ascii	"privacyConfig\000"
 4481      61637943 
 4481      6F6E6669 
 4481      6700
 4482              	.LASF197:
 4483 1277 4379426C 		.ascii	"CyBle_StoreBondingData\000"
 4483      655F5374 
 4483      6F726542 
 4483      6F6E6469 
 4483      6E674461 
 4484              	.LASF175:
 4485 128e 4359424C 		.ascii	"CYBLE_CALLBACK_T\000"
 4485      455F4341 
 4485      4C4C4241 
 4485      434B5F54 
 4485      00
 4486              	.LASF162:
 4487 129f 4359424C 		.ascii	"CYBLE_GATTS_ATT_GEN_VAL_LEN_T\000"
 4487      455F4741 
 4487      5454535F 
 4487      4154545F 
 4487      47454E5F 
 4488              	.LASF212:
 4489 12bd 62797465 		.ascii	"byteCounter\000"
 4489      436F756E 
 4489      74657200 
 4490              	.LASF156:
 4491 12c9 4359424C 		.ascii	"CYBLE_GAPP_DISC_MODE_INFO_T\000"
 4491      455F4741 
 4491      50505F44 
 4491      4953435F 
 4491      4D4F4445 
 4492              	.LASF154:
 4493 12e5 61647650 		.ascii	"advParam\000"
 4493      6172616D 
 4493      00
 4494              	.LASF137:
 4495 12ee 4359424C 		.ascii	"CYBLE_GAPP_ADV_T\000"
 4495      455F4741 
ARM GAS  C:\Users\ADMINI~1\AppData\Local\Temp\ccieeocD.s 			page 118


 4495      50505F41 
 4495      44565F54 
 4495      00
 4496              	.LASF180:
 4497 12ff 43595F42 		.ascii	"CY_BLE_FLASH_STORAGE\000"
 4497      4C455F46 
 4497      4C415348 
 4497      5F53544F 
 4497      52414745 
 4498              	.LASF186:
 4499 1314 4359424C 		.ascii	"CYBLE_STATE_T\000"
 4499      455F5354 
 4499      4154455F 
 4499      5400
 4500              	.LASF135:
 4501 1322 4359424C 		.ascii	"CYBLE_GAPP_NON_CONNECTABLE_UNDIRECTED_ADV\000"
 4501      455F4741 
 4501      50505F4E 
 4501      4F4E5F43 
 4501      4F4E4E45 
 4502              	.LASF54:
 4503 134c 4359424C 		.ascii	"CYBLE_EVT_GATTC_READ_BLOB_RSP\000"
 4503      455F4556 
 4503      545F4741 
 4503      5454435F 
 4503      52454144 
 4504              	.LASF164:
 4505 136a 61747447 		.ascii	"attGenericValLen\000"
 4505      656E6572 
 4505      69635661 
 4505      6C4C656E 
 4505      00
 4506              	.LASF193:
 4507 137b 73746163 		.ascii	"stackConfig\000"
 4507      6B436F6E 
 4507      66696700 
 4508              	.LASF226:
 4509 1387 6379426C 		.ascii	"cyBle_deviceAddress\000"
 4509      655F6465 
 4509      76696365 
 4509      41646472 
 4509      65737300 
 4510              	.LASF230:
 4511 139b 6379426C 		.ascii	"cyBle_scanRspData\000"
 4511      655F7363 
 4511      616E5273 
 4511      70446174 
 4511      6100
 4512              	.LASF105:
 4513 13ad 4359424C 		.ascii	"CYBLE_ERROR_MIC_AUTH_FAILED\000"
 4513      455F4552 
 4513      524F525F 
 4513      4D49435F 
 4513      41555448 
 4514              	.LASF125:
 4515 13c9 4359424C 		.ascii	"CYBLE_DLE_CONFIG_PARAM_T\000"
 4515      455F444C 
ARM GAS  C:\Users\ADMINI~1\AppData\Local\Temp\ccieeocD.s 			page 119


 4515      455F434F 
 4515      4E464947 
 4515      5F504152 
 4516              	.LASF98:
 4517 13e2 4359424C 		.ascii	"CYBLE_ERROR_L2CAP_PSM_NOT_REGISTERED\000"
 4517      455F4552 
 4517      524F525F 
 4517      4C324341 
 4517      505F5053 
 4518              	.LASF227:
 4519 1407 6379426C 		.ascii	"cyBle_sflashDeviceAddress\000"
 4519      655F7366 
 4519      6C617368 
 4519      44657669 
 4519      63654164 
 4520              	.LASF183:
 4521 1421 4359424C 		.ascii	"CYBLE_STATE_CONNECTED\000"
 4521      455F5354 
 4521      4154455F 
 4521      434F4E4E 
 4521      45435445 
 4522              	.LASF241:
 4523 1437 474E5520 		.ascii	"GNU C 4.9.3 20150303 (release) [ARM/embedded-4_9-br"
 4523      4320342E 
 4523      392E3320 
 4523      32303135 
 4523      30333033 
 4524 146a 616E6368 		.ascii	"anch revision 221220] -mcpu=cortex-m0 -mthumb -g -O"
 4524      20726576 
 4524      6973696F 
 4524      6E203232 
 4524      31323230 
 4525 149d 30202D66 		.ascii	"0 -ffunction-sections -ffat-lto-objects\000"
 4525      66756E63 
 4525      74696F6E 
 4525      2D736563 
 4525      74696F6E 
 4526              	.LASF52:
 4527 14c5 4359424C 		.ascii	"CYBLE_EVT_GATTC_FIND_BY_TYPE_VALUE_RSP\000"
 4527      455F4556 
 4527      545F4741 
 4527      5454435F 
 4527      46494E44 
 4528              	.LASF92:
 4529 14ec 4359424C 		.ascii	"CYBLE_ERROR_GAP_ROLE\000"
 4529      455F4552 
 4529      524F525F 
 4529      4741505F 
 4529      524F4C45 
 4530              	.LASF128:
 4531 1501 646C6543 		.ascii	"dleConfig\000"
 4531      6F6E6669 
 4531      6700
 4532              	.LASF36:
 4533 150b 4359424C 		.ascii	"CYBLE_EVT_GAP_KEYINFO_EXCHNGE_CMPLT\000"
 4533      455F4556 
 4533      545F4741 
ARM GAS  C:\Users\ADMINI~1\AppData\Local\Temp\ccieeocD.s 			page 120


 4533      505F4B45 
 4533      59494E46 
 4534              	.LASF217:
 4535 152f 4379426C 		.ascii	"CyBle_Get16ByPtr\000"
 4535      655F4765 
 4535      74313642 
 4535      79507472 
 4535      00
 4536              	.LASF157:
 4537 1540 62644861 		.ascii	"bdHandle\000"
 4537      6E646C65 
 4537      00
 4538              	.LASF80:
 4539 1549 4359424C 		.ascii	"CYBLE_EVT_PENDING_FLASH_WRITE\000"
 4539      455F4556 
 4539      545F5045 
 4539      4E44494E 
 4539      475F464C 
 4540              	.LASF187:
 4541 1567 4379426C 		.ascii	"CyBle_Init\000"
 4541      655F496E 
 4541      697400
 4542              	.LASF70:
 4543 1572 4359424C 		.ascii	"CYBLE_EVT_L2CAP_CONN_PARAM_UPDATE_RSP\000"
 4543      455F4556 
 4543      545F4C32 
 4543      4341505F 
 4543      434F4E4E 
 4544              	.LASF235:
 4545 1598 6379426C 		.ascii	"cyBle_attValuesCCCD\000"
 4545      655F6174 
 4545      7456616C 
 4545      75657343 
 4545      43434400 
 4546              	.LASF41:
 4547 15ac 4359424C 		.ascii	"CYBLE_EVT_GAP_ENHANCE_CONN_COMPLETE\000"
 4547      455F4556 
 4547      545F4741 
 4547      505F454E 
 4547      48414E43 
 4548              	.LASF243:
 4549 15d0 433A5C55 		.ascii	"C:\\Users\\Administrator\\Desktop\\BLE_TemplateProj"
 4549      73657273 
 4549      5C41646D 
 4549      696E6973 
 4549      74726174 
 4550 15ff 6563745C 		.ascii	"ect\\Smart Switch\\Smart Switch.cydsn\000"
 4550      536D6172 
 4550      74205377 
 4550      69746368 
 4550      5C536D61 
 4551              	.LASF155:
 4552 1623 61647654 		.ascii	"advTo\000"
 4552      6F00
 4553              	.LASF46:
 4554 1629 4359424C 		.ascii	"CYBLE_EVT_GATT_DISCONNECT_IND\000"
 4554      455F4556 
ARM GAS  C:\Users\ADMINI~1\AppData\Local\Temp\ccieeocD.s 			page 121


 4554      545F4741 
 4554      54545F44 
 4554      4953434F 
 4555              	.LASF102:
 4556 1647 4359424C 		.ascii	"CYBLE_ERROR_GATT_DB_INVALID_ATTR_HANDLE\000"
 4556      455F4552 
 4556      524F525F 
 4556      47415454 
 4556      5F44425F 
 4557              	.LASF126:
 4558 166f 7265736F 		.ascii	"resolvingListSize\000"
 4558      6C76696E 
 4558      674C6973 
 4558      7453697A 
 4558      6500
 4559              		.ident	"GCC: (GNU Tools for ARM Embedded Processors) 4.9.3 20150303 (release) [ARM/embedded-4_9-br
