ARM GAS  C:\Users\ADMINI~1\AppData\Local\Temp\ccs1OUCB.s 			page 1


   1              		.cpu cortex-m0
   2              		.fpu softvfp
   3              		.eabi_attribute 20, 1
   4              		.eabi_attribute 21, 1
   5              		.eabi_attribute 23, 3
   6              		.eabi_attribute 24, 1
   7              		.eabi_attribute 25, 1
   8              		.eabi_attribute 26, 1
   9              		.eabi_attribute 30, 6
  10              		.eabi_attribute 34, 0
  11              		.eabi_attribute 18, 4
  12              		.code	16
  13              		.file	"BLE_eventHandler.c"
  14              		.text
  15              	.Ltext0:
  16              		.cfi_sections	.debug_frame
  17              		.comm	cyBle_connHandle,2,4
  18              		.comm	cyBle_eventHandlerFlag,1,1
  19              		.comm	cyBle_busyStatus,1,1
  20              		.comm	cyBle_scanningIntervalType,1,1
  21              		.comm	cyBle_disCount,1,1
  22              		.global	cyBle_serverInfo
  23              		.data
  24              		.align	2
  25              		.type	cyBle_serverInfo, %object
  26              		.size	cyBle_serverInfo, 12
  27              	cyBle_serverInfo:
  28 0000 0000     		.short	0
  29 0002 0000     		.short	0
  30 0004 0018     		.short	6144
  31 0006 0000     		.short	0
  32 0008 0000     		.short	0
  33 000a 0118     		.short	6145
  34              		.comm	cyBle_gapc,12,4
  35              		.global	cyBle_authInfo
  36              		.align	2
  37              		.type	cyBle_authInfo, %object
  38              		.size	cyBle_authInfo, 5
  39              	cyBle_authInfo:
  40 000c 11       		.byte	17
  41 000d 01       		.byte	1
  42 000e 10       		.byte	16
  43 000f 00       		.byte	0
  44 0010 00       		.byte	0
  45 0011 000000   		.section	.text.CyBle_WriteReqHandler,"ax",%progbits
  46              		.align	2
  47              		.code	16
  48              		.thumb_func
  49              		.type	CyBle_WriteReqHandler, %function
  50              	CyBle_WriteReqHandler:
  51              	.LFB2:
  52              		.file 1 ".\\Generated_Source\\PSoC4\\BLE_eventHandler.c"
   1:.\Generated_Source\PSoC4/BLE_eventHandler.c **** /***************************************************************************//**
   2:.\Generated_Source\PSoC4/BLE_eventHandler.c **** * \file CYBLE_eventHandler.c
   3:.\Generated_Source\PSoC4/BLE_eventHandler.c **** * \version 3.10
   4:.\Generated_Source\PSoC4/BLE_eventHandler.c **** * 
   5:.\Generated_Source\PSoC4/BLE_eventHandler.c **** * \brief
ARM GAS  C:\Users\ADMINI~1\AppData\Local\Temp\ccs1OUCB.s 			page 2


   6:.\Generated_Source\PSoC4/BLE_eventHandler.c **** *  This file contains the source code for the Event Handler State Machine
   7:.\Generated_Source\PSoC4/BLE_eventHandler.c **** *  of the BLE Component.
   8:.\Generated_Source\PSoC4/BLE_eventHandler.c **** * 
   9:.\Generated_Source\PSoC4/BLE_eventHandler.c **** ********************************************************************************
  10:.\Generated_Source\PSoC4/BLE_eventHandler.c **** * \copyright
  11:.\Generated_Source\PSoC4/BLE_eventHandler.c **** * Copyright 2014-2016, Cypress Semiconductor Corporation.  All rights reserved.
  12:.\Generated_Source\PSoC4/BLE_eventHandler.c **** * You may use this file only in accordance with the license, terms, conditions,
  13:.\Generated_Source\PSoC4/BLE_eventHandler.c **** * disclaimers, and limitations in the end user license agreement accompanying
  14:.\Generated_Source\PSoC4/BLE_eventHandler.c **** * the software package with which this file was provided.
  15:.\Generated_Source\PSoC4/BLE_eventHandler.c **** *******************************************************************************/
  16:.\Generated_Source\PSoC4/BLE_eventHandler.c **** 
  17:.\Generated_Source\PSoC4/BLE_eventHandler.c **** #include "BLE_eventHandler.h"
  18:.\Generated_Source\PSoC4/BLE_eventHandler.c **** 
  19:.\Generated_Source\PSoC4/BLE_eventHandler.c **** 
  20:.\Generated_Source\PSoC4/BLE_eventHandler.c **** /***************************************
  21:.\Generated_Source\PSoC4/BLE_eventHandler.c **** * Private Function Prototypes
  22:.\Generated_Source\PSoC4/BLE_eventHandler.c **** ***************************************/
  23:.\Generated_Source\PSoC4/BLE_eventHandler.c **** 
  24:.\Generated_Source\PSoC4/BLE_eventHandler.c **** static void CyBle_GattDisconnectEventHandler(void);
  25:.\Generated_Source\PSoC4/BLE_eventHandler.c **** static void CyBle_TimeOutEventHandler(const CYBLE_TO_REASON_CODE_T *eventParam);
  26:.\Generated_Source\PSoC4/BLE_eventHandler.c **** static void CyBle_GattConnectReqHandler(void);
  27:.\Generated_Source\PSoC4/BLE_eventHandler.c **** static void CyBle_L2Cap_ConnParamUpdateRspEventHandler(uint16 response);
  28:.\Generated_Source\PSoC4/BLE_eventHandler.c **** static void CyBle_GapConnUpdateCompleteEventHandler(const CYBLE_GAP_CONN_PARAM_UPDATED_IN_CONTROLLE
  29:.\Generated_Source\PSoC4/BLE_eventHandler.c **** 
  30:.\Generated_Source\PSoC4/BLE_eventHandler.c **** 
  31:.\Generated_Source\PSoC4/BLE_eventHandler.c **** #if (CYBLE_GATT_ROLE_SERVER)
  32:.\Generated_Source\PSoC4/BLE_eventHandler.c **** 
  33:.\Generated_Source\PSoC4/BLE_eventHandler.c **** static void CyBle_WriteReqHandler(CYBLE_GATTS_WRITE_REQ_PARAM_T *eventParam);
  34:.\Generated_Source\PSoC4/BLE_eventHandler.c **** static void CyBle_ValueConfirmation(const CYBLE_CONN_HANDLE_T *eventParam);
  35:.\Generated_Source\PSoC4/BLE_eventHandler.c **** 
  36:.\Generated_Source\PSoC4/BLE_eventHandler.c **** #endif /* CYBLE_GATT_ROLE_SERVER */
  37:.\Generated_Source\PSoC4/BLE_eventHandler.c **** 
  38:.\Generated_Source\PSoC4/BLE_eventHandler.c **** #if (CYBLE_GATT_ROLE_CLIENT)
  39:.\Generated_Source\PSoC4/BLE_eventHandler.c **** 
  40:.\Generated_Source\PSoC4/BLE_eventHandler.c **** static void CyBle_GapcDiscoverCharacteristicsEventHandler(CYBLE_DISC_CHAR_INFO_T *discCharInfo);
  41:.\Generated_Source\PSoC4/BLE_eventHandler.c **** static CYBLE_GATT_ATTR_HANDLE_RANGE_T CyBle_GetCharRange(void);
  42:.\Generated_Source\PSoC4/BLE_eventHandler.c **** static void CyBle_GattcWriteResponseEventHandler(const CYBLE_CONN_HANDLE_T *eventParam);
  43:.\Generated_Source\PSoC4/BLE_eventHandler.c **** static void CyBle_NotificationEventHandler(CYBLE_GATTC_HANDLE_VALUE_NTF_PARAM_T *eventParam);
  44:.\Generated_Source\PSoC4/BLE_eventHandler.c **** static void CyBle_IndicationEventHandler(CYBLE_GATTC_HANDLE_VALUE_IND_PARAM_T *eventParam);
  45:.\Generated_Source\PSoC4/BLE_eventHandler.c **** static void CyBle_ReadResponseEventHandler(CYBLE_GATTC_READ_RSP_PARAM_T *eventParam);
  46:.\Generated_Source\PSoC4/BLE_eventHandler.c **** static void CyBle_ReadMultipleResponseEventHandler(CYBLE_GATTC_READ_RSP_PARAM_T *eventParam);
  47:.\Generated_Source\PSoC4/BLE_eventHandler.c **** 
  48:.\Generated_Source\PSoC4/BLE_eventHandler.c **** #endif /* CYBLE_GATT_ROLE_CLIENT */
  49:.\Generated_Source\PSoC4/BLE_eventHandler.c **** 
  50:.\Generated_Source\PSoC4/BLE_eventHandler.c **** 
  51:.\Generated_Source\PSoC4/BLE_eventHandler.c **** /***************************************
  52:.\Generated_Source\PSoC4/BLE_eventHandler.c **** * Global Variables
  53:.\Generated_Source\PSoC4/BLE_eventHandler.c **** ***************************************/
  54:.\Generated_Source\PSoC4/BLE_eventHandler.c **** 
  55:.\Generated_Source\PSoC4/BLE_eventHandler.c **** /* This global variable is initialized after connection with peer device, 
  56:.\Generated_Source\PSoC4/BLE_eventHandler.c ****    after CYBLE_EVT_GATT_CONNECT_IND event, and could be used by application code
  57:.\Generated_Source\PSoC4/BLE_eventHandler.c ****    to send data to peer device. 
  58:.\Generated_Source\PSoC4/BLE_eventHandler.c **** */
  59:.\Generated_Source\PSoC4/BLE_eventHandler.c **** CYBLE_CONN_HANDLE_T cyBle_connHandle;
  60:.\Generated_Source\PSoC4/BLE_eventHandler.c **** 
  61:.\Generated_Source\PSoC4/BLE_eventHandler.c **** volatile uint8 cyBle_eventHandlerFlag;
  62:.\Generated_Source\PSoC4/BLE_eventHandler.c **** volatile uint8 cyBle_busyStatus;
ARM GAS  C:\Users\ADMINI~1\AppData\Local\Temp\ccs1OUCB.s 			page 3


  63:.\Generated_Source\PSoC4/BLE_eventHandler.c **** 
  64:.\Generated_Source\PSoC4/BLE_eventHandler.c **** #if(CYBLE_GAP_ROLE_PERIPHERAL || CYBLE_GAP_ROLE_BROADCASTER) 
  65:.\Generated_Source\PSoC4/BLE_eventHandler.c ****     uint8 cyBle_advertisingIntervalType;
  66:.\Generated_Source\PSoC4/BLE_eventHandler.c **** #endif /* CYBLE_GAP_ROLE_PERIPHERAL || CYBLE_GAP_ROLE_BROADCASTER) */
  67:.\Generated_Source\PSoC4/BLE_eventHandler.c **** 
  68:.\Generated_Source\PSoC4/BLE_eventHandler.c **** #if(CYBLE_GAP_ROLE_CENTRAL || CYBLE_GAP_ROLE_OBSERVER) 
  69:.\Generated_Source\PSoC4/BLE_eventHandler.c ****     uint8 cyBle_scanningIntervalType;
  70:.\Generated_Source\PSoC4/BLE_eventHandler.c **** #endif /* CYBLE_GAP_ROLE_CENTRAL || CYBLE_GAP_ROLE_OBSERVER */
  71:.\Generated_Source\PSoC4/BLE_eventHandler.c **** 
  72:.\Generated_Source\PSoC4/BLE_eventHandler.c **** #if(CYBLE_GATT_ROLE_SERVER)
  73:.\Generated_Source\PSoC4/BLE_eventHandler.c **** #if defined CYBLE_CTS_SERVER || defined CYBLE_ESS_SERVER
  74:.\Generated_Source\PSoC4/BLE_eventHandler.c **** CYBLE_GATT_ERR_CODE_T cyBle_gattError;
  75:.\Generated_Source\PSoC4/BLE_eventHandler.c **** #endif /* defined CYBLE_CTS_SERVER || defined CYBLE_ESS_SERVER */
  76:.\Generated_Source\PSoC4/BLE_eventHandler.c **** #endif /* CYBLE_GATT_ROLE_SERVER */
  77:.\Generated_Source\PSoC4/BLE_eventHandler.c **** 
  78:.\Generated_Source\PSoC4/BLE_eventHandler.c **** #if(CYBLE_GATT_ROLE_CLIENT)
  79:.\Generated_Source\PSoC4/BLE_eventHandler.c **** uint8 cyBle_disCount; /* Counter for discovery procedures */
  80:.\Generated_Source\PSoC4/BLE_eventHandler.c **** 
  81:.\Generated_Source\PSoC4/BLE_eventHandler.c **** #ifdef CYBLE_CUSTOM_CLIENT
  82:.\Generated_Source\PSoC4/BLE_eventHandler.c **** /* Discovery included service information, used for 128-bit UUID read response handle 
  83:.\Generated_Source\PSoC4/BLE_eventHandler.c ****    and for continue discovery. 
  84:.\Generated_Source\PSoC4/BLE_eventHandler.c **** */
  85:.\Generated_Source\PSoC4/BLE_eventHandler.c **** static CYBLE_DISC_INCL_INFO_T cyBle_discInclInfo;
  86:.\Generated_Source\PSoC4/BLE_eventHandler.c **** #endif /* CYBLE_CUSTOM_CLIENT */
  87:.\Generated_Source\PSoC4/BLE_eventHandler.c **** 
  88:.\Generated_Source\PSoC4/BLE_eventHandler.c **** #ifdef CYBLE_HIDS_CLIENT
  89:.\Generated_Source\PSoC4/BLE_eventHandler.c ****     static uint8 disServiceIndex;      /* To discovery descriptors for multiple HID service instanc
  90:.\Generated_Source\PSoC4/BLE_eventHandler.c **** #endif /* CYBLE_HIDS_CLIENT */
  91:.\Generated_Source\PSoC4/BLE_eventHandler.c **** 
  92:.\Generated_Source\PSoC4/BLE_eventHandler.c **** CYBLE_DISC_SRVC_INFO_T cyBle_serverInfo[CYBLE_SRVI_COUNT] = /*4*/
  93:.\Generated_Source\PSoC4/BLE_eventHandler.c **** {
  94:.\Generated_Source\PSoC4/BLE_eventHandler.c ****     {{CYBLE_GATT_INVALID_ATTR_HANDLE_VALUE, CYBLE_GATT_INVALID_ATTR_HANDLE_VALUE}, CYBLE_UUID_GAP_S
  95:.\Generated_Source\PSoC4/BLE_eventHandler.c ****     {{CYBLE_GATT_INVALID_ATTR_HANDLE_VALUE, CYBLE_GATT_INVALID_ATTR_HANDLE_VALUE}, CYBLE_UUID_GATT_
  96:.\Generated_Source\PSoC4/BLE_eventHandler.c **** #ifdef CYBLE_ANCS_CLIENT
  97:.\Generated_Source\PSoC4/BLE_eventHandler.c ****     {{CYBLE_GATT_INVALID_ATTR_HANDLE_VALUE, CYBLE_GATT_INVALID_ATTR_HANDLE_VALUE}, 0x0000u},
  98:.\Generated_Source\PSoC4/BLE_eventHandler.c **** #endif /* CYBLE_ANCS_CLIENT */
  99:.\Generated_Source\PSoC4/BLE_eventHandler.c **** #ifdef CYBLE_ANS_CLIENT
 100:.\Generated_Source\PSoC4/BLE_eventHandler.c ****     {{CYBLE_GATT_INVALID_ATTR_HANDLE_VALUE, CYBLE_GATT_INVALID_ATTR_HANDLE_VALUE}, 
 101:.\Generated_Source\PSoC4/BLE_eventHandler.c ****         CYBLE_UUID_ALERT_NOTIFICATION_SERVICE},
 102:.\Generated_Source\PSoC4/BLE_eventHandler.c **** #endif /* CYBLE_ANS_CLIENT */
 103:.\Generated_Source\PSoC4/BLE_eventHandler.c **** #ifdef CYBLE_BAS_CLIENT
 104:.\Generated_Source\PSoC4/BLE_eventHandler.c ****     {{CYBLE_GATT_INVALID_ATTR_HANDLE_VALUE, CYBLE_GATT_INVALID_ATTR_HANDLE_VALUE}, CYBLE_UUID_BAS_S
 105:.\Generated_Source\PSoC4/BLE_eventHandler.c ****     #if(CYBLE_BASC_SERVICE_COUNT > 1u) /* Generate it by GUI */
 106:.\Generated_Source\PSoC4/BLE_eventHandler.c ****         
 107:.\Generated_Source\PSoC4/BLE_eventHandler.c ****     #endif /* CYBLE_BASC_SERVICE_COUNT > 1u */
 108:.\Generated_Source\PSoC4/BLE_eventHandler.c **** #endif /* CYBLE_BAS_CLIENT */
 109:.\Generated_Source\PSoC4/BLE_eventHandler.c **** #ifdef CYBLE_BCS_CLIENT
 110:.\Generated_Source\PSoC4/BLE_eventHandler.c ****     {{CYBLE_GATT_INVALID_ATTR_HANDLE_VALUE, CYBLE_GATT_INVALID_ATTR_HANDLE_VALUE}, CYBLE_UUID_BODY_
 111:.\Generated_Source\PSoC4/BLE_eventHandler.c **** #endif /* CYBLE_BCS_CLIENT */
 112:.\Generated_Source\PSoC4/BLE_eventHandler.c **** #ifdef CYBLE_BLS_CLIENT
 113:.\Generated_Source\PSoC4/BLE_eventHandler.c ****     {{CYBLE_GATT_INVALID_ATTR_HANDLE_VALUE, CYBLE_GATT_INVALID_ATTR_HANDLE_VALUE}, CYBLE_UUID_BLOOD
 114:.\Generated_Source\PSoC4/BLE_eventHandler.c **** #endif /* CYBLE_BLS_CLIENT */
 115:.\Generated_Source\PSoC4/BLE_eventHandler.c **** #ifdef CYBLE_BMS_CLIENT
 116:.\Generated_Source\PSoC4/BLE_eventHandler.c ****     {{CYBLE_GATT_INVALID_ATTR_HANDLE_VALUE, CYBLE_GATT_INVALID_ATTR_HANDLE_VALUE}, CYBLE_UUID_BOND_
 117:.\Generated_Source\PSoC4/BLE_eventHandler.c **** #endif /* CYBLE_BMS_CLIENT */
 118:.\Generated_Source\PSoC4/BLE_eventHandler.c **** #ifdef CYBLE_CGMS_CLIENT
 119:.\Generated_Source\PSoC4/BLE_eventHandler.c ****     {{CYBLE_GATT_INVALID_ATTR_HANDLE_VALUE, CYBLE_GATT_INVALID_ATTR_HANDLE_VALUE}, CYBLE_UUID_CGM_S
ARM GAS  C:\Users\ADMINI~1\AppData\Local\Temp\ccs1OUCB.s 			page 4


 120:.\Generated_Source\PSoC4/BLE_eventHandler.c **** #endif /* CYBLE_CGMS_CLIENT */
 121:.\Generated_Source\PSoC4/BLE_eventHandler.c **** #ifdef CYBLE_CPS_CLIENT
 122:.\Generated_Source\PSoC4/BLE_eventHandler.c ****     {{CYBLE_GATT_INVALID_ATTR_HANDLE_VALUE, CYBLE_GATT_INVALID_ATTR_HANDLE_VALUE}, CYBLE_UUID_CPS_S
 123:.\Generated_Source\PSoC4/BLE_eventHandler.c **** #endif /* CYBLE_CPS_CLIENT */
 124:.\Generated_Source\PSoC4/BLE_eventHandler.c **** #ifdef CYBLE_CSCS_CLIENT
 125:.\Generated_Source\PSoC4/BLE_eventHandler.c ****     {{CYBLE_GATT_INVALID_ATTR_HANDLE_VALUE, CYBLE_GATT_INVALID_ATTR_HANDLE_VALUE}, 
 126:.\Generated_Source\PSoC4/BLE_eventHandler.c ****         CYBLE_UUID_CYCLING_SPEED_AND_CADENCE_SERVICE},
 127:.\Generated_Source\PSoC4/BLE_eventHandler.c **** #endif /* CYBLE_CSCS_CLIENT */
 128:.\Generated_Source\PSoC4/BLE_eventHandler.c **** #ifdef CYBLE_CTS_CLIENT
 129:.\Generated_Source\PSoC4/BLE_eventHandler.c ****     {{CYBLE_GATT_INVALID_ATTR_HANDLE_VALUE, CYBLE_GATT_INVALID_ATTR_HANDLE_VALUE}, CYBLE_UUID_CURRE
 130:.\Generated_Source\PSoC4/BLE_eventHandler.c **** #endif /* CYBLE_CTS_CLIENT */
 131:.\Generated_Source\PSoC4/BLE_eventHandler.c **** #ifdef CYBLE_CUSTOM_CLIENT
 132:.\Generated_Source\PSoC4/BLE_eventHandler.c ****     
 133:.\Generated_Source\PSoC4/BLE_eventHandler.c **** #endif /* CYBLE_CUSTOM_CLIENT */
 134:.\Generated_Source\PSoC4/BLE_eventHandler.c **** #ifdef CYBLE_DIS_CLIENT
 135:.\Generated_Source\PSoC4/BLE_eventHandler.c ****     {{CYBLE_GATT_INVALID_ATTR_HANDLE_VALUE, CYBLE_GATT_INVALID_ATTR_HANDLE_VALUE}, CYBLE_UUID_DEVIC
 136:.\Generated_Source\PSoC4/BLE_eventHandler.c **** #endif /* CYBLE_DIS_CLIENT */
 137:.\Generated_Source\PSoC4/BLE_eventHandler.c **** #ifdef CYBLE_ESS_CLIENT
 138:.\Generated_Source\PSoC4/BLE_eventHandler.c ****     {{CYBLE_GATT_INVALID_ATTR_HANDLE_VALUE, CYBLE_GATT_INVALID_ATTR_HANDLE_VALUE}, 
 139:.\Generated_Source\PSoC4/BLE_eventHandler.c ****         CYBLE_UUID_ENVIRONMENTAL_SENSING_SERVICE},
 140:.\Generated_Source\PSoC4/BLE_eventHandler.c **** #endif /* CYBLE_ESS_CLIENT */
 141:.\Generated_Source\PSoC4/BLE_eventHandler.c **** #ifdef CYBLE_GLS_CLIENT
 142:.\Generated_Source\PSoC4/BLE_eventHandler.c ****     {{CYBLE_GATT_INVALID_ATTR_HANDLE_VALUE, CYBLE_GATT_INVALID_ATTR_HANDLE_VALUE}, CYBLE_UUID_GLUCO
 143:.\Generated_Source\PSoC4/BLE_eventHandler.c **** #endif /* CYBLE_GLS_CLIENT */
 144:.\Generated_Source\PSoC4/BLE_eventHandler.c **** #ifdef CYBLE_HIDS_CLIENT
 145:.\Generated_Source\PSoC4/BLE_eventHandler.c ****     {{CYBLE_GATT_INVALID_ATTR_HANDLE_VALUE, CYBLE_GATT_INVALID_ATTR_HANDLE_VALUE}, CYBLE_UUID_HIDS_
 146:.\Generated_Source\PSoC4/BLE_eventHandler.c ****     #if(CYBLE_HIDSC_SERVICE_COUNT > 1u) /* Generate it by GUI */
 147:.\Generated_Source\PSoC4/BLE_eventHandler.c ****         
 148:.\Generated_Source\PSoC4/BLE_eventHandler.c ****     #endif /* CYBLE_HIDSC_SERVICE_COUNT > 1u */
 149:.\Generated_Source\PSoC4/BLE_eventHandler.c **** #endif /* CYBLE_HIDS_CLIENT */
 150:.\Generated_Source\PSoC4/BLE_eventHandler.c **** #ifdef CYBLE_HPS_CLIENT
 151:.\Generated_Source\PSoC4/BLE_eventHandler.c ****     {{CYBLE_GATT_INVALID_ATTR_HANDLE_VALUE, CYBLE_GATT_INVALID_ATTR_HANDLE_VALUE}, CYBLE_UUID_HTTP_
 152:.\Generated_Source\PSoC4/BLE_eventHandler.c **** #endif /* CYBLE_HPS_CLIENT */
 153:.\Generated_Source\PSoC4/BLE_eventHandler.c **** #ifdef CYBLE_HRS_CLIENT
 154:.\Generated_Source\PSoC4/BLE_eventHandler.c ****     {{CYBLE_GATT_INVALID_ATTR_HANDLE_VALUE, CYBLE_GATT_INVALID_ATTR_HANDLE_VALUE}, CYBLE_UUID_HEART
 155:.\Generated_Source\PSoC4/BLE_eventHandler.c **** #endif /* CYBLE_HRS_CLIENT */
 156:.\Generated_Source\PSoC4/BLE_eventHandler.c **** #ifdef CYBLE_HTS_CLIENT
 157:.\Generated_Source\PSoC4/BLE_eventHandler.c ****     {{CYBLE_GATT_INVALID_ATTR_HANDLE_VALUE, CYBLE_GATT_INVALID_ATTR_HANDLE_VALUE}, CYBLE_UUID_HEALT
 158:.\Generated_Source\PSoC4/BLE_eventHandler.c **** #endif /* CYBLE_HTS_CLIENT */
 159:.\Generated_Source\PSoC4/BLE_eventHandler.c **** #ifdef CYBLE_IAS_CLIENT
 160:.\Generated_Source\PSoC4/BLE_eventHandler.c ****     {{CYBLE_GATT_INVALID_ATTR_HANDLE_VALUE, CYBLE_GATT_INVALID_ATTR_HANDLE_VALUE}, CYBLE_UUID_IMMED
 161:.\Generated_Source\PSoC4/BLE_eventHandler.c **** #endif /* CYBLE_IAS_CLIENT */
 162:.\Generated_Source\PSoC4/BLE_eventHandler.c **** #ifdef CYBLE_IPS_CLIENT
 163:.\Generated_Source\PSoC4/BLE_eventHandler.c ****     {{CYBLE_GATT_INVALID_ATTR_HANDLE_VALUE, CYBLE_GATT_INVALID_ATTR_HANDLE_VALUE}, CYBLE_UUID_IPS_S
 164:.\Generated_Source\PSoC4/BLE_eventHandler.c **** #endif /* CYBLE_IPS_CLIENT */
 165:.\Generated_Source\PSoC4/BLE_eventHandler.c **** #ifdef CYBLE_LLS_CLIENT
 166:.\Generated_Source\PSoC4/BLE_eventHandler.c ****     {{CYBLE_GATT_INVALID_ATTR_HANDLE_VALUE, CYBLE_GATT_INVALID_ATTR_HANDLE_VALUE}, CYBLE_UUID_LINK_
 167:.\Generated_Source\PSoC4/BLE_eventHandler.c **** #endif /* CYBLE_LLS_CLIENT */
 168:.\Generated_Source\PSoC4/BLE_eventHandler.c **** #ifdef CYBLE_LNS_CLIENT
 169:.\Generated_Source\PSoC4/BLE_eventHandler.c ****     {{CYBLE_GATT_INVALID_ATTR_HANDLE_VALUE, CYBLE_GATT_INVALID_ATTR_HANDLE_VALUE}, CYBLE_UUID_LOCAT
 170:.\Generated_Source\PSoC4/BLE_eventHandler.c **** #endif /* CYBLE_LNS_CLIENT */
 171:.\Generated_Source\PSoC4/BLE_eventHandler.c **** #ifdef CYBLE_NDCS_CLIENT
 172:.\Generated_Source\PSoC4/BLE_eventHandler.c ****     {{CYBLE_GATT_INVALID_ATTR_HANDLE_VALUE, CYBLE_GATT_INVALID_ATTR_HANDLE_VALUE}, CYBLE_UUID_NEXT_
 173:.\Generated_Source\PSoC4/BLE_eventHandler.c **** #endif /* CYBLE_NDCS_CLIENT */
 174:.\Generated_Source\PSoC4/BLE_eventHandler.c **** #ifdef CYBLE_IPSS_CLIENT
 175:.\Generated_Source\PSoC4/BLE_eventHandler.c ****     {{CYBLE_GATT_INVALID_ATTR_HANDLE_VALUE, CYBLE_GATT_INVALID_ATTR_HANDLE_VALUE}, CYBLE_UUID_INTER
 176:.\Generated_Source\PSoC4/BLE_eventHandler.c **** #endif /* CYBLE_IPSS_CLIENT */
ARM GAS  C:\Users\ADMINI~1\AppData\Local\Temp\ccs1OUCB.s 			page 5


 177:.\Generated_Source\PSoC4/BLE_eventHandler.c **** #ifdef CYBLE_PASS_CLIENT
 178:.\Generated_Source\PSoC4/BLE_eventHandler.c ****     {{CYBLE_GATT_INVALID_ATTR_HANDLE_VALUE, CYBLE_GATT_INVALID_ATTR_HANDLE_VALUE}, CYBLE_UUID_PHONE
 179:.\Generated_Source\PSoC4/BLE_eventHandler.c **** #endif /* CYBLE_PASS_CLIENT */
 180:.\Generated_Source\PSoC4/BLE_eventHandler.c **** #ifdef CYBLE_RSCS_CLIENT
 181:.\Generated_Source\PSoC4/BLE_eventHandler.c ****     {{CYBLE_GATT_INVALID_ATTR_HANDLE_VALUE, CYBLE_GATT_INVALID_ATTR_HANDLE_VALUE}, CYBLE_UUID_RUNNI
 182:.\Generated_Source\PSoC4/BLE_eventHandler.c **** #endif /* CYBLE_RSCS_CLIENT */
 183:.\Generated_Source\PSoC4/BLE_eventHandler.c **** #ifdef CYBLE_RTUS_CLIENT
 184:.\Generated_Source\PSoC4/BLE_eventHandler.c ****     {{CYBLE_GATT_INVALID_ATTR_HANDLE_VALUE, CYBLE_GATT_INVALID_ATTR_HANDLE_VALUE}, CYBLE_UUID_REF_T
 185:.\Generated_Source\PSoC4/BLE_eventHandler.c **** #endif /* CYBLE_RTUS_CLIENT */
 186:.\Generated_Source\PSoC4/BLE_eventHandler.c **** #ifdef CYBLE_SCPS_CLIENT
 187:.\Generated_Source\PSoC4/BLE_eventHandler.c ****     {{CYBLE_GATT_INVALID_ATTR_HANDLE_VALUE, CYBLE_GATT_INVALID_ATTR_HANDLE_VALUE}, CYBLE_UUID_SCAN_
 188:.\Generated_Source\PSoC4/BLE_eventHandler.c **** #endif /* CYBLE_SCPS_CLIENT */
 189:.\Generated_Source\PSoC4/BLE_eventHandler.c **** #ifdef CYBLE_TPS_CLIENT
 190:.\Generated_Source\PSoC4/BLE_eventHandler.c ****     {{CYBLE_GATT_INVALID_ATTR_HANDLE_VALUE, CYBLE_GATT_INVALID_ATTR_HANDLE_VALUE}, CYBLE_UUID_TX_PO
 191:.\Generated_Source\PSoC4/BLE_eventHandler.c **** #endif /* CYBLE_TPS_CLIENT */
 192:.\Generated_Source\PSoC4/BLE_eventHandler.c **** #ifdef CYBLE_UDS_CLIENT
 193:.\Generated_Source\PSoC4/BLE_eventHandler.c ****     {{CYBLE_GATT_INVALID_ATTR_HANDLE_VALUE, CYBLE_GATT_INVALID_ATTR_HANDLE_VALUE}, CYBLE_UUID_USER_
 194:.\Generated_Source\PSoC4/BLE_eventHandler.c **** #endif /* CYBLE_UDS_CLIENT */
 195:.\Generated_Source\PSoC4/BLE_eventHandler.c **** #ifdef CYBLE_WSS_CLIENT
 196:.\Generated_Source\PSoC4/BLE_eventHandler.c ****     {{CYBLE_GATT_INVALID_ATTR_HANDLE_VALUE, CYBLE_GATT_INVALID_ATTR_HANDLE_VALUE}, CYBLE_UUID_WEIGH
 197:.\Generated_Source\PSoC4/BLE_eventHandler.c **** #endif /* CYBLE_WSS_CLIENT */
 198:.\Generated_Source\PSoC4/BLE_eventHandler.c **** #ifdef CYBLE_WPTS_CLIENT
 199:.\Generated_Source\PSoC4/BLE_eventHandler.c ****     {{CYBLE_GATT_INVALID_ATTR_HANDLE_VALUE, CYBLE_GATT_INVALID_ATTR_HANDLE_VALUE}, CYBLE_UUID_WIREL
 200:.\Generated_Source\PSoC4/BLE_eventHandler.c **** #endif /* CYBLE_WPTS_CLIENT */
 201:.\Generated_Source\PSoC4/BLE_eventHandler.c **** };
 202:.\Generated_Source\PSoC4/BLE_eventHandler.c **** 
 203:.\Generated_Source\PSoC4/BLE_eventHandler.c **** CYBLE_GAPC_T cyBle_gapc;
 204:.\Generated_Source\PSoC4/BLE_eventHandler.c **** 
 205:.\Generated_Source\PSoC4/BLE_eventHandler.c **** #endif /* CYBLE_GATT_ROLE_CLIENT */
 206:.\Generated_Source\PSoC4/BLE_eventHandler.c **** 
 207:.\Generated_Source\PSoC4/BLE_eventHandler.c **** /* Default device security */
 208:.\Generated_Source\PSoC4/BLE_eventHandler.c **** CYBLE_GAP_AUTH_INFO_T cyBle_authInfo =
 209:.\Generated_Source\PSoC4/BLE_eventHandler.c **** {
 210:.\Generated_Source\PSoC4/BLE_eventHandler.c ****     (CYBLE_GAP_SEC_MODE_1 | CYBLE_GAP_SEC_LEVEL_2 ), /* uint8 security */
 211:.\Generated_Source\PSoC4/BLE_eventHandler.c ****     CYBLE_GAP_BONDING, /* uint8 bonding */
 212:.\Generated_Source\PSoC4/BLE_eventHandler.c ****     0x10u,      /* uint8 ekeySize */
 213:.\Generated_Source\PSoC4/BLE_eventHandler.c ****     CYBLE_GAP_AUTH_ERROR_NONE, /* CYBLE_AUTH_FAILED_REASON_T authErr */
 214:.\Generated_Source\PSoC4/BLE_eventHandler.c ****     0x00u,      /* uint8 pairingProperties */
 215:.\Generated_Source\PSoC4/BLE_eventHandler.c **** };
 216:.\Generated_Source\PSoC4/BLE_eventHandler.c **** 
 217:.\Generated_Source\PSoC4/BLE_eventHandler.c **** #if(CYBLE_GATT_ROLE_SERVER)
 218:.\Generated_Source\PSoC4/BLE_eventHandler.c **** 
 219:.\Generated_Source\PSoC4/BLE_eventHandler.c **** 
 220:.\Generated_Source\PSoC4/BLE_eventHandler.c **** /******************************************************************************    
 221:.\Generated_Source\PSoC4/BLE_eventHandler.c **** * Function Name: CyBle_WriteReqHandler
 222:.\Generated_Source\PSoC4/BLE_eventHandler.c **** ***************************************************************************//**
 223:.\Generated_Source\PSoC4/BLE_eventHandler.c **** * 
 224:.\Generated_Source\PSoC4/BLE_eventHandler.c **** *  Handles the Write Request event from BLE stack.
 225:.\Generated_Source\PSoC4/BLE_eventHandler.c **** * 
 226:.\Generated_Source\PSoC4/BLE_eventHandler.c **** *  CYBLE_GATTS_WRITE_REQ_PARAM_T * eventParam - event parameter
 227:.\Generated_Source\PSoC4/BLE_eventHandler.c **** * 
 228:.\Generated_Source\PSoC4/BLE_eventHandler.c **** * \return
 229:.\Generated_Source\PSoC4/BLE_eventHandler.c **** *  None
 230:.\Generated_Source\PSoC4/BLE_eventHandler.c **** * 
 231:.\Generated_Source\PSoC4/BLE_eventHandler.c **** ******************************************************************************/
 232:.\Generated_Source\PSoC4/BLE_eventHandler.c **** static void CyBle_WriteReqHandler(CYBLE_GATTS_WRITE_REQ_PARAM_T *eventParam)
 233:.\Generated_Source\PSoC4/BLE_eventHandler.c **** {
ARM GAS  C:\Users\ADMINI~1\AppData\Local\Temp\ccs1OUCB.s 			page 6


  53              		.loc 1 233 0
  54              		.cfi_startproc
  55 0000 90B5     		push	{r4, r7, lr}
  56              		.cfi_def_cfa_offset 12
  57              		.cfi_offset 4, -12
  58              		.cfi_offset 7, -8
  59              		.cfi_offset 14, -4
  60 0002 85B0     		sub	sp, sp, #20
  61              		.cfi_def_cfa_offset 32
  62 0004 00AF     		add	r7, sp, #0
  63              		.cfi_def_cfa_register 7
  64 0006 7860     		str	r0, [r7, #4]
 234:.\Generated_Source\PSoC4/BLE_eventHandler.c ****     CYBLE_GATT_ERR_CODE_T gattErr;
 235:.\Generated_Source\PSoC4/BLE_eventHandler.c **** #if defined CYBLE_CTS_SERVER || defined CYBLE_ESS_SERVER
 236:.\Generated_Source\PSoC4/BLE_eventHandler.c ****     cyBle_gattError = CYBLE_GATT_ERR_NONE;
 237:.\Generated_Source\PSoC4/BLE_eventHandler.c **** #endif /* defined CYBLE_CTS_SERVER || defined CYBLE_ESS_SERVER */
 238:.\Generated_Source\PSoC4/BLE_eventHandler.c ****     
 239:.\Generated_Source\PSoC4/BLE_eventHandler.c ****     gattErr = CyBle_GattsWriteEventHandler(eventParam);
  65              		.loc 1 239 0
  66 0008 0F23     		mov	r3, #15
  67 000a FC18     		add	r4, r7, r3
  68 000c 7B68     		ldr	r3, [r7, #4]
  69 000e 181C     		mov	r0, r3
  70 0010 FFF7FEFF 		bl	CyBle_GattsWriteEventHandler
  71 0014 031C     		mov	r3, r0
  72 0016 2370     		strb	r3, [r4]
 240:.\Generated_Source\PSoC4/BLE_eventHandler.c **** #ifdef CYBLE_ANCS_SERVER
 241:.\Generated_Source\PSoC4/BLE_eventHandler.c ****     if(((cyBle_eventHandlerFlag & CYBLE_CALLBACK) != 0u) && (gattErr == CYBLE_GATT_ERR_NONE))
 242:.\Generated_Source\PSoC4/BLE_eventHandler.c ****     {
 243:.\Generated_Source\PSoC4/BLE_eventHandler.c ****         gattErr = CyBle_AncssWriteEventHandler(eventParam);
 244:.\Generated_Source\PSoC4/BLE_eventHandler.c ****     }
 245:.\Generated_Source\PSoC4/BLE_eventHandler.c **** #endif /* CYBLE_ANCS_SERVER */
 246:.\Generated_Source\PSoC4/BLE_eventHandler.c **** #ifdef CYBLE_ANS_SERVER
 247:.\Generated_Source\PSoC4/BLE_eventHandler.c ****     if(((cyBle_eventHandlerFlag & CYBLE_CALLBACK) != 0u) && (gattErr == CYBLE_GATT_ERR_NONE))
 248:.\Generated_Source\PSoC4/BLE_eventHandler.c ****     {
 249:.\Generated_Source\PSoC4/BLE_eventHandler.c ****         gattErr = CyBle_AnssWriteEventHandler(eventParam);
 250:.\Generated_Source\PSoC4/BLE_eventHandler.c ****     }
 251:.\Generated_Source\PSoC4/BLE_eventHandler.c **** #endif /* CYBLE_ANS_SERVER */
 252:.\Generated_Source\PSoC4/BLE_eventHandler.c **** #ifdef CYBLE_BAS_SERVER
 253:.\Generated_Source\PSoC4/BLE_eventHandler.c ****     if(((cyBle_eventHandlerFlag & CYBLE_CALLBACK) != 0u) && (gattErr == CYBLE_GATT_ERR_NONE))
 254:.\Generated_Source\PSoC4/BLE_eventHandler.c ****     {
 255:.\Generated_Source\PSoC4/BLE_eventHandler.c ****         gattErr = CyBle_BassWriteEventHandler(eventParam);
 256:.\Generated_Source\PSoC4/BLE_eventHandler.c ****     }
 257:.\Generated_Source\PSoC4/BLE_eventHandler.c **** #endif /* CYBLE_BAS_SERVER */
 258:.\Generated_Source\PSoC4/BLE_eventHandler.c **** #ifdef CYBLE_BCS_SERVER
 259:.\Generated_Source\PSoC4/BLE_eventHandler.c ****     if(((cyBle_eventHandlerFlag & CYBLE_CALLBACK) != 0u) && (gattErr == CYBLE_GATT_ERR_NONE))
 260:.\Generated_Source\PSoC4/BLE_eventHandler.c ****     {
 261:.\Generated_Source\PSoC4/BLE_eventHandler.c ****         gattErr = CyBle_BcssWriteEventHandler(eventParam);
 262:.\Generated_Source\PSoC4/BLE_eventHandler.c ****     }
 263:.\Generated_Source\PSoC4/BLE_eventHandler.c **** #endif /* CYBLE_BCS_SERVER */
 264:.\Generated_Source\PSoC4/BLE_eventHandler.c **** #ifdef CYBLE_BLS_SERVER
 265:.\Generated_Source\PSoC4/BLE_eventHandler.c ****     if(((cyBle_eventHandlerFlag & CYBLE_CALLBACK) != 0u) && (gattErr == CYBLE_GATT_ERR_NONE))
 266:.\Generated_Source\PSoC4/BLE_eventHandler.c ****     {
 267:.\Generated_Source\PSoC4/BLE_eventHandler.c ****         gattErr = CyBle_BlssWriteEventHandler(eventParam);
 268:.\Generated_Source\PSoC4/BLE_eventHandler.c ****     }
 269:.\Generated_Source\PSoC4/BLE_eventHandler.c **** #endif /* CYBLE_BLS_SERVER */
 270:.\Generated_Source\PSoC4/BLE_eventHandler.c **** #ifdef CYBLE_BMS_SERVER
ARM GAS  C:\Users\ADMINI~1\AppData\Local\Temp\ccs1OUCB.s 			page 7


 271:.\Generated_Source\PSoC4/BLE_eventHandler.c ****     if(((cyBle_eventHandlerFlag & CYBLE_CALLBACK) != 0u) && (gattErr == CYBLE_GATT_ERR_NONE))
 272:.\Generated_Source\PSoC4/BLE_eventHandler.c ****     {
 273:.\Generated_Source\PSoC4/BLE_eventHandler.c ****         gattErr = CyBle_BmssWriteEventHandler(eventParam);
 274:.\Generated_Source\PSoC4/BLE_eventHandler.c ****     }
 275:.\Generated_Source\PSoC4/BLE_eventHandler.c **** #endif /* CYBLE_BMS_SERVER */
 276:.\Generated_Source\PSoC4/BLE_eventHandler.c **** #ifdef CYBLE_BTS_SERVER
 277:.\Generated_Source\PSoC4/BLE_eventHandler.c ****     if((cyBle_eventHandlerFlag & CYBLE_CALLBACK) != 0u)
 278:.\Generated_Source\PSoC4/BLE_eventHandler.c ****     {
 279:.\Generated_Source\PSoC4/BLE_eventHandler.c ****         gattErr = CyBle_BtsWriteEventHandler(eventParam);
 280:.\Generated_Source\PSoC4/BLE_eventHandler.c ****     }
 281:.\Generated_Source\PSoC4/BLE_eventHandler.c **** #endif /* CYBLE_BTS_SERVER */
 282:.\Generated_Source\PSoC4/BLE_eventHandler.c **** #ifdef CYBLE_CGMS_SERVER
 283:.\Generated_Source\PSoC4/BLE_eventHandler.c ****     if(((cyBle_eventHandlerFlag & CYBLE_CALLBACK) != 0u) && (gattErr == CYBLE_GATT_ERR_NONE))
 284:.\Generated_Source\PSoC4/BLE_eventHandler.c ****     {
 285:.\Generated_Source\PSoC4/BLE_eventHandler.c ****         gattErr = CyBle_CgmssWriteEventHandler(eventParam);
 286:.\Generated_Source\PSoC4/BLE_eventHandler.c ****     }
 287:.\Generated_Source\PSoC4/BLE_eventHandler.c **** #endif /* CYBLE_CGMS_SERVER */
 288:.\Generated_Source\PSoC4/BLE_eventHandler.c **** #ifdef CYBLE_CPS_SERVER
 289:.\Generated_Source\PSoC4/BLE_eventHandler.c ****     if(((cyBle_eventHandlerFlag & CYBLE_CALLBACK) != 0u) && (gattErr == CYBLE_GATT_ERR_NONE))
 290:.\Generated_Source\PSoC4/BLE_eventHandler.c ****     {
 291:.\Generated_Source\PSoC4/BLE_eventHandler.c ****         gattErr = CyBle_CpssWriteEventHandler(eventParam);
 292:.\Generated_Source\PSoC4/BLE_eventHandler.c ****     }
 293:.\Generated_Source\PSoC4/BLE_eventHandler.c **** #endif /* CYBLE_CPS_SERVER */
 294:.\Generated_Source\PSoC4/BLE_eventHandler.c **** #ifdef CYBLE_CSCS_SERVER
 295:.\Generated_Source\PSoC4/BLE_eventHandler.c ****     if(((cyBle_eventHandlerFlag & CYBLE_CALLBACK) != 0u) && (gattErr == CYBLE_GATT_ERR_NONE))
 296:.\Generated_Source\PSoC4/BLE_eventHandler.c ****     {
 297:.\Generated_Source\PSoC4/BLE_eventHandler.c ****         gattErr = CyBle_CscssWriteEventHandler(eventParam);
 298:.\Generated_Source\PSoC4/BLE_eventHandler.c ****     }
 299:.\Generated_Source\PSoC4/BLE_eventHandler.c **** #endif /* CYBLE_CSCS_SERVER */
 300:.\Generated_Source\PSoC4/BLE_eventHandler.c **** #ifdef CYBLE_CTS_SERVER
 301:.\Generated_Source\PSoC4/BLE_eventHandler.c ****     if(((cyBle_eventHandlerFlag & CYBLE_CALLBACK) != 0u) && (gattErr == CYBLE_GATT_ERR_NONE))
 302:.\Generated_Source\PSoC4/BLE_eventHandler.c ****     {
 303:.\Generated_Source\PSoC4/BLE_eventHandler.c ****         gattErr = CyBle_CtssWriteEventHandler(eventParam);
 304:.\Generated_Source\PSoC4/BLE_eventHandler.c ****     }
 305:.\Generated_Source\PSoC4/BLE_eventHandler.c **** #endif /* CYBLE_CTS_SERVER */
 306:.\Generated_Source\PSoC4/BLE_eventHandler.c **** #ifdef CYBLE_ESS_SERVER
 307:.\Generated_Source\PSoC4/BLE_eventHandler.c ****     if(((cyBle_eventHandlerFlag & CYBLE_CALLBACK) != 0u) && (gattErr == CYBLE_GATT_ERR_NONE))
 308:.\Generated_Source\PSoC4/BLE_eventHandler.c ****     {
 309:.\Generated_Source\PSoC4/BLE_eventHandler.c ****         gattErr = CyBle_EsssWriteEventHandler(eventParam);
 310:.\Generated_Source\PSoC4/BLE_eventHandler.c ****     }
 311:.\Generated_Source\PSoC4/BLE_eventHandler.c **** #endif /* CYBLE_ESS_SERVER */
 312:.\Generated_Source\PSoC4/BLE_eventHandler.c **** #ifdef CYBLE_GLS_SERVER
 313:.\Generated_Source\PSoC4/BLE_eventHandler.c ****     if(((cyBle_eventHandlerFlag & CYBLE_CALLBACK) != 0u) && (gattErr == CYBLE_GATT_ERR_NONE))
 314:.\Generated_Source\PSoC4/BLE_eventHandler.c ****     {
 315:.\Generated_Source\PSoC4/BLE_eventHandler.c ****         gattErr = CyBle_GlssWriteEventHandler(eventParam);
 316:.\Generated_Source\PSoC4/BLE_eventHandler.c ****     }
 317:.\Generated_Source\PSoC4/BLE_eventHandler.c **** #endif /* CYBLE_GLS_SERVER */
 318:.\Generated_Source\PSoC4/BLE_eventHandler.c **** #ifdef CYBLE_HIDS_SERVER
 319:.\Generated_Source\PSoC4/BLE_eventHandler.c ****     if(((cyBle_eventHandlerFlag & CYBLE_CALLBACK) != 0u) && (gattErr == CYBLE_GATT_ERR_NONE))
 320:.\Generated_Source\PSoC4/BLE_eventHandler.c ****     {
 321:.\Generated_Source\PSoC4/BLE_eventHandler.c ****         gattErr = CyBle_HidssWriteEventHandler(eventParam);
 322:.\Generated_Source\PSoC4/BLE_eventHandler.c ****     }
 323:.\Generated_Source\PSoC4/BLE_eventHandler.c **** #endif /* CYBLE_HIDS_SERVER */
 324:.\Generated_Source\PSoC4/BLE_eventHandler.c **** #ifdef CYBLE_HPS_SERVER
 325:.\Generated_Source\PSoC4/BLE_eventHandler.c ****     if(((cyBle_eventHandlerFlag & CYBLE_CALLBACK) != 0u) && (gattErr == CYBLE_GATT_ERR_NONE))
 326:.\Generated_Source\PSoC4/BLE_eventHandler.c ****     {
 327:.\Generated_Source\PSoC4/BLE_eventHandler.c ****         gattErr = CyBle_HpssWriteEventHandler(eventParam);
ARM GAS  C:\Users\ADMINI~1\AppData\Local\Temp\ccs1OUCB.s 			page 8


 328:.\Generated_Source\PSoC4/BLE_eventHandler.c ****     }
 329:.\Generated_Source\PSoC4/BLE_eventHandler.c **** #endif /* CYBLE_HPS_SERVER */
 330:.\Generated_Source\PSoC4/BLE_eventHandler.c **** #ifdef CYBLE_HRS_SERVER
 331:.\Generated_Source\PSoC4/BLE_eventHandler.c ****     if(((cyBle_eventHandlerFlag & CYBLE_CALLBACK) != 0u) && (gattErr == CYBLE_GATT_ERR_NONE))
 332:.\Generated_Source\PSoC4/BLE_eventHandler.c ****     {
 333:.\Generated_Source\PSoC4/BLE_eventHandler.c ****         gattErr = CyBle_HrssWriteEventHandler(eventParam);
 334:.\Generated_Source\PSoC4/BLE_eventHandler.c ****     }
 335:.\Generated_Source\PSoC4/BLE_eventHandler.c **** #endif /* CYBLE_HRS_SERVER */
 336:.\Generated_Source\PSoC4/BLE_eventHandler.c **** #ifdef CYBLE_HTS_SERVER
 337:.\Generated_Source\PSoC4/BLE_eventHandler.c ****     if(((cyBle_eventHandlerFlag & CYBLE_CALLBACK) != 0u) && (gattErr == CYBLE_GATT_ERR_NONE))
 338:.\Generated_Source\PSoC4/BLE_eventHandler.c ****     {
 339:.\Generated_Source\PSoC4/BLE_eventHandler.c ****         gattErr = CyBle_HtssWriteEventHandler(eventParam);
 340:.\Generated_Source\PSoC4/BLE_eventHandler.c ****     }
 341:.\Generated_Source\PSoC4/BLE_eventHandler.c **** #endif /* CYBLE_HTS_SERVER */
 342:.\Generated_Source\PSoC4/BLE_eventHandler.c **** #ifdef CYBLE_IPS_SERVER
 343:.\Generated_Source\PSoC4/BLE_eventHandler.c ****     if(((cyBle_eventHandlerFlag & CYBLE_CALLBACK) != 0u) && (gattErr == CYBLE_GATT_ERR_NONE))
 344:.\Generated_Source\PSoC4/BLE_eventHandler.c ****     {
 345:.\Generated_Source\PSoC4/BLE_eventHandler.c ****         gattErr = CyBle_IpssWriteEventHandler(eventParam);
 346:.\Generated_Source\PSoC4/BLE_eventHandler.c ****     }
 347:.\Generated_Source\PSoC4/BLE_eventHandler.c **** #endif /* CYBLE_IPS_SERVER */
 348:.\Generated_Source\PSoC4/BLE_eventHandler.c **** #ifdef CYBLE_LLS_SERVER
 349:.\Generated_Source\PSoC4/BLE_eventHandler.c ****     if(((cyBle_eventHandlerFlag & CYBLE_CALLBACK) != 0u) && (gattErr == CYBLE_GATT_ERR_NONE))
 350:.\Generated_Source\PSoC4/BLE_eventHandler.c ****     {
 351:.\Generated_Source\PSoC4/BLE_eventHandler.c ****         gattErr = CyBle_LlssWriteEventHandler(eventParam);
 352:.\Generated_Source\PSoC4/BLE_eventHandler.c ****     }
 353:.\Generated_Source\PSoC4/BLE_eventHandler.c **** #endif /* CYBLE_LLS_SERVER */
 354:.\Generated_Source\PSoC4/BLE_eventHandler.c **** #ifdef CYBLE_LNS_SERVER
 355:.\Generated_Source\PSoC4/BLE_eventHandler.c ****     if(((cyBle_eventHandlerFlag & CYBLE_CALLBACK) != 0u) && (gattErr == CYBLE_GATT_ERR_NONE))
 356:.\Generated_Source\PSoC4/BLE_eventHandler.c ****     {
 357:.\Generated_Source\PSoC4/BLE_eventHandler.c ****         gattErr = CyBle_LnssWriteEventHandler(eventParam);
 358:.\Generated_Source\PSoC4/BLE_eventHandler.c ****     }
 359:.\Generated_Source\PSoC4/BLE_eventHandler.c **** #endif /* CYBLE_LNS_SERVER */
 360:.\Generated_Source\PSoC4/BLE_eventHandler.c **** #ifdef CYBLE_PASS_SERVER
 361:.\Generated_Source\PSoC4/BLE_eventHandler.c ****     if(((cyBle_eventHandlerFlag & CYBLE_CALLBACK) != 0u) && (gattErr == CYBLE_GATT_ERR_NONE))
 362:.\Generated_Source\PSoC4/BLE_eventHandler.c ****     {
 363:.\Generated_Source\PSoC4/BLE_eventHandler.c ****         gattErr = CyBle_PasssWriteEventHandler(eventParam);
 364:.\Generated_Source\PSoC4/BLE_eventHandler.c ****     }
 365:.\Generated_Source\PSoC4/BLE_eventHandler.c **** #endif /* CYBLE_PASS_SERVER */
 366:.\Generated_Source\PSoC4/BLE_eventHandler.c **** #ifdef CYBLE_RSCS_SERVER
 367:.\Generated_Source\PSoC4/BLE_eventHandler.c ****     if(((cyBle_eventHandlerFlag & CYBLE_CALLBACK) != 0u) && (gattErr == CYBLE_GATT_ERR_NONE))
 368:.\Generated_Source\PSoC4/BLE_eventHandler.c ****     {
 369:.\Generated_Source\PSoC4/BLE_eventHandler.c ****         gattErr = CyBle_RscssWriteEventHandler(eventParam);
 370:.\Generated_Source\PSoC4/BLE_eventHandler.c ****     }
 371:.\Generated_Source\PSoC4/BLE_eventHandler.c **** #endif /* CYBLE_RSCS_SERVER */
 372:.\Generated_Source\PSoC4/BLE_eventHandler.c **** #ifdef CYBLE_SCPS_SERVER
 373:.\Generated_Source\PSoC4/BLE_eventHandler.c ****     if(((cyBle_eventHandlerFlag & CYBLE_CALLBACK) != 0u) && (gattErr == CYBLE_GATT_ERR_NONE))
 374:.\Generated_Source\PSoC4/BLE_eventHandler.c ****     {
 375:.\Generated_Source\PSoC4/BLE_eventHandler.c ****         gattErr = CyBle_ScpssWriteEventHandler(eventParam);
 376:.\Generated_Source\PSoC4/BLE_eventHandler.c ****     }
 377:.\Generated_Source\PSoC4/BLE_eventHandler.c **** #endif /* CYBLE_SCPS_SERVER */
 378:.\Generated_Source\PSoC4/BLE_eventHandler.c **** #ifdef CYBLE_TPS_SERVER
 379:.\Generated_Source\PSoC4/BLE_eventHandler.c ****     if(((cyBle_eventHandlerFlag & CYBLE_CALLBACK) != 0u) && (gattErr == CYBLE_GATT_ERR_NONE))
 380:.\Generated_Source\PSoC4/BLE_eventHandler.c ****     {
 381:.\Generated_Source\PSoC4/BLE_eventHandler.c ****         gattErr = CyBle_TpssWriteEventHandler(eventParam);
 382:.\Generated_Source\PSoC4/BLE_eventHandler.c ****     }
 383:.\Generated_Source\PSoC4/BLE_eventHandler.c **** #endif /* CYBLE_TPS_SERVER */
 384:.\Generated_Source\PSoC4/BLE_eventHandler.c **** #ifdef CYBLE_UDS_SERVER
ARM GAS  C:\Users\ADMINI~1\AppData\Local\Temp\ccs1OUCB.s 			page 9


 385:.\Generated_Source\PSoC4/BLE_eventHandler.c ****     if(((cyBle_eventHandlerFlag & CYBLE_CALLBACK) != 0u) && (gattErr == CYBLE_GATT_ERR_NONE))
 386:.\Generated_Source\PSoC4/BLE_eventHandler.c ****     {
 387:.\Generated_Source\PSoC4/BLE_eventHandler.c ****         gattErr = CyBle_UdssWriteEventHandler(eventParam);
 388:.\Generated_Source\PSoC4/BLE_eventHandler.c ****     }
 389:.\Generated_Source\PSoC4/BLE_eventHandler.c **** #endif /* CYBLE_UDS_SERVER */
 390:.\Generated_Source\PSoC4/BLE_eventHandler.c **** #ifdef CYBLE_WPTS_SERVER
 391:.\Generated_Source\PSoC4/BLE_eventHandler.c ****     if(((cyBle_eventHandlerFlag & CYBLE_CALLBACK) != 0u) && (gattErr == CYBLE_GATT_ERR_NONE))
 392:.\Generated_Source\PSoC4/BLE_eventHandler.c ****     {
 393:.\Generated_Source\PSoC4/BLE_eventHandler.c ****         gattErr = CyBle_WptssWriteEventHandler(eventParam);
 394:.\Generated_Source\PSoC4/BLE_eventHandler.c ****     }
 395:.\Generated_Source\PSoC4/BLE_eventHandler.c **** #endif /* CYBLE_WPTS_SERVER */
 396:.\Generated_Source\PSoC4/BLE_eventHandler.c **** #ifdef CYBLE_WSS_SERVER
 397:.\Generated_Source\PSoC4/BLE_eventHandler.c ****     if(((cyBle_eventHandlerFlag & CYBLE_CALLBACK) != 0u) && (gattErr == CYBLE_GATT_ERR_NONE))
 398:.\Generated_Source\PSoC4/BLE_eventHandler.c ****     {
 399:.\Generated_Source\PSoC4/BLE_eventHandler.c ****         gattErr = CyBle_WsssWriteEventHandler(eventParam);
 400:.\Generated_Source\PSoC4/BLE_eventHandler.c ****     }
 401:.\Generated_Source\PSoC4/BLE_eventHandler.c **** #endif /* CYBLE_WSS_SERVER */
 402:.\Generated_Source\PSoC4/BLE_eventHandler.c **** 
 403:.\Generated_Source\PSoC4/BLE_eventHandler.c ****     /* Send response when event was handled by service */
 404:.\Generated_Source\PSoC4/BLE_eventHandler.c ****     if((cyBle_eventHandlerFlag & CYBLE_CALLBACK) == 0u)
  73              		.loc 1 404 0
  74 0018 144B     		ldr	r3, .L4
  75 001a 1B78     		ldrb	r3, [r3]
  76 001c DBB2     		uxtb	r3, r3
  77 001e 1A1C     		mov	r2, r3
  78 0020 0123     		mov	r3, #1
  79 0022 1340     		and	r3, r2
  80 0024 1FD1     		bne	.L1
 405:.\Generated_Source\PSoC4/BLE_eventHandler.c ****     {
 406:.\Generated_Source\PSoC4/BLE_eventHandler.c ****         if(gattErr != CYBLE_GATT_ERR_NONE)
  81              		.loc 1 406 0
  82 0026 0F23     		mov	r3, #15
  83 0028 FB18     		add	r3, r7, r3
  84 002a 1B78     		ldrb	r3, [r3]
  85 002c 002B     		cmp	r3, #0
  86 002e 16D0     		beq	.L3
  87              	.LBB2:
 407:.\Generated_Source\PSoC4/BLE_eventHandler.c ****         {
 408:.\Generated_Source\PSoC4/BLE_eventHandler.c ****             CYBLE_GATTS_ERR_PARAM_T err_param;
 409:.\Generated_Source\PSoC4/BLE_eventHandler.c ****             
 410:.\Generated_Source\PSoC4/BLE_eventHandler.c ****             err_param.opcode = (uint8) CYBLE_GATT_WRITE_REQ;
  88              		.loc 1 410 0
  89 0030 0823     		mov	r3, #8
  90 0032 FB18     		add	r3, r7, r3
  91 0034 1222     		mov	r2, #18
  92 0036 9A70     		strb	r2, [r3, #2]
 411:.\Generated_Source\PSoC4/BLE_eventHandler.c ****             err_param.attrHandle = eventParam->handleValPair.attrHandle;
  93              		.loc 1 411 0
  94 0038 7B68     		ldr	r3, [r7, #4]
  95 003a 9A89     		ldrh	r2, [r3, #12]
  96 003c 0823     		mov	r3, #8
  97 003e FB18     		add	r3, r7, r3
  98 0040 1A80     		strh	r2, [r3]
 412:.\Generated_Source\PSoC4/BLE_eventHandler.c ****             err_param.errorCode = gattErr;
  99              		.loc 1 412 0
 100 0042 0823     		mov	r3, #8
 101 0044 FB18     		add	r3, r7, r3
ARM GAS  C:\Users\ADMINI~1\AppData\Local\Temp\ccs1OUCB.s 			page 10


 102 0046 0F22     		mov	r2, #15
 103 0048 BA18     		add	r2, r7, r2
 104 004a 1278     		ldrb	r2, [r2]
 105 004c DA70     		strb	r2, [r3, #3]
 413:.\Generated_Source\PSoC4/BLE_eventHandler.c **** 
 414:.\Generated_Source\PSoC4/BLE_eventHandler.c ****             /* Send Error Response */
 415:.\Generated_Source\PSoC4/BLE_eventHandler.c ****             (void)CyBle_GattsErrorRsp(eventParam->connHandle, &err_param);
 106              		.loc 1 415 0
 107 004e 7B68     		ldr	r3, [r7, #4]
 108 0050 0822     		mov	r2, #8
 109 0052 BA18     		add	r2, r7, r2
 110 0054 1868     		ldr	r0, [r3]
 111 0056 111C     		mov	r1, r2
 112 0058 FFF7FEFF 		bl	CyBle_GattsErrorRsp
 113              	.LBE2:
 114 005c 03E0     		b	.L1
 115              	.L3:
 416:.\Generated_Source\PSoC4/BLE_eventHandler.c ****         }
 417:.\Generated_Source\PSoC4/BLE_eventHandler.c ****         else
 418:.\Generated_Source\PSoC4/BLE_eventHandler.c ****         {
 419:.\Generated_Source\PSoC4/BLE_eventHandler.c ****             (void)CyBle_GattsWriteRsp(eventParam->connHandle);
 116              		.loc 1 419 0
 117 005e 7B68     		ldr	r3, [r7, #4]
 118 0060 1868     		ldr	r0, [r3]
 119 0062 FFF7FEFF 		bl	CyBle_GattsWriteRsp
 120              	.L1:
 420:.\Generated_Source\PSoC4/BLE_eventHandler.c ****         }
 421:.\Generated_Source\PSoC4/BLE_eventHandler.c ****     }
 422:.\Generated_Source\PSoC4/BLE_eventHandler.c **** }
 121              		.loc 1 422 0
 122 0066 BD46     		mov	sp, r7
 123 0068 05B0     		add	sp, sp, #20
 124              		@ sp needed
 125 006a 90BD     		pop	{r4, r7, pc}
 126              	.L5:
 127              		.align	2
 128              	.L4:
 129 006c 00000000 		.word	cyBle_eventHandlerFlag
 130              		.cfi_endproc
 131              	.LFE2:
 132              		.size	CyBle_WriteReqHandler, .-CyBle_WriteReqHandler
 133              		.section	.text.CyBle_ValueConfirmation,"ax",%progbits
 134              		.align	2
 135              		.code	16
 136              		.thumb_func
 137              		.type	CyBle_ValueConfirmation, %function
 138              	CyBle_ValueConfirmation:
 139              	.LFB3:
 423:.\Generated_Source\PSoC4/BLE_eventHandler.c **** 
 424:.\Generated_Source\PSoC4/BLE_eventHandler.c **** 
 425:.\Generated_Source\PSoC4/BLE_eventHandler.c **** /****************************************************************************** 
 426:.\Generated_Source\PSoC4/BLE_eventHandler.c **** * Function Name: CyBle_ValueConfirmation
 427:.\Generated_Source\PSoC4/BLE_eventHandler.c **** ***************************************************************************//**
 428:.\Generated_Source\PSoC4/BLE_eventHandler.c **** * 
 429:.\Generated_Source\PSoC4/BLE_eventHandler.c **** *  Handles the Value Confirmation request event from the BLE stack.
 430:.\Generated_Source\PSoC4/BLE_eventHandler.c **** * 
 431:.\Generated_Source\PSoC4/BLE_eventHandler.c **** *  \param eventParam: Pointer to a structure of type 'CYBLE_CONN_HANDLE_T'
ARM GAS  C:\Users\ADMINI~1\AppData\Local\Temp\ccs1OUCB.s 			page 11


 432:.\Generated_Source\PSoC4/BLE_eventHandler.c **** * 
 433:.\Generated_Source\PSoC4/BLE_eventHandler.c **** * \return
 434:.\Generated_Source\PSoC4/BLE_eventHandler.c **** *  None
 435:.\Generated_Source\PSoC4/BLE_eventHandler.c **** * 
 436:.\Generated_Source\PSoC4/BLE_eventHandler.c **** ******************************************************************************/
 437:.\Generated_Source\PSoC4/BLE_eventHandler.c **** static void CyBle_ValueConfirmation(const CYBLE_CONN_HANDLE_T *eventParam)
 438:.\Generated_Source\PSoC4/BLE_eventHandler.c **** {
 140              		.loc 1 438 0
 141              		.cfi_startproc
 142 0000 80B5     		push	{r7, lr}
 143              		.cfi_def_cfa_offset 8
 144              		.cfi_offset 7, -8
 145              		.cfi_offset 14, -4
 146 0002 82B0     		sub	sp, sp, #8
 147              		.cfi_def_cfa_offset 16
 148 0004 00AF     		add	r7, sp, #0
 149              		.cfi_def_cfa_register 7
 150 0006 7860     		str	r0, [r7, #4]
 439:.\Generated_Source\PSoC4/BLE_eventHandler.c ****     if(eventParam != NULL)
 440:.\Generated_Source\PSoC4/BLE_eventHandler.c ****     {
 441:.\Generated_Source\PSoC4/BLE_eventHandler.c ****     #ifdef CYBLE_BCS_SERVER
 442:.\Generated_Source\PSoC4/BLE_eventHandler.c ****         CyBle_BcssConfirmationEventHandler(eventParam);
 443:.\Generated_Source\PSoC4/BLE_eventHandler.c ****     #endif /* CYBLE_BCS_SERVER */
 444:.\Generated_Source\PSoC4/BLE_eventHandler.c ****     #ifdef CYBLE_BLS_SERVER
 445:.\Generated_Source\PSoC4/BLE_eventHandler.c ****         if((cyBle_eventHandlerFlag & CYBLE_CALLBACK) != 0u)
 446:.\Generated_Source\PSoC4/BLE_eventHandler.c ****         {
 447:.\Generated_Source\PSoC4/BLE_eventHandler.c ****             CyBle_BlssConfirmationEventHandler(eventParam);
 448:.\Generated_Source\PSoC4/BLE_eventHandler.c ****         }
 449:.\Generated_Source\PSoC4/BLE_eventHandler.c ****     #endif /* CYBLE_BLS_SERVER */
 450:.\Generated_Source\PSoC4/BLE_eventHandler.c ****     
 451:.\Generated_Source\PSoC4/BLE_eventHandler.c ****     #ifdef CYBLE_CGMS_SERVER
 452:.\Generated_Source\PSoC4/BLE_eventHandler.c ****         if((cyBle_eventHandlerFlag & CYBLE_CALLBACK) != 0u)
 453:.\Generated_Source\PSoC4/BLE_eventHandler.c ****         {
 454:.\Generated_Source\PSoC4/BLE_eventHandler.c ****             CyBle_CgmssConfirmationEventHandler(eventParam);
 455:.\Generated_Source\PSoC4/BLE_eventHandler.c ****         }
 456:.\Generated_Source\PSoC4/BLE_eventHandler.c ****     #endif /* CYBLE_CGMS_SERVER */
 457:.\Generated_Source\PSoC4/BLE_eventHandler.c ****     
 458:.\Generated_Source\PSoC4/BLE_eventHandler.c ****     #ifdef CYBLE_CPS_SERVER
 459:.\Generated_Source\PSoC4/BLE_eventHandler.c ****         if((cyBle_eventHandlerFlag & CYBLE_CALLBACK) != 0u)
 460:.\Generated_Source\PSoC4/BLE_eventHandler.c ****         {
 461:.\Generated_Source\PSoC4/BLE_eventHandler.c ****             CyBle_CpssConfirmationEventHandler(eventParam);
 462:.\Generated_Source\PSoC4/BLE_eventHandler.c ****         }
 463:.\Generated_Source\PSoC4/BLE_eventHandler.c ****     #endif /* CYBLE_CPS_SERVER */
 464:.\Generated_Source\PSoC4/BLE_eventHandler.c ****     
 465:.\Generated_Source\PSoC4/BLE_eventHandler.c ****     #ifdef CYBLE_CSCS_SERVER
 466:.\Generated_Source\PSoC4/BLE_eventHandler.c ****         if((cyBle_eventHandlerFlag & CYBLE_CALLBACK) != 0u)
 467:.\Generated_Source\PSoC4/BLE_eventHandler.c ****         {
 468:.\Generated_Source\PSoC4/BLE_eventHandler.c ****             CyBle_CscssConfirmationEventHandler(eventParam);
 469:.\Generated_Source\PSoC4/BLE_eventHandler.c ****         }
 470:.\Generated_Source\PSoC4/BLE_eventHandler.c ****     #endif /* CYBLE_CSCS_SERVER */
 471:.\Generated_Source\PSoC4/BLE_eventHandler.c ****     
 472:.\Generated_Source\PSoC4/BLE_eventHandler.c ****     #ifdef CYBLE_ESS_SERVER
 473:.\Generated_Source\PSoC4/BLE_eventHandler.c ****         if((cyBle_eventHandlerFlag & CYBLE_CALLBACK) != 0u)
 474:.\Generated_Source\PSoC4/BLE_eventHandler.c ****         {
 475:.\Generated_Source\PSoC4/BLE_eventHandler.c ****             CyBle_EsssConfirmationEventHandler(eventParam);
 476:.\Generated_Source\PSoC4/BLE_eventHandler.c ****         }
 477:.\Generated_Source\PSoC4/BLE_eventHandler.c ****     #endif /* CYBLE_ESS_SERVER */
ARM GAS  C:\Users\ADMINI~1\AppData\Local\Temp\ccs1OUCB.s 			page 12


 478:.\Generated_Source\PSoC4/BLE_eventHandler.c ****     
 479:.\Generated_Source\PSoC4/BLE_eventHandler.c ****     #ifdef CYBLE_GLS_SERVER
 480:.\Generated_Source\PSoC4/BLE_eventHandler.c ****         if((cyBle_eventHandlerFlag & CYBLE_CALLBACK) != 0u)
 481:.\Generated_Source\PSoC4/BLE_eventHandler.c ****         {
 482:.\Generated_Source\PSoC4/BLE_eventHandler.c ****             CyBle_GlssConfirmationEventHandler(eventParam);
 483:.\Generated_Source\PSoC4/BLE_eventHandler.c ****         }
 484:.\Generated_Source\PSoC4/BLE_eventHandler.c ****     #endif /* CYBLE_GLS_SERVER */
 485:.\Generated_Source\PSoC4/BLE_eventHandler.c ****     
 486:.\Generated_Source\PSoC4/BLE_eventHandler.c ****     #ifdef CYBLE_HTS_SERVER
 487:.\Generated_Source\PSoC4/BLE_eventHandler.c ****         if((cyBle_eventHandlerFlag & CYBLE_CALLBACK) != 0u)
 488:.\Generated_Source\PSoC4/BLE_eventHandler.c ****         {
 489:.\Generated_Source\PSoC4/BLE_eventHandler.c ****             CyBle_HtssConfirmationEventHandler(eventParam);
 490:.\Generated_Source\PSoC4/BLE_eventHandler.c ****         }
 491:.\Generated_Source\PSoC4/BLE_eventHandler.c ****     #endif /* CYBLE_HTS_SERVER */
 492:.\Generated_Source\PSoC4/BLE_eventHandler.c **** 
 493:.\Generated_Source\PSoC4/BLE_eventHandler.c ****     #ifdef CYBLE_LNS_SERVER
 494:.\Generated_Source\PSoC4/BLE_eventHandler.c ****         if((cyBle_eventHandlerFlag & CYBLE_CALLBACK) != 0u)
 495:.\Generated_Source\PSoC4/BLE_eventHandler.c ****         {
 496:.\Generated_Source\PSoC4/BLE_eventHandler.c ****             CyBle_LnssConfirmationEventHandler(eventParam);
 497:.\Generated_Source\PSoC4/BLE_eventHandler.c ****         }
 498:.\Generated_Source\PSoC4/BLE_eventHandler.c ****     #endif /* CYBLE_LNS_SERVER */
 499:.\Generated_Source\PSoC4/BLE_eventHandler.c ****     
 500:.\Generated_Source\PSoC4/BLE_eventHandler.c ****     #ifdef CYBLE_RSCS_SERVER
 501:.\Generated_Source\PSoC4/BLE_eventHandler.c ****         if((cyBle_eventHandlerFlag & CYBLE_CALLBACK) != 0u)
 502:.\Generated_Source\PSoC4/BLE_eventHandler.c ****         {
 503:.\Generated_Source\PSoC4/BLE_eventHandler.c ****             CyBle_RscssConfirmationEventHandler(eventParam);
 504:.\Generated_Source\PSoC4/BLE_eventHandler.c ****         }
 505:.\Generated_Source\PSoC4/BLE_eventHandler.c ****     #endif /* CYBLE_RSCS_SERVER */
 506:.\Generated_Source\PSoC4/BLE_eventHandler.c ****     
 507:.\Generated_Source\PSoC4/BLE_eventHandler.c ****     #ifdef CYBLE_UDS_SERVER
 508:.\Generated_Source\PSoC4/BLE_eventHandler.c ****         if((cyBle_eventHandlerFlag & CYBLE_CALLBACK) != 0u)
 509:.\Generated_Source\PSoC4/BLE_eventHandler.c ****         {
 510:.\Generated_Source\PSoC4/BLE_eventHandler.c ****             CyBle_UdssConfirmationEventHandler(eventParam);
 511:.\Generated_Source\PSoC4/BLE_eventHandler.c ****         }
 512:.\Generated_Source\PSoC4/BLE_eventHandler.c ****     #endif /* CYBLE_UDS_SERVER */
 513:.\Generated_Source\PSoC4/BLE_eventHandler.c ****     
 514:.\Generated_Source\PSoC4/BLE_eventHandler.c ****     #ifdef CYBLE_WPTS_SERVER
 515:.\Generated_Source\PSoC4/BLE_eventHandler.c ****         if((cyBle_eventHandlerFlag & CYBLE_CALLBACK) != 0u)
 516:.\Generated_Source\PSoC4/BLE_eventHandler.c ****         {
 517:.\Generated_Source\PSoC4/BLE_eventHandler.c ****             CyBle_WptssConfirmationEventHandler(eventParam);
 518:.\Generated_Source\PSoC4/BLE_eventHandler.c ****         }
 519:.\Generated_Source\PSoC4/BLE_eventHandler.c ****     #endif /* CYBLE_WPTS_SERVER */
 520:.\Generated_Source\PSoC4/BLE_eventHandler.c ****     
 521:.\Generated_Source\PSoC4/BLE_eventHandler.c ****     #ifdef CYBLE_WSS_SERVER
 522:.\Generated_Source\PSoC4/BLE_eventHandler.c ****         if((cyBle_eventHandlerFlag & CYBLE_CALLBACK) != 0u)
 523:.\Generated_Source\PSoC4/BLE_eventHandler.c ****         {
 524:.\Generated_Source\PSoC4/BLE_eventHandler.c ****             CyBle_WsssConfirmationEventHandler(eventParam);
 525:.\Generated_Source\PSoC4/BLE_eventHandler.c ****         }
 526:.\Generated_Source\PSoC4/BLE_eventHandler.c ****     #endif /* CYBLE_WSS_SERVER */
 527:.\Generated_Source\PSoC4/BLE_eventHandler.c ****     }
 528:.\Generated_Source\PSoC4/BLE_eventHandler.c **** }
 151              		.loc 1 528 0
 152 0008 BD46     		mov	sp, r7
 153 000a 02B0     		add	sp, sp, #8
 154              		@ sp needed
 155 000c 80BD     		pop	{r7, pc}
 156              		.cfi_endproc
ARM GAS  C:\Users\ADMINI~1\AppData\Local\Temp\ccs1OUCB.s 			page 13


 157              	.LFE3:
 158              		.size	CyBle_ValueConfirmation, .-CyBle_ValueConfirmation
 159              		.section	.text.CyBle_GattcWriteResponseEventHandler,"ax",%progbits
 160              		.align	2
 161              		.code	16
 162              		.thumb_func
 163              		.type	CyBle_GattcWriteResponseEventHandler, %function
 164              	CyBle_GattcWriteResponseEventHandler:
 165              	.LFB4:
 529:.\Generated_Source\PSoC4/BLE_eventHandler.c **** 
 530:.\Generated_Source\PSoC4/BLE_eventHandler.c **** #endif /* CYBLE_GATT_ROLE_SERVER */
 531:.\Generated_Source\PSoC4/BLE_eventHandler.c **** 
 532:.\Generated_Source\PSoC4/BLE_eventHandler.c **** 
 533:.\Generated_Source\PSoC4/BLE_eventHandler.c **** #if (CYBLE_GATT_ROLE_CLIENT)
 534:.\Generated_Source\PSoC4/BLE_eventHandler.c **** 
 535:.\Generated_Source\PSoC4/BLE_eventHandler.c **** /****************************************************************************** 
 536:.\Generated_Source\PSoC4/BLE_eventHandler.c **** * Function Name: CyBle_GattcWriteResponseEventHandler
 537:.\Generated_Source\PSoC4/BLE_eventHandler.c **** ***************************************************************************//**
 538:.\Generated_Source\PSoC4/BLE_eventHandler.c **** * 
 539:.\Generated_Source\PSoC4/BLE_eventHandler.c **** *  Handles the Write response event from the BLE stack.
 540:.\Generated_Source\PSoC4/BLE_eventHandler.c **** * 
 541:.\Generated_Source\PSoC4/BLE_eventHandler.c **** *  \param eventParam: Pointer to a structure of type 'CYBLE_CONN_HANDLE_T'
 542:.\Generated_Source\PSoC4/BLE_eventHandler.c **** * 
 543:.\Generated_Source\PSoC4/BLE_eventHandler.c **** * \return
 544:.\Generated_Source\PSoC4/BLE_eventHandler.c **** *  None
 545:.\Generated_Source\PSoC4/BLE_eventHandler.c **** * 
 546:.\Generated_Source\PSoC4/BLE_eventHandler.c **** ******************************************************************************/
 547:.\Generated_Source\PSoC4/BLE_eventHandler.c **** static void CyBle_GattcWriteResponseEventHandler(const CYBLE_CONN_HANDLE_T *eventParam)
 548:.\Generated_Source\PSoC4/BLE_eventHandler.c **** {
 166              		.loc 1 548 0
 167              		.cfi_startproc
 168 0000 80B5     		push	{r7, lr}
 169              		.cfi_def_cfa_offset 8
 170              		.cfi_offset 7, -8
 171              		.cfi_offset 14, -4
 172 0002 82B0     		sub	sp, sp, #8
 173              		.cfi_def_cfa_offset 16
 174 0004 00AF     		add	r7, sp, #0
 175              		.cfi_def_cfa_register 7
 176 0006 7860     		str	r0, [r7, #4]
 549:.\Generated_Source\PSoC4/BLE_eventHandler.c **** #ifdef CYBLE_ANCS_CLIENT
 550:.\Generated_Source\PSoC4/BLE_eventHandler.c ****     CyBle_AncscWriteResponseEventHandler(eventParam);
 551:.\Generated_Source\PSoC4/BLE_eventHandler.c **** #endif /* CYBLE_ANCS_CLIENT */
 552:.\Generated_Source\PSoC4/BLE_eventHandler.c **** 
 553:.\Generated_Source\PSoC4/BLE_eventHandler.c **** #ifdef CYBLE_ANS_CLIENT
 554:.\Generated_Source\PSoC4/BLE_eventHandler.c ****     if((cyBle_eventHandlerFlag & CYBLE_CALLBACK) != 0u)
 555:.\Generated_Source\PSoC4/BLE_eventHandler.c ****     {
 556:.\Generated_Source\PSoC4/BLE_eventHandler.c ****         CyBle_AnscWriteResponseEventHandler(eventParam);
 557:.\Generated_Source\PSoC4/BLE_eventHandler.c ****     }
 558:.\Generated_Source\PSoC4/BLE_eventHandler.c **** #endif /* CYBLE_ANS_CLIENT */
 559:.\Generated_Source\PSoC4/BLE_eventHandler.c **** 
 560:.\Generated_Source\PSoC4/BLE_eventHandler.c **** #ifdef CYBLE_BAS_CLIENT
 561:.\Generated_Source\PSoC4/BLE_eventHandler.c ****     if((cyBle_eventHandlerFlag & CYBLE_CALLBACK) != 0u)
 562:.\Generated_Source\PSoC4/BLE_eventHandler.c ****     {
 563:.\Generated_Source\PSoC4/BLE_eventHandler.c ****         CyBle_BascWriteResponseEventHandler(eventParam);
 564:.\Generated_Source\PSoC4/BLE_eventHandler.c ****     }
 565:.\Generated_Source\PSoC4/BLE_eventHandler.c **** #endif /* CYBLE_BAS_CLIENT */
ARM GAS  C:\Users\ADMINI~1\AppData\Local\Temp\ccs1OUCB.s 			page 14


 566:.\Generated_Source\PSoC4/BLE_eventHandler.c **** 
 567:.\Generated_Source\PSoC4/BLE_eventHandler.c **** #ifdef CYBLE_BCS_CLIENT
 568:.\Generated_Source\PSoC4/BLE_eventHandler.c ****     if((cyBle_eventHandlerFlag & CYBLE_CALLBACK) != 0u)
 569:.\Generated_Source\PSoC4/BLE_eventHandler.c ****     {
 570:.\Generated_Source\PSoC4/BLE_eventHandler.c ****         CyBle_BcscWriteResponseEventHandler(eventParam);
 571:.\Generated_Source\PSoC4/BLE_eventHandler.c ****     }
 572:.\Generated_Source\PSoC4/BLE_eventHandler.c **** #endif /* CYBLE_BCS_CLIENT */
 573:.\Generated_Source\PSoC4/BLE_eventHandler.c **** 
 574:.\Generated_Source\PSoC4/BLE_eventHandler.c **** #ifdef CYBLE_BLS_CLIENT
 575:.\Generated_Source\PSoC4/BLE_eventHandler.c ****     if((cyBle_eventHandlerFlag & CYBLE_CALLBACK) != 0u)
 576:.\Generated_Source\PSoC4/BLE_eventHandler.c ****     {
 577:.\Generated_Source\PSoC4/BLE_eventHandler.c ****         CyBle_BlscWriteResponseEventHandler(eventParam);
 578:.\Generated_Source\PSoC4/BLE_eventHandler.c ****     }
 579:.\Generated_Source\PSoC4/BLE_eventHandler.c **** #endif /* CYBLE_BLS_CLIENT */
 580:.\Generated_Source\PSoC4/BLE_eventHandler.c **** 
 581:.\Generated_Source\PSoC4/BLE_eventHandler.c **** #ifdef CYBLE_BMS_CLIENT
 582:.\Generated_Source\PSoC4/BLE_eventHandler.c ****     if((cyBle_eventHandlerFlag & CYBLE_CALLBACK) != 0u)
 583:.\Generated_Source\PSoC4/BLE_eventHandler.c ****     {
 584:.\Generated_Source\PSoC4/BLE_eventHandler.c ****         CyBle_BmscWriteResponseEventHandler(eventParam);
 585:.\Generated_Source\PSoC4/BLE_eventHandler.c ****     }
 586:.\Generated_Source\PSoC4/BLE_eventHandler.c **** #endif /* CYBLE_BMS_CLIENT */
 587:.\Generated_Source\PSoC4/BLE_eventHandler.c **** 
 588:.\Generated_Source\PSoC4/BLE_eventHandler.c **** #ifdef CYBLE_CGMS_CLIENT
 589:.\Generated_Source\PSoC4/BLE_eventHandler.c ****     if((cyBle_eventHandlerFlag & CYBLE_CALLBACK) != 0u)
 590:.\Generated_Source\PSoC4/BLE_eventHandler.c ****     {
 591:.\Generated_Source\PSoC4/BLE_eventHandler.c ****         CyBle_CgmscWriteResponseEventHandler(eventParam);
 592:.\Generated_Source\PSoC4/BLE_eventHandler.c ****     }
 593:.\Generated_Source\PSoC4/BLE_eventHandler.c **** #endif /* CYBLE_CGMS_CLIENT */
 594:.\Generated_Source\PSoC4/BLE_eventHandler.c **** 
 595:.\Generated_Source\PSoC4/BLE_eventHandler.c **** #ifdef CYBLE_CPS_CLIENT
 596:.\Generated_Source\PSoC4/BLE_eventHandler.c ****     if((cyBle_eventHandlerFlag & CYBLE_CALLBACK) != 0u)
 597:.\Generated_Source\PSoC4/BLE_eventHandler.c ****     {
 598:.\Generated_Source\PSoC4/BLE_eventHandler.c ****         CyBle_CpscWriteResponseEventHandler(eventParam);
 599:.\Generated_Source\PSoC4/BLE_eventHandler.c ****     }
 600:.\Generated_Source\PSoC4/BLE_eventHandler.c **** #endif /* CYBLE_CPS_CLIENT */
 601:.\Generated_Source\PSoC4/BLE_eventHandler.c **** 
 602:.\Generated_Source\PSoC4/BLE_eventHandler.c **** #ifdef CYBLE_CSCS_CLIENT
 603:.\Generated_Source\PSoC4/BLE_eventHandler.c ****     if((cyBle_eventHandlerFlag & CYBLE_CALLBACK) != 0u)
 604:.\Generated_Source\PSoC4/BLE_eventHandler.c ****     {
 605:.\Generated_Source\PSoC4/BLE_eventHandler.c ****         CyBle_CscscWriteResponseEventHandler(eventParam);
 606:.\Generated_Source\PSoC4/BLE_eventHandler.c ****     }
 607:.\Generated_Source\PSoC4/BLE_eventHandler.c **** #endif /* CYBLE_CSCS_CLIENT */
 608:.\Generated_Source\PSoC4/BLE_eventHandler.c **** 
 609:.\Generated_Source\PSoC4/BLE_eventHandler.c **** #ifdef CYBLE_CTS_CLIENT
 610:.\Generated_Source\PSoC4/BLE_eventHandler.c ****     if((cyBle_eventHandlerFlag & CYBLE_CALLBACK) != 0u)
 611:.\Generated_Source\PSoC4/BLE_eventHandler.c ****     {
 612:.\Generated_Source\PSoC4/BLE_eventHandler.c ****         CyBle_CtscWriteResponseEventHandler(eventParam);
 613:.\Generated_Source\PSoC4/BLE_eventHandler.c ****     }
 614:.\Generated_Source\PSoC4/BLE_eventHandler.c **** #endif /* CYBLE_CTS_CLIENT */
 615:.\Generated_Source\PSoC4/BLE_eventHandler.c **** 
 616:.\Generated_Source\PSoC4/BLE_eventHandler.c **** #ifdef CYBLE_ESS_CLIENT
 617:.\Generated_Source\PSoC4/BLE_eventHandler.c ****     if((cyBle_eventHandlerFlag & CYBLE_CALLBACK) != 0u)
 618:.\Generated_Source\PSoC4/BLE_eventHandler.c ****     {
 619:.\Generated_Source\PSoC4/BLE_eventHandler.c ****         CyBle_EsscWriteResponseEventHandler(eventParam);
 620:.\Generated_Source\PSoC4/BLE_eventHandler.c ****     }
 621:.\Generated_Source\PSoC4/BLE_eventHandler.c **** #endif /* CYBLE_ESS_CLIENT */
 622:.\Generated_Source\PSoC4/BLE_eventHandler.c **** 
ARM GAS  C:\Users\ADMINI~1\AppData\Local\Temp\ccs1OUCB.s 			page 15


 623:.\Generated_Source\PSoC4/BLE_eventHandler.c **** #ifdef CYBLE_GLS_CLIENT
 624:.\Generated_Source\PSoC4/BLE_eventHandler.c ****     if((cyBle_eventHandlerFlag & CYBLE_CALLBACK) != 0u)
 625:.\Generated_Source\PSoC4/BLE_eventHandler.c ****     {
 626:.\Generated_Source\PSoC4/BLE_eventHandler.c ****         CyBle_GlscWriteResponseEventHandler(eventParam);
 627:.\Generated_Source\PSoC4/BLE_eventHandler.c ****     }
 628:.\Generated_Source\PSoC4/BLE_eventHandler.c **** #endif /* CYBLE_GLS_CLIENT */
 629:.\Generated_Source\PSoC4/BLE_eventHandler.c **** 
 630:.\Generated_Source\PSoC4/BLE_eventHandler.c **** #ifdef CYBLE_HIDS_CLIENT
 631:.\Generated_Source\PSoC4/BLE_eventHandler.c ****     if((cyBle_eventHandlerFlag & CYBLE_CALLBACK) != 0u)
 632:.\Generated_Source\PSoC4/BLE_eventHandler.c ****     {
 633:.\Generated_Source\PSoC4/BLE_eventHandler.c ****         CyBle_HidscWriteResponseEventHandler(eventParam);
 634:.\Generated_Source\PSoC4/BLE_eventHandler.c ****     }
 635:.\Generated_Source\PSoC4/BLE_eventHandler.c **** #endif /* CYBLE_HIDS_CLIENT */
 636:.\Generated_Source\PSoC4/BLE_eventHandler.c **** 
 637:.\Generated_Source\PSoC4/BLE_eventHandler.c **** #ifdef CYBLE_HPS_CLIENT
 638:.\Generated_Source\PSoC4/BLE_eventHandler.c ****     if((cyBle_eventHandlerFlag & CYBLE_CALLBACK) != 0u)
 639:.\Generated_Source\PSoC4/BLE_eventHandler.c ****     {
 640:.\Generated_Source\PSoC4/BLE_eventHandler.c ****         CyBle_HpscWriteResponseEventHandler(eventParam);
 641:.\Generated_Source\PSoC4/BLE_eventHandler.c ****     }
 642:.\Generated_Source\PSoC4/BLE_eventHandler.c **** #endif /* CYBLE_HPS_CLIENT */
 643:.\Generated_Source\PSoC4/BLE_eventHandler.c **** 
 644:.\Generated_Source\PSoC4/BLE_eventHandler.c **** #ifdef CYBLE_HRS_CLIENT
 645:.\Generated_Source\PSoC4/BLE_eventHandler.c ****     if((cyBle_eventHandlerFlag & CYBLE_CALLBACK) != 0u)
 646:.\Generated_Source\PSoC4/BLE_eventHandler.c ****     {
 647:.\Generated_Source\PSoC4/BLE_eventHandler.c ****         CyBle_HrscWriteResponseEventHandler(eventParam);
 648:.\Generated_Source\PSoC4/BLE_eventHandler.c ****     }
 649:.\Generated_Source\PSoC4/BLE_eventHandler.c **** #endif /* CYBLE_HRS_CLIENT */
 650:.\Generated_Source\PSoC4/BLE_eventHandler.c **** 
 651:.\Generated_Source\PSoC4/BLE_eventHandler.c **** #ifdef CYBLE_HTS_CLIENT
 652:.\Generated_Source\PSoC4/BLE_eventHandler.c ****     if((cyBle_eventHandlerFlag & CYBLE_CALLBACK) != 0u)
 653:.\Generated_Source\PSoC4/BLE_eventHandler.c ****     {
 654:.\Generated_Source\PSoC4/BLE_eventHandler.c ****         CyBle_HtscWriteResponseEventHandler(eventParam);
 655:.\Generated_Source\PSoC4/BLE_eventHandler.c ****     }
 656:.\Generated_Source\PSoC4/BLE_eventHandler.c **** #endif /* CYBLE_HTS_CLIENT */
 657:.\Generated_Source\PSoC4/BLE_eventHandler.c **** 
 658:.\Generated_Source\PSoC4/BLE_eventHandler.c **** #ifdef CYBLE_IPS_CLIENT
 659:.\Generated_Source\PSoC4/BLE_eventHandler.c ****     if((cyBle_eventHandlerFlag & CYBLE_CALLBACK) != 0u)
 660:.\Generated_Source\PSoC4/BLE_eventHandler.c ****     {
 661:.\Generated_Source\PSoC4/BLE_eventHandler.c ****         CyBle_IpscWriteResponseEventHandler(eventParam);
 662:.\Generated_Source\PSoC4/BLE_eventHandler.c ****     }
 663:.\Generated_Source\PSoC4/BLE_eventHandler.c **** #endif /* CYBLE_IPS_CLIENT */
 664:.\Generated_Source\PSoC4/BLE_eventHandler.c **** 
 665:.\Generated_Source\PSoC4/BLE_eventHandler.c **** #ifdef CYBLE_LLS_CLIENT
 666:.\Generated_Source\PSoC4/BLE_eventHandler.c ****     if((cyBle_eventHandlerFlag & CYBLE_CALLBACK) != 0u)
 667:.\Generated_Source\PSoC4/BLE_eventHandler.c ****     {
 668:.\Generated_Source\PSoC4/BLE_eventHandler.c ****         CyBle_LlscWriteResponseEventHandler(eventParam);
 669:.\Generated_Source\PSoC4/BLE_eventHandler.c ****     }
 670:.\Generated_Source\PSoC4/BLE_eventHandler.c **** #endif /* CYBLE_LLS_CLIENT */
 671:.\Generated_Source\PSoC4/BLE_eventHandler.c **** 
 672:.\Generated_Source\PSoC4/BLE_eventHandler.c **** #ifdef CYBLE_LNS_CLIENT
 673:.\Generated_Source\PSoC4/BLE_eventHandler.c ****     if((cyBle_eventHandlerFlag & CYBLE_CALLBACK) != 0u)
 674:.\Generated_Source\PSoC4/BLE_eventHandler.c ****     {
 675:.\Generated_Source\PSoC4/BLE_eventHandler.c ****         CyBle_LnscWriteResponseEventHandler(eventParam);
 676:.\Generated_Source\PSoC4/BLE_eventHandler.c ****     }
 677:.\Generated_Source\PSoC4/BLE_eventHandler.c **** #endif /* CYBLE_LNS_CLIENT */
 678:.\Generated_Source\PSoC4/BLE_eventHandler.c **** 
 679:.\Generated_Source\PSoC4/BLE_eventHandler.c **** #ifdef CYBLE_PASS_CLIENT
ARM GAS  C:\Users\ADMINI~1\AppData\Local\Temp\ccs1OUCB.s 			page 16


 680:.\Generated_Source\PSoC4/BLE_eventHandler.c ****     if((cyBle_eventHandlerFlag & CYBLE_CALLBACK) != 0u)
 681:.\Generated_Source\PSoC4/BLE_eventHandler.c ****     {
 682:.\Generated_Source\PSoC4/BLE_eventHandler.c ****         CyBle_PasscWriteResponseEventHandler(eventParam);
 683:.\Generated_Source\PSoC4/BLE_eventHandler.c ****     }
 684:.\Generated_Source\PSoC4/BLE_eventHandler.c **** #endif /* CYBLE_PASS_CLIENT */
 685:.\Generated_Source\PSoC4/BLE_eventHandler.c **** 
 686:.\Generated_Source\PSoC4/BLE_eventHandler.c **** #ifdef CYBLE_RSCS_CLIENT
 687:.\Generated_Source\PSoC4/BLE_eventHandler.c ****     if((cyBle_eventHandlerFlag & CYBLE_CALLBACK) != 0u)
 688:.\Generated_Source\PSoC4/BLE_eventHandler.c ****     {
 689:.\Generated_Source\PSoC4/BLE_eventHandler.c ****         CyBle_RscscWriteResponseEventHandler(eventParam);
 690:.\Generated_Source\PSoC4/BLE_eventHandler.c ****     }
 691:.\Generated_Source\PSoC4/BLE_eventHandler.c **** #endif /* CYBLE_RSCS_CLIENT */
 692:.\Generated_Source\PSoC4/BLE_eventHandler.c **** 
 693:.\Generated_Source\PSoC4/BLE_eventHandler.c **** #ifdef CYBLE_SCPS_CLIENT
 694:.\Generated_Source\PSoC4/BLE_eventHandler.c ****     if((cyBle_eventHandlerFlag & CYBLE_CALLBACK) != 0u)
 695:.\Generated_Source\PSoC4/BLE_eventHandler.c ****     {
 696:.\Generated_Source\PSoC4/BLE_eventHandler.c ****         CyBle_ScpscWriteResponseEventHandler(eventParam);
 697:.\Generated_Source\PSoC4/BLE_eventHandler.c ****     }
 698:.\Generated_Source\PSoC4/BLE_eventHandler.c **** #endif /* CYBLE_SCPS_CLIENT */
 699:.\Generated_Source\PSoC4/BLE_eventHandler.c **** 
 700:.\Generated_Source\PSoC4/BLE_eventHandler.c **** #ifdef CYBLE_TPS_CLIENT
 701:.\Generated_Source\PSoC4/BLE_eventHandler.c ****     if((cyBle_eventHandlerFlag & CYBLE_CALLBACK) != 0u)
 702:.\Generated_Source\PSoC4/BLE_eventHandler.c ****     {
 703:.\Generated_Source\PSoC4/BLE_eventHandler.c ****         CyBle_TpscWriteResponseEventHandler(eventParam);
 704:.\Generated_Source\PSoC4/BLE_eventHandler.c ****     }
 705:.\Generated_Source\PSoC4/BLE_eventHandler.c **** #endif /* CYBLE_TPS_CLIENT */
 706:.\Generated_Source\PSoC4/BLE_eventHandler.c **** 
 707:.\Generated_Source\PSoC4/BLE_eventHandler.c **** #ifdef CYBLE_UDS_CLIENT
 708:.\Generated_Source\PSoC4/BLE_eventHandler.c ****     if((cyBle_eventHandlerFlag & CYBLE_CALLBACK) != 0u)
 709:.\Generated_Source\PSoC4/BLE_eventHandler.c ****     {
 710:.\Generated_Source\PSoC4/BLE_eventHandler.c ****         CyBle_UdscWriteResponseEventHandler(eventParam);
 711:.\Generated_Source\PSoC4/BLE_eventHandler.c ****     }
 712:.\Generated_Source\PSoC4/BLE_eventHandler.c **** #endif /* CYBLE_UDS_CLIENT */
 713:.\Generated_Source\PSoC4/BLE_eventHandler.c **** #ifdef CYBLE_WPTS_CLIENT
 714:.\Generated_Source\PSoC4/BLE_eventHandler.c ****     if((cyBle_eventHandlerFlag & CYBLE_CALLBACK) != 0u)
 715:.\Generated_Source\PSoC4/BLE_eventHandler.c ****     {
 716:.\Generated_Source\PSoC4/BLE_eventHandler.c ****         CyBle_WptscWriteResponseEventHandler(eventParam);
 717:.\Generated_Source\PSoC4/BLE_eventHandler.c ****     }
 718:.\Generated_Source\PSoC4/BLE_eventHandler.c **** #endif /* CYBLE_WPTS_CLIENT */
 719:.\Generated_Source\PSoC4/BLE_eventHandler.c **** #ifdef CYBLE_WSS_CLIENT
 720:.\Generated_Source\PSoC4/BLE_eventHandler.c ****     if((cyBle_eventHandlerFlag & CYBLE_CALLBACK) != 0u)
 721:.\Generated_Source\PSoC4/BLE_eventHandler.c ****     {
 722:.\Generated_Source\PSoC4/BLE_eventHandler.c ****         CyBle_WsscWriteResponseEventHandler(eventParam);
 723:.\Generated_Source\PSoC4/BLE_eventHandler.c ****     }
 724:.\Generated_Source\PSoC4/BLE_eventHandler.c **** #endif /* CYBLE_WSS_CLIENT */
 725:.\Generated_Source\PSoC4/BLE_eventHandler.c **** }
 177              		.loc 1 725 0
 178 0008 BD46     		mov	sp, r7
 179 000a 02B0     		add	sp, sp, #8
 180              		@ sp needed
 181 000c 80BD     		pop	{r7, pc}
 182              		.cfi_endproc
 183              	.LFE4:
 184              		.size	CyBle_GattcWriteResponseEventHandler, .-CyBle_GattcWriteResponseEventHandler
 185              		.section	.text.CyBle_NotificationEventHandler,"ax",%progbits
 186              		.align	2
 187              		.code	16
ARM GAS  C:\Users\ADMINI~1\AppData\Local\Temp\ccs1OUCB.s 			page 17


 188              		.thumb_func
 189              		.type	CyBle_NotificationEventHandler, %function
 190              	CyBle_NotificationEventHandler:
 191              	.LFB5:
 726:.\Generated_Source\PSoC4/BLE_eventHandler.c **** 
 727:.\Generated_Source\PSoC4/BLE_eventHandler.c **** 
 728:.\Generated_Source\PSoC4/BLE_eventHandler.c **** /******************************************************************************    
 729:.\Generated_Source\PSoC4/BLE_eventHandler.c **** * Function Name: CyBle_NotificationEventHandler
 730:.\Generated_Source\PSoC4/BLE_eventHandler.c **** ***************************************************************************//**
 731:.\Generated_Source\PSoC4/BLE_eventHandler.c **** * 
 732:.\Generated_Source\PSoC4/BLE_eventHandler.c **** *  Handles the Notification event from BLE stack.
 733:.\Generated_Source\PSoC4/BLE_eventHandler.c **** * 
 734:.\Generated_Source\PSoC4/BLE_eventHandler.c **** *  \param eventParam: event parameter
 735:.\Generated_Source\PSoC4/BLE_eventHandler.c **** * 
 736:.\Generated_Source\PSoC4/BLE_eventHandler.c **** * \return
 737:.\Generated_Source\PSoC4/BLE_eventHandler.c **** *  None
 738:.\Generated_Source\PSoC4/BLE_eventHandler.c **** * 
 739:.\Generated_Source\PSoC4/BLE_eventHandler.c **** ******************************************************************************/
 740:.\Generated_Source\PSoC4/BLE_eventHandler.c **** static void CyBle_NotificationEventHandler(CYBLE_GATTC_HANDLE_VALUE_NTF_PARAM_T *eventParam)
 741:.\Generated_Source\PSoC4/BLE_eventHandler.c **** {
 192              		.loc 1 741 0
 193              		.cfi_startproc
 194 0000 80B5     		push	{r7, lr}
 195              		.cfi_def_cfa_offset 8
 196              		.cfi_offset 7, -8
 197              		.cfi_offset 14, -4
 198 0002 82B0     		sub	sp, sp, #8
 199              		.cfi_def_cfa_offset 16
 200 0004 00AF     		add	r7, sp, #0
 201              		.cfi_def_cfa_register 7
 202 0006 7860     		str	r0, [r7, #4]
 742:.\Generated_Source\PSoC4/BLE_eventHandler.c **** #ifdef CYBLE_ANCS_CLIENT
 743:.\Generated_Source\PSoC4/BLE_eventHandler.c ****     CyBle_AncscNotificationEventHandler(eventParam);
 744:.\Generated_Source\PSoC4/BLE_eventHandler.c **** #endif /* CYBLE_ANCS_CLIENT */
 745:.\Generated_Source\PSoC4/BLE_eventHandler.c **** #ifdef CYBLE_ANS_CLIENT
 746:.\Generated_Source\PSoC4/BLE_eventHandler.c ****     if((cyBle_eventHandlerFlag & CYBLE_CALLBACK) != 0u)
 747:.\Generated_Source\PSoC4/BLE_eventHandler.c ****     {
 748:.\Generated_Source\PSoC4/BLE_eventHandler.c ****         CyBle_AnscNotificationEventHandler(eventParam);
 749:.\Generated_Source\PSoC4/BLE_eventHandler.c ****     }
 750:.\Generated_Source\PSoC4/BLE_eventHandler.c **** #endif /* CYBLE_ANS_CLIENT */
 751:.\Generated_Source\PSoC4/BLE_eventHandler.c **** #ifdef CYBLE_BAS_CLIENT
 752:.\Generated_Source\PSoC4/BLE_eventHandler.c ****     if((cyBle_eventHandlerFlag & CYBLE_CALLBACK) != 0u)
 753:.\Generated_Source\PSoC4/BLE_eventHandler.c ****     {
 754:.\Generated_Source\PSoC4/BLE_eventHandler.c ****         CyBle_BascNotificationEventHandler(eventParam);
 755:.\Generated_Source\PSoC4/BLE_eventHandler.c ****     }
 756:.\Generated_Source\PSoC4/BLE_eventHandler.c **** #endif /* CYBLE_BAS_CLIENT */
 757:.\Generated_Source\PSoC4/BLE_eventHandler.c **** #ifdef CYBLE_BLS_CLIENT
 758:.\Generated_Source\PSoC4/BLE_eventHandler.c ****     if((cyBle_eventHandlerFlag & CYBLE_CALLBACK) != 0u)
 759:.\Generated_Source\PSoC4/BLE_eventHandler.c ****     {
 760:.\Generated_Source\PSoC4/BLE_eventHandler.c ****         CyBle_BlscNotificationEventHandler(eventParam);
 761:.\Generated_Source\PSoC4/BLE_eventHandler.c ****     }
 762:.\Generated_Source\PSoC4/BLE_eventHandler.c **** #endif /* CYBLE_BLS_CLIENT */
 763:.\Generated_Source\PSoC4/BLE_eventHandler.c **** #ifdef CYBLE_CGMS_CLIENT
 764:.\Generated_Source\PSoC4/BLE_eventHandler.c ****     if((cyBle_eventHandlerFlag & CYBLE_CALLBACK) != 0u)
 765:.\Generated_Source\PSoC4/BLE_eventHandler.c ****     {
 766:.\Generated_Source\PSoC4/BLE_eventHandler.c ****         CyBle_CgmscNotificationEventHandler(eventParam);
 767:.\Generated_Source\PSoC4/BLE_eventHandler.c ****     }
ARM GAS  C:\Users\ADMINI~1\AppData\Local\Temp\ccs1OUCB.s 			page 18


 768:.\Generated_Source\PSoC4/BLE_eventHandler.c **** #endif /* CYBLE_CGMS_CLIENT */
 769:.\Generated_Source\PSoC4/BLE_eventHandler.c **** #ifdef CYBLE_CPS_CLIENT
 770:.\Generated_Source\PSoC4/BLE_eventHandler.c ****     if((cyBle_eventHandlerFlag & CYBLE_CALLBACK) != 0u)
 771:.\Generated_Source\PSoC4/BLE_eventHandler.c ****     {
 772:.\Generated_Source\PSoC4/BLE_eventHandler.c ****         CyBle_CpscNotificationEventHandler(eventParam);
 773:.\Generated_Source\PSoC4/BLE_eventHandler.c ****     }
 774:.\Generated_Source\PSoC4/BLE_eventHandler.c **** #endif /* CYBLE_CPS_CLIENT */
 775:.\Generated_Source\PSoC4/BLE_eventHandler.c **** #ifdef CYBLE_CSCS_CLIENT
 776:.\Generated_Source\PSoC4/BLE_eventHandler.c ****     if((cyBle_eventHandlerFlag & CYBLE_CALLBACK) != 0u)
 777:.\Generated_Source\PSoC4/BLE_eventHandler.c ****     {
 778:.\Generated_Source\PSoC4/BLE_eventHandler.c ****         CyBle_CscscNotificationEventHandler(eventParam);
 779:.\Generated_Source\PSoC4/BLE_eventHandler.c ****     }
 780:.\Generated_Source\PSoC4/BLE_eventHandler.c **** #endif /* CYBLE_CSCS_CLIENT */
 781:.\Generated_Source\PSoC4/BLE_eventHandler.c **** #ifdef CYBLE_CTS_CLIENT
 782:.\Generated_Source\PSoC4/BLE_eventHandler.c ****     if((cyBle_eventHandlerFlag & CYBLE_CALLBACK) != 0u)
 783:.\Generated_Source\PSoC4/BLE_eventHandler.c ****     {
 784:.\Generated_Source\PSoC4/BLE_eventHandler.c ****         CyBle_CtscNotificationEventHandler(eventParam);
 785:.\Generated_Source\PSoC4/BLE_eventHandler.c ****     }
 786:.\Generated_Source\PSoC4/BLE_eventHandler.c **** #endif /* CYBLE_CTS_CLIENT */
 787:.\Generated_Source\PSoC4/BLE_eventHandler.c **** #ifdef CYBLE_ESS_CLIENT
 788:.\Generated_Source\PSoC4/BLE_eventHandler.c ****     if((cyBle_eventHandlerFlag & CYBLE_CALLBACK) != 0u)
 789:.\Generated_Source\PSoC4/BLE_eventHandler.c ****     {
 790:.\Generated_Source\PSoC4/BLE_eventHandler.c ****         CyBle_EsscNotificationEventHandler(eventParam);
 791:.\Generated_Source\PSoC4/BLE_eventHandler.c ****     }
 792:.\Generated_Source\PSoC4/BLE_eventHandler.c **** #endif /* CYBLE_ESS_CLIENT */
 793:.\Generated_Source\PSoC4/BLE_eventHandler.c **** #ifdef CYBLE_GLS_CLIENT
 794:.\Generated_Source\PSoC4/BLE_eventHandler.c ****     if((cyBle_eventHandlerFlag & CYBLE_CALLBACK) != 0u)
 795:.\Generated_Source\PSoC4/BLE_eventHandler.c ****     {
 796:.\Generated_Source\PSoC4/BLE_eventHandler.c ****         CyBle_GlscNotificationEventHandler(eventParam);
 797:.\Generated_Source\PSoC4/BLE_eventHandler.c ****     }
 798:.\Generated_Source\PSoC4/BLE_eventHandler.c **** #endif /* CYBLE_GLS_CLIENT */
 799:.\Generated_Source\PSoC4/BLE_eventHandler.c **** #ifdef CYBLE_HIDS_CLIENT
 800:.\Generated_Source\PSoC4/BLE_eventHandler.c ****     if((cyBle_eventHandlerFlag & CYBLE_CALLBACK) != 0u)
 801:.\Generated_Source\PSoC4/BLE_eventHandler.c ****     {
 802:.\Generated_Source\PSoC4/BLE_eventHandler.c ****         CyBle_HidscNotificationEventHandler(eventParam);
 803:.\Generated_Source\PSoC4/BLE_eventHandler.c ****     }
 804:.\Generated_Source\PSoC4/BLE_eventHandler.c **** #endif /* CYBLE_HIDS_CLIENT */
 805:.\Generated_Source\PSoC4/BLE_eventHandler.c **** #ifdef CYBLE_HPS_CLIENT
 806:.\Generated_Source\PSoC4/BLE_eventHandler.c ****     if((cyBle_eventHandlerFlag & CYBLE_CALLBACK) != 0u)
 807:.\Generated_Source\PSoC4/BLE_eventHandler.c ****     {
 808:.\Generated_Source\PSoC4/BLE_eventHandler.c ****         CyBle_HpscNotificationEventHandler(eventParam);
 809:.\Generated_Source\PSoC4/BLE_eventHandler.c ****     }
 810:.\Generated_Source\PSoC4/BLE_eventHandler.c **** #endif /* CYBLE_HPS_CLIENT */
 811:.\Generated_Source\PSoC4/BLE_eventHandler.c **** #ifdef CYBLE_HRS_CLIENT
 812:.\Generated_Source\PSoC4/BLE_eventHandler.c ****     if((cyBle_eventHandlerFlag & CYBLE_CALLBACK) != 0u)
 813:.\Generated_Source\PSoC4/BLE_eventHandler.c ****     {
 814:.\Generated_Source\PSoC4/BLE_eventHandler.c ****         CyBle_HrscNotificationEventHandler(eventParam);
 815:.\Generated_Source\PSoC4/BLE_eventHandler.c ****     }
 816:.\Generated_Source\PSoC4/BLE_eventHandler.c **** #endif /* CYBLE_HRS_CLIENT */
 817:.\Generated_Source\PSoC4/BLE_eventHandler.c **** #ifdef CYBLE_HTS_CLIENT
 818:.\Generated_Source\PSoC4/BLE_eventHandler.c ****     if((cyBle_eventHandlerFlag & CYBLE_CALLBACK) != 0u)
 819:.\Generated_Source\PSoC4/BLE_eventHandler.c ****     {
 820:.\Generated_Source\PSoC4/BLE_eventHandler.c ****         CyBle_HtscNotificationEventHandler(eventParam);
 821:.\Generated_Source\PSoC4/BLE_eventHandler.c ****     }
 822:.\Generated_Source\PSoC4/BLE_eventHandler.c **** #endif /* CYBLE_HTS_CLIENT */
 823:.\Generated_Source\PSoC4/BLE_eventHandler.c **** #ifdef CYBLE_LNS_CLIENT
 824:.\Generated_Source\PSoC4/BLE_eventHandler.c ****     if((cyBle_eventHandlerFlag & CYBLE_CALLBACK) != 0u)
ARM GAS  C:\Users\ADMINI~1\AppData\Local\Temp\ccs1OUCB.s 			page 19


 825:.\Generated_Source\PSoC4/BLE_eventHandler.c ****     {
 826:.\Generated_Source\PSoC4/BLE_eventHandler.c ****         CyBle_LnscNotificationEventHandler(eventParam);
 827:.\Generated_Source\PSoC4/BLE_eventHandler.c ****     }
 828:.\Generated_Source\PSoC4/BLE_eventHandler.c **** #endif /* CYBLE_LNS_CLIENT */
 829:.\Generated_Source\PSoC4/BLE_eventHandler.c **** #ifdef CYBLE_PASS_CLIENT
 830:.\Generated_Source\PSoC4/BLE_eventHandler.c ****     if((cyBle_eventHandlerFlag & CYBLE_CALLBACK) != 0u)
 831:.\Generated_Source\PSoC4/BLE_eventHandler.c ****     {
 832:.\Generated_Source\PSoC4/BLE_eventHandler.c ****         CyBle_PasscNotificationEventHandler(eventParam);
 833:.\Generated_Source\PSoC4/BLE_eventHandler.c ****     }
 834:.\Generated_Source\PSoC4/BLE_eventHandler.c **** #endif /* CYBLE_PASS_CLIENT */
 835:.\Generated_Source\PSoC4/BLE_eventHandler.c **** #ifdef CYBLE_RSCS_CLIENT
 836:.\Generated_Source\PSoC4/BLE_eventHandler.c ****     if((cyBle_eventHandlerFlag & CYBLE_CALLBACK) != 0u)
 837:.\Generated_Source\PSoC4/BLE_eventHandler.c ****     {
 838:.\Generated_Source\PSoC4/BLE_eventHandler.c ****         CyBle_RscscNotificationEventHandler(eventParam);
 839:.\Generated_Source\PSoC4/BLE_eventHandler.c ****     }
 840:.\Generated_Source\PSoC4/BLE_eventHandler.c **** #endif /* CYBLE_RSCS_CLIENT */
 841:.\Generated_Source\PSoC4/BLE_eventHandler.c **** #ifdef CYBLE_SCPS_CLIENT
 842:.\Generated_Source\PSoC4/BLE_eventHandler.c ****     if((cyBle_eventHandlerFlag & CYBLE_CALLBACK) != 0u)
 843:.\Generated_Source\PSoC4/BLE_eventHandler.c ****     {
 844:.\Generated_Source\PSoC4/BLE_eventHandler.c ****         CyBle_ScpscNotificationEventHandler(eventParam);
 845:.\Generated_Source\PSoC4/BLE_eventHandler.c ****     }
 846:.\Generated_Source\PSoC4/BLE_eventHandler.c **** #endif /* CYBLE_SCPS_CLIENT */
 847:.\Generated_Source\PSoC4/BLE_eventHandler.c **** #ifdef CYBLE_TPS_CLIENT
 848:.\Generated_Source\PSoC4/BLE_eventHandler.c ****     if((cyBle_eventHandlerFlag & CYBLE_CALLBACK) != 0u)
 849:.\Generated_Source\PSoC4/BLE_eventHandler.c ****     {
 850:.\Generated_Source\PSoC4/BLE_eventHandler.c ****         CyBle_TpscNotificationEventHandler(eventParam);
 851:.\Generated_Source\PSoC4/BLE_eventHandler.c ****     }
 852:.\Generated_Source\PSoC4/BLE_eventHandler.c **** #endif /* CYBLE_TPS_CLIENT */
 853:.\Generated_Source\PSoC4/BLE_eventHandler.c **** #ifdef CYBLE_UDS_CLIENT
 854:.\Generated_Source\PSoC4/BLE_eventHandler.c ****     if((cyBle_eventHandlerFlag & CYBLE_CALLBACK) != 0u)
 855:.\Generated_Source\PSoC4/BLE_eventHandler.c ****     {
 856:.\Generated_Source\PSoC4/BLE_eventHandler.c ****         CyBle_UdscNotificationEventHandler(eventParam);
 857:.\Generated_Source\PSoC4/BLE_eventHandler.c ****     }
 858:.\Generated_Source\PSoC4/BLE_eventHandler.c **** #endif /* CYBLE_UDS_CLIENT */
 859:.\Generated_Source\PSoC4/BLE_eventHandler.c **** #ifdef CYBLE_WPTS_CLIENT
 860:.\Generated_Source\PSoC4/BLE_eventHandler.c ****     if((cyBle_eventHandlerFlag & CYBLE_CALLBACK) != 0u)
 861:.\Generated_Source\PSoC4/BLE_eventHandler.c ****     {
 862:.\Generated_Source\PSoC4/BLE_eventHandler.c ****         CyBle_WptscNotificationEventHandler(eventParam);
 863:.\Generated_Source\PSoC4/BLE_eventHandler.c ****     }
 864:.\Generated_Source\PSoC4/BLE_eventHandler.c **** #endif /* CYBLE_WPTS_CLIENT */
 865:.\Generated_Source\PSoC4/BLE_eventHandler.c **** }
 203              		.loc 1 865 0
 204 0008 BD46     		mov	sp, r7
 205 000a 02B0     		add	sp, sp, #8
 206              		@ sp needed
 207 000c 80BD     		pop	{r7, pc}
 208              		.cfi_endproc
 209              	.LFE5:
 210              		.size	CyBle_NotificationEventHandler, .-CyBle_NotificationEventHandler
 211              		.section	.text.CyBle_IndicationEventHandler,"ax",%progbits
 212              		.align	2
 213              		.code	16
 214              		.thumb_func
 215              		.type	CyBle_IndicationEventHandler, %function
 216              	CyBle_IndicationEventHandler:
 217              	.LFB6:
 866:.\Generated_Source\PSoC4/BLE_eventHandler.c **** 
ARM GAS  C:\Users\ADMINI~1\AppData\Local\Temp\ccs1OUCB.s 			page 20


 867:.\Generated_Source\PSoC4/BLE_eventHandler.c **** 
 868:.\Generated_Source\PSoC4/BLE_eventHandler.c **** /******************************************************************************    
 869:.\Generated_Source\PSoC4/BLE_eventHandler.c **** * Function Name: CyBle_IndicationEventHandler
 870:.\Generated_Source\PSoC4/BLE_eventHandler.c **** ***************************************************************************//**
 871:.\Generated_Source\PSoC4/BLE_eventHandler.c **** * 
 872:.\Generated_Source\PSoC4/BLE_eventHandler.c **** *  Handles the Indication event from BLE stack.
 873:.\Generated_Source\PSoC4/BLE_eventHandler.c **** * 
 874:.\Generated_Source\PSoC4/BLE_eventHandler.c **** *  \param eventParam: event parameter
 875:.\Generated_Source\PSoC4/BLE_eventHandler.c **** * 
 876:.\Generated_Source\PSoC4/BLE_eventHandler.c **** * \return
 877:.\Generated_Source\PSoC4/BLE_eventHandler.c **** *  None
 878:.\Generated_Source\PSoC4/BLE_eventHandler.c **** * 
 879:.\Generated_Source\PSoC4/BLE_eventHandler.c **** ******************************************************************************/
 880:.\Generated_Source\PSoC4/BLE_eventHandler.c **** static void CyBle_IndicationEventHandler(CYBLE_GATTC_HANDLE_VALUE_IND_PARAM_T *eventParam)
 881:.\Generated_Source\PSoC4/BLE_eventHandler.c **** {
 218              		.loc 1 881 0
 219              		.cfi_startproc
 220 0000 80B5     		push	{r7, lr}
 221              		.cfi_def_cfa_offset 8
 222              		.cfi_offset 7, -8
 223              		.cfi_offset 14, -4
 224 0002 82B0     		sub	sp, sp, #8
 225              		.cfi_def_cfa_offset 16
 226 0004 00AF     		add	r7, sp, #0
 227              		.cfi_def_cfa_register 7
 228 0006 7860     		str	r0, [r7, #4]
 882:.\Generated_Source\PSoC4/BLE_eventHandler.c **** #ifdef CYBLE_BCS_CLIENT
 883:.\Generated_Source\PSoC4/BLE_eventHandler.c ****     if((cyBle_eventHandlerFlag & CYBLE_CALLBACK) != 0u)
 884:.\Generated_Source\PSoC4/BLE_eventHandler.c ****     {
 885:.\Generated_Source\PSoC4/BLE_eventHandler.c ****         CyBle_BcscIndicationEventHandler(eventParam);
 886:.\Generated_Source\PSoC4/BLE_eventHandler.c ****     }
 887:.\Generated_Source\PSoC4/BLE_eventHandler.c **** #endif /* CYBLE_BCS_CLIENT */
 888:.\Generated_Source\PSoC4/BLE_eventHandler.c **** #ifdef CYBLE_BLS_CLIENT
 889:.\Generated_Source\PSoC4/BLE_eventHandler.c ****     if((cyBle_eventHandlerFlag & CYBLE_CALLBACK) != 0u)
 890:.\Generated_Source\PSoC4/BLE_eventHandler.c ****     {
 891:.\Generated_Source\PSoC4/BLE_eventHandler.c ****         CyBle_BlscIndicationEventHandler(eventParam);
 892:.\Generated_Source\PSoC4/BLE_eventHandler.c ****     }
 893:.\Generated_Source\PSoC4/BLE_eventHandler.c **** #endif /* CYBLE_BLS_CLIENT */
 894:.\Generated_Source\PSoC4/BLE_eventHandler.c **** #ifdef CYBLE_CGMS_CLIENT
 895:.\Generated_Source\PSoC4/BLE_eventHandler.c ****     if((cyBle_eventHandlerFlag & CYBLE_CALLBACK) != 0u)
 896:.\Generated_Source\PSoC4/BLE_eventHandler.c ****     {
 897:.\Generated_Source\PSoC4/BLE_eventHandler.c ****         CyBle_CgmscIndicationEventHandler(eventParam);
 898:.\Generated_Source\PSoC4/BLE_eventHandler.c ****     }
 899:.\Generated_Source\PSoC4/BLE_eventHandler.c **** #endif /* CYBLE_CGMS_CLIENT */
 900:.\Generated_Source\PSoC4/BLE_eventHandler.c **** #ifdef CYBLE_CPS_CLIENT
 901:.\Generated_Source\PSoC4/BLE_eventHandler.c ****     if((cyBle_eventHandlerFlag & CYBLE_CALLBACK) != 0u)
 902:.\Generated_Source\PSoC4/BLE_eventHandler.c ****     {
 903:.\Generated_Source\PSoC4/BLE_eventHandler.c ****         CyBle_CpscIndicationEventHandler(eventParam);
 904:.\Generated_Source\PSoC4/BLE_eventHandler.c ****     }
 905:.\Generated_Source\PSoC4/BLE_eventHandler.c **** #endif /* CYBLE_CPS_CLIENT */
 906:.\Generated_Source\PSoC4/BLE_eventHandler.c **** #ifdef CYBLE_CSCS_CLIENT
 907:.\Generated_Source\PSoC4/BLE_eventHandler.c ****     if((cyBle_eventHandlerFlag & CYBLE_CALLBACK) != 0u)
 908:.\Generated_Source\PSoC4/BLE_eventHandler.c ****     {
 909:.\Generated_Source\PSoC4/BLE_eventHandler.c ****         CyBle_CscscIndicationEventHandler(eventParam);
 910:.\Generated_Source\PSoC4/BLE_eventHandler.c ****     }
 911:.\Generated_Source\PSoC4/BLE_eventHandler.c **** #endif /* CYBLE_CSCS_CLIENT */
 912:.\Generated_Source\PSoC4/BLE_eventHandler.c **** #ifdef CYBLE_ESS_CLIENT
ARM GAS  C:\Users\ADMINI~1\AppData\Local\Temp\ccs1OUCB.s 			page 21


 913:.\Generated_Source\PSoC4/BLE_eventHandler.c ****     if((cyBle_eventHandlerFlag & CYBLE_CALLBACK) != 0u)
 914:.\Generated_Source\PSoC4/BLE_eventHandler.c ****     {
 915:.\Generated_Source\PSoC4/BLE_eventHandler.c ****         CyBle_EsscIndicationEventHandler(eventParam);
 916:.\Generated_Source\PSoC4/BLE_eventHandler.c ****     }
 917:.\Generated_Source\PSoC4/BLE_eventHandler.c **** #endif /* CYBLE_ESS_CLIENT */
 918:.\Generated_Source\PSoC4/BLE_eventHandler.c **** #ifdef CYBLE_GLS_CLIENT
 919:.\Generated_Source\PSoC4/BLE_eventHandler.c ****     if((cyBle_eventHandlerFlag & CYBLE_CALLBACK) != 0u)
 920:.\Generated_Source\PSoC4/BLE_eventHandler.c ****     {
 921:.\Generated_Source\PSoC4/BLE_eventHandler.c ****         CyBle_GlscIndicationEventHandler(eventParam);
 922:.\Generated_Source\PSoC4/BLE_eventHandler.c ****     }
 923:.\Generated_Source\PSoC4/BLE_eventHandler.c **** #endif /* CYBLE_GLS_CLIENT */
 924:.\Generated_Source\PSoC4/BLE_eventHandler.c **** #ifdef CYBLE_HTS_CLIENT
 925:.\Generated_Source\PSoC4/BLE_eventHandler.c ****     if((cyBle_eventHandlerFlag & CYBLE_CALLBACK) != 0u)
 926:.\Generated_Source\PSoC4/BLE_eventHandler.c ****     {
 927:.\Generated_Source\PSoC4/BLE_eventHandler.c ****         CyBle_HtscIndicationEventHandler(eventParam);
 928:.\Generated_Source\PSoC4/BLE_eventHandler.c ****     }
 929:.\Generated_Source\PSoC4/BLE_eventHandler.c **** #endif /* CYBLE_HTS_CLIENT */
 930:.\Generated_Source\PSoC4/BLE_eventHandler.c **** #ifdef CYBLE_LNS_CLIENT
 931:.\Generated_Source\PSoC4/BLE_eventHandler.c ****     if((cyBle_eventHandlerFlag & CYBLE_CALLBACK) != 0u)
 932:.\Generated_Source\PSoC4/BLE_eventHandler.c ****     {
 933:.\Generated_Source\PSoC4/BLE_eventHandler.c ****         CyBle_LnscIndicationEventHandler(eventParam);
 934:.\Generated_Source\PSoC4/BLE_eventHandler.c ****     }
 935:.\Generated_Source\PSoC4/BLE_eventHandler.c **** #endif /* CYBLE_LNS_CLIENT */
 936:.\Generated_Source\PSoC4/BLE_eventHandler.c **** #ifdef CYBLE_RSCS_CLIENT
 937:.\Generated_Source\PSoC4/BLE_eventHandler.c ****     if((cyBle_eventHandlerFlag & CYBLE_CALLBACK) != 0u)
 938:.\Generated_Source\PSoC4/BLE_eventHandler.c ****     {
 939:.\Generated_Source\PSoC4/BLE_eventHandler.c ****         CyBle_RscscIndicationEventHandler(eventParam);
 940:.\Generated_Source\PSoC4/BLE_eventHandler.c ****     }
 941:.\Generated_Source\PSoC4/BLE_eventHandler.c **** #endif /* CYBLE_RSCS_CLIENT */
 942:.\Generated_Source\PSoC4/BLE_eventHandler.c **** #ifdef CYBLE_UDS_CLIENT
 943:.\Generated_Source\PSoC4/BLE_eventHandler.c ****     if((cyBle_eventHandlerFlag & CYBLE_CALLBACK) != 0u)
 944:.\Generated_Source\PSoC4/BLE_eventHandler.c ****     {
 945:.\Generated_Source\PSoC4/BLE_eventHandler.c ****         CyBle_UdscIndicationEventHandler(eventParam);
 946:.\Generated_Source\PSoC4/BLE_eventHandler.c ****     }
 947:.\Generated_Source\PSoC4/BLE_eventHandler.c **** #endif /* CYBLE_UDS_CLIENT */
 948:.\Generated_Source\PSoC4/BLE_eventHandler.c **** #ifdef CYBLE_WPTS_CLIENT
 949:.\Generated_Source\PSoC4/BLE_eventHandler.c ****     if((cyBle_eventHandlerFlag & CYBLE_CALLBACK) != 0u)
 950:.\Generated_Source\PSoC4/BLE_eventHandler.c ****     {
 951:.\Generated_Source\PSoC4/BLE_eventHandler.c ****         CyBle_WptscIndicationEventHandler(eventParam);
 952:.\Generated_Source\PSoC4/BLE_eventHandler.c ****     }
 953:.\Generated_Source\PSoC4/BLE_eventHandler.c **** #endif /* CYBLE_WPTS_CLIENT */
 954:.\Generated_Source\PSoC4/BLE_eventHandler.c **** #ifdef CYBLE_WSS_CLIENT
 955:.\Generated_Source\PSoC4/BLE_eventHandler.c ****     if((cyBle_eventHandlerFlag & CYBLE_CALLBACK) != 0u)
 956:.\Generated_Source\PSoC4/BLE_eventHandler.c ****     {
 957:.\Generated_Source\PSoC4/BLE_eventHandler.c ****         CyBle_WsscIndicationEventHandler(eventParam);
 958:.\Generated_Source\PSoC4/BLE_eventHandler.c ****     }
 959:.\Generated_Source\PSoC4/BLE_eventHandler.c **** #endif /* CYBLE_WSS_CLIENT */
 960:.\Generated_Source\PSoC4/BLE_eventHandler.c **** }
 229              		.loc 1 960 0
 230 0008 BD46     		mov	sp, r7
 231 000a 02B0     		add	sp, sp, #8
 232              		@ sp needed
 233 000c 80BD     		pop	{r7, pc}
 234              		.cfi_endproc
 235              	.LFE6:
 236              		.size	CyBle_IndicationEventHandler, .-CyBle_IndicationEventHandler
 237              		.section	.text.CyBle_ReadResponseEventHandler,"ax",%progbits
ARM GAS  C:\Users\ADMINI~1\AppData\Local\Temp\ccs1OUCB.s 			page 22


 238              		.align	2
 239              		.code	16
 240              		.thumb_func
 241              		.type	CyBle_ReadResponseEventHandler, %function
 242              	CyBle_ReadResponseEventHandler:
 243              	.LFB7:
 961:.\Generated_Source\PSoC4/BLE_eventHandler.c **** 
 962:.\Generated_Source\PSoC4/BLE_eventHandler.c **** 
 963:.\Generated_Source\PSoC4/BLE_eventHandler.c **** 
 964:.\Generated_Source\PSoC4/BLE_eventHandler.c **** /******************************************************************************    
 965:.\Generated_Source\PSoC4/BLE_eventHandler.c **** * Function Name: CyBle_ReadResponseEventHandler
 966:.\Generated_Source\PSoC4/BLE_eventHandler.c **** ***************************************************************************//**
 967:.\Generated_Source\PSoC4/BLE_eventHandler.c **** * 
 968:.\Generated_Source\PSoC4/BLE_eventHandler.c **** *  Handles the Read Response event from BLE stack.
 969:.\Generated_Source\PSoC4/BLE_eventHandler.c **** * 
 970:.\Generated_Source\PSoC4/BLE_eventHandler.c **** *  \param eventParam: event parameter
 971:.\Generated_Source\PSoC4/BLE_eventHandler.c **** * 
 972:.\Generated_Source\PSoC4/BLE_eventHandler.c **** * \return
 973:.\Generated_Source\PSoC4/BLE_eventHandler.c **** *  None
 974:.\Generated_Source\PSoC4/BLE_eventHandler.c **** * 
 975:.\Generated_Source\PSoC4/BLE_eventHandler.c **** ******************************************************************************/
 976:.\Generated_Source\PSoC4/BLE_eventHandler.c **** static void CyBle_ReadResponseEventHandler(CYBLE_GATTC_READ_RSP_PARAM_T *eventParam)
 977:.\Generated_Source\PSoC4/BLE_eventHandler.c **** {
 244              		.loc 1 977 0
 245              		.cfi_startproc
 246 0000 80B5     		push	{r7, lr}
 247              		.cfi_def_cfa_offset 8
 248              		.cfi_offset 7, -8
 249              		.cfi_offset 14, -4
 250 0002 82B0     		sub	sp, sp, #8
 251              		.cfi_def_cfa_offset 16
 252 0004 00AF     		add	r7, sp, #0
 253              		.cfi_def_cfa_register 7
 254 0006 7860     		str	r0, [r7, #4]
 978:.\Generated_Source\PSoC4/BLE_eventHandler.c **** #ifdef CYBLE_CUSTOM_CLIENT
 979:.\Generated_Source\PSoC4/BLE_eventHandler.c ****     /* Read response with 128-bit included service uuid */
 980:.\Generated_Source\PSoC4/BLE_eventHandler.c ****     if((CYBLE_CLIENT_STATE_INCL_DISCOVERING == CyBle_GetClientState()) &&
 981:.\Generated_Source\PSoC4/BLE_eventHandler.c ****        (cyBle_discInclInfo.inclDefHandle != 0u))
 982:.\Generated_Source\PSoC4/BLE_eventHandler.c ****     {
 983:.\Generated_Source\PSoC4/BLE_eventHandler.c ****         CYBLE_DISC_SRVC128_INFO_T discServInfo;
 984:.\Generated_Source\PSoC4/BLE_eventHandler.c **** 
 985:.\Generated_Source\PSoC4/BLE_eventHandler.c ****         /* Store service range */
 986:.\Generated_Source\PSoC4/BLE_eventHandler.c ****         discServInfo.range = cyBle_discInclInfo.inclHandleRange;
 987:.\Generated_Source\PSoC4/BLE_eventHandler.c ****         (void)memcpy((void *) discServInfo.uuid.uuid128.value, (void *)eventParam->value.val, event
 988:.\Generated_Source\PSoC4/BLE_eventHandler.c ****         CyBle_CustomcDiscoverServiceEventHandler(&discServInfo);
 989:.\Generated_Source\PSoC4/BLE_eventHandler.c ****         
 990:.\Generated_Source\PSoC4/BLE_eventHandler.c ****         /* Re-initiate CyBle_GattcFindIncludedServices function, setting the start
 991:.\Generated_Source\PSoC4/BLE_eventHandler.c ****            handle to the attribute handle which is placed next to the one used in
 992:.\Generated_Source\PSoC4/BLE_eventHandler.c ****            the above step.
 993:.\Generated_Source\PSoC4/BLE_eventHandler.c ****         */
 994:.\Generated_Source\PSoC4/BLE_eventHandler.c ****         discServInfo.range.startHandle = cyBle_discInclInfo.inclDefHandle + 1u;
 995:.\Generated_Source\PSoC4/BLE_eventHandler.c ****         discServInfo.range.endHandle = cyBle_serverInfo[cyBle_disCount].range.endHandle;
 996:.\Generated_Source\PSoC4/BLE_eventHandler.c ****         if(discServInfo.range.startHandle <= discServInfo.range.endHandle)
 997:.\Generated_Source\PSoC4/BLE_eventHandler.c ****         {
 998:.\Generated_Source\PSoC4/BLE_eventHandler.c ****             if(CYBLE_ERROR_OK != CyBle_GattcFindIncludedServices(cyBle_connHandle, &discServInfo.ra
 999:.\Generated_Source\PSoC4/BLE_eventHandler.c ****             {
1000:.\Generated_Source\PSoC4/BLE_eventHandler.c ****                 CyBle_ApplCallback(CYBLE_EVT_GATTC_INCL_DISCOVERY_FAILED, NULL);
ARM GAS  C:\Users\ADMINI~1\AppData\Local\Temp\ccs1OUCB.s 			page 23


1001:.\Generated_Source\PSoC4/BLE_eventHandler.c ****                 cyBle_eventHandlerFlag &= (uint8)~CYBLE_AUTO_DISCOVERY;
1002:.\Generated_Source\PSoC4/BLE_eventHandler.c ****             }
1003:.\Generated_Source\PSoC4/BLE_eventHandler.c ****         }
1004:.\Generated_Source\PSoC4/BLE_eventHandler.c ****         else /* Continue discovery of the following service */
1005:.\Generated_Source\PSoC4/BLE_eventHandler.c ****         {
1006:.\Generated_Source\PSoC4/BLE_eventHandler.c ****             CyBle_NextInclDiscovery(CYBLE_DISCOVERY_CONTINUE);
1007:.\Generated_Source\PSoC4/BLE_eventHandler.c ****         }
1008:.\Generated_Source\PSoC4/BLE_eventHandler.c ****         
1009:.\Generated_Source\PSoC4/BLE_eventHandler.c ****         cyBle_eventHandlerFlag &= (uint8)~CYBLE_CALLBACK;
1010:.\Generated_Source\PSoC4/BLE_eventHandler.c ****     #ifdef CYBLE_CUSTOM_CLIENT
1011:.\Generated_Source\PSoC4/BLE_eventHandler.c ****         cyBle_discInclInfo.inclDefHandle = 0u;
1012:.\Generated_Source\PSoC4/BLE_eventHandler.c ****     #endif /* CYBLE_CUSTOM_CLIENT */
1013:.\Generated_Source\PSoC4/BLE_eventHandler.c ****     }
1014:.\Generated_Source\PSoC4/BLE_eventHandler.c **** #endif /* CYBLE_CUSTOM_CLIENT */
1015:.\Generated_Source\PSoC4/BLE_eventHandler.c **** #ifdef CYBLE_ANCS_CLIENT
1016:.\Generated_Source\PSoC4/BLE_eventHandler.c ****     if((cyBle_eventHandlerFlag & CYBLE_CALLBACK) != 0u)
1017:.\Generated_Source\PSoC4/BLE_eventHandler.c ****     {
1018:.\Generated_Source\PSoC4/BLE_eventHandler.c ****         CyBle_AncscReadResponseEventHandler(eventParam);
1019:.\Generated_Source\PSoC4/BLE_eventHandler.c ****     }
1020:.\Generated_Source\PSoC4/BLE_eventHandler.c **** #endif /* CYBLE_ANCS_CLIENT */
1021:.\Generated_Source\PSoC4/BLE_eventHandler.c **** #ifdef CYBLE_ANS_CLIENT
1022:.\Generated_Source\PSoC4/BLE_eventHandler.c ****     if((cyBle_eventHandlerFlag & CYBLE_CALLBACK) != 0u)
1023:.\Generated_Source\PSoC4/BLE_eventHandler.c ****     {
1024:.\Generated_Source\PSoC4/BLE_eventHandler.c ****         CyBle_AnscReadResponseEventHandler(eventParam);
1025:.\Generated_Source\PSoC4/BLE_eventHandler.c ****     }
1026:.\Generated_Source\PSoC4/BLE_eventHandler.c **** #endif /* CYBLE_ANS_CLIENT */
1027:.\Generated_Source\PSoC4/BLE_eventHandler.c **** #ifdef CYBLE_BAS_CLIENT
1028:.\Generated_Source\PSoC4/BLE_eventHandler.c ****     if((cyBle_eventHandlerFlag & CYBLE_CALLBACK) != 0u)
1029:.\Generated_Source\PSoC4/BLE_eventHandler.c ****     {
1030:.\Generated_Source\PSoC4/BLE_eventHandler.c ****         CyBle_BascReadResponseEventHandler(eventParam);
1031:.\Generated_Source\PSoC4/BLE_eventHandler.c ****     }
1032:.\Generated_Source\PSoC4/BLE_eventHandler.c **** #endif /* CYBLE_BAS_CLIENT */
1033:.\Generated_Source\PSoC4/BLE_eventHandler.c **** #ifdef CYBLE_BLS_CLIENT
1034:.\Generated_Source\PSoC4/BLE_eventHandler.c ****     if((cyBle_eventHandlerFlag & CYBLE_CALLBACK) != 0u)
1035:.\Generated_Source\PSoC4/BLE_eventHandler.c ****     {
1036:.\Generated_Source\PSoC4/BLE_eventHandler.c ****         CyBle_BlscReadResponseEventHandler(eventParam);
1037:.\Generated_Source\PSoC4/BLE_eventHandler.c ****     }
1038:.\Generated_Source\PSoC4/BLE_eventHandler.c **** #endif /* CYBLE_BLS_CLIENT */
1039:.\Generated_Source\PSoC4/BLE_eventHandler.c **** #ifdef CYBLE_BCS_CLIENT
1040:.\Generated_Source\PSoC4/BLE_eventHandler.c ****     if((cyBle_eventHandlerFlag & CYBLE_CALLBACK) != 0u)
1041:.\Generated_Source\PSoC4/BLE_eventHandler.c ****     {
1042:.\Generated_Source\PSoC4/BLE_eventHandler.c ****         CyBle_BcscReadResponseEventHandler(eventParam);
1043:.\Generated_Source\PSoC4/BLE_eventHandler.c ****     }
1044:.\Generated_Source\PSoC4/BLE_eventHandler.c **** #endif /* CYBLE_BCS_CLIENT */
1045:.\Generated_Source\PSoC4/BLE_eventHandler.c **** #ifdef CYBLE_BMS_CLIENT
1046:.\Generated_Source\PSoC4/BLE_eventHandler.c ****     if((cyBle_eventHandlerFlag & CYBLE_CALLBACK) != 0u)
1047:.\Generated_Source\PSoC4/BLE_eventHandler.c ****     {
1048:.\Generated_Source\PSoC4/BLE_eventHandler.c ****         CyBle_BmscReadResponseEventHandler(eventParam);
1049:.\Generated_Source\PSoC4/BLE_eventHandler.c ****     }
1050:.\Generated_Source\PSoC4/BLE_eventHandler.c **** #endif /* CYBLE_BMS_CLIENT */
1051:.\Generated_Source\PSoC4/BLE_eventHandler.c **** #ifdef CYBLE_CGMS_CLIENT
1052:.\Generated_Source\PSoC4/BLE_eventHandler.c ****     if((cyBle_eventHandlerFlag & CYBLE_CALLBACK) != 0u)
1053:.\Generated_Source\PSoC4/BLE_eventHandler.c ****     {
1054:.\Generated_Source\PSoC4/BLE_eventHandler.c ****         CyBle_CgmscReadResponseEventHandler(eventParam);
1055:.\Generated_Source\PSoC4/BLE_eventHandler.c ****     }
1056:.\Generated_Source\PSoC4/BLE_eventHandler.c **** #endif /* CYBLE_CGMS_CLIENT */
1057:.\Generated_Source\PSoC4/BLE_eventHandler.c **** #ifdef CYBLE_CPS_CLIENT
ARM GAS  C:\Users\ADMINI~1\AppData\Local\Temp\ccs1OUCB.s 			page 24


1058:.\Generated_Source\PSoC4/BLE_eventHandler.c ****     if((cyBle_eventHandlerFlag & CYBLE_CALLBACK) != 0u)
1059:.\Generated_Source\PSoC4/BLE_eventHandler.c ****     {
1060:.\Generated_Source\PSoC4/BLE_eventHandler.c ****         CyBle_CpscReadResponseEventHandler(eventParam);
1061:.\Generated_Source\PSoC4/BLE_eventHandler.c ****     }
1062:.\Generated_Source\PSoC4/BLE_eventHandler.c **** #endif /* CYBLE_CPS_CLIENT */
1063:.\Generated_Source\PSoC4/BLE_eventHandler.c **** #ifdef CYBLE_CSCS_CLIENT
1064:.\Generated_Source\PSoC4/BLE_eventHandler.c ****     if((cyBle_eventHandlerFlag & CYBLE_CALLBACK) != 0u)
1065:.\Generated_Source\PSoC4/BLE_eventHandler.c ****     {
1066:.\Generated_Source\PSoC4/BLE_eventHandler.c ****         CyBle_CscscReadResponseEventHandler(eventParam);
1067:.\Generated_Source\PSoC4/BLE_eventHandler.c ****     }
1068:.\Generated_Source\PSoC4/BLE_eventHandler.c **** #endif /* CYBLE_CSCS_CLIENT */
1069:.\Generated_Source\PSoC4/BLE_eventHandler.c **** #ifdef CYBLE_CTS_CLIENT
1070:.\Generated_Source\PSoC4/BLE_eventHandler.c ****     if((cyBle_eventHandlerFlag & CYBLE_CALLBACK) != 0u)
1071:.\Generated_Source\PSoC4/BLE_eventHandler.c ****     {
1072:.\Generated_Source\PSoC4/BLE_eventHandler.c ****         CyBle_CtscReadResponseEventHandler(eventParam);
1073:.\Generated_Source\PSoC4/BLE_eventHandler.c ****     }
1074:.\Generated_Source\PSoC4/BLE_eventHandler.c **** #endif /* CYBLE_BAS_CLIENT */
1075:.\Generated_Source\PSoC4/BLE_eventHandler.c **** #ifdef CYBLE_DIS_CLIENT
1076:.\Generated_Source\PSoC4/BLE_eventHandler.c ****     if((cyBle_eventHandlerFlag & CYBLE_CALLBACK) != 0u)
1077:.\Generated_Source\PSoC4/BLE_eventHandler.c ****     {
1078:.\Generated_Source\PSoC4/BLE_eventHandler.c ****         CyBle_DiscReadResponseEventHandler(eventParam);
1079:.\Generated_Source\PSoC4/BLE_eventHandler.c ****     }
1080:.\Generated_Source\PSoC4/BLE_eventHandler.c **** #endif /* CYBLE_DIS_CLIENT */
1081:.\Generated_Source\PSoC4/BLE_eventHandler.c **** #ifdef CYBLE_ESS_CLIENT
1082:.\Generated_Source\PSoC4/BLE_eventHandler.c ****     if((cyBle_eventHandlerFlag & CYBLE_CALLBACK) != 0u)
1083:.\Generated_Source\PSoC4/BLE_eventHandler.c ****     {
1084:.\Generated_Source\PSoC4/BLE_eventHandler.c ****         CyBle_EsscReadResponseEventHandler(eventParam);
1085:.\Generated_Source\PSoC4/BLE_eventHandler.c ****     }
1086:.\Generated_Source\PSoC4/BLE_eventHandler.c **** #endif /* CYBLE_ESS_CLIENT */
1087:.\Generated_Source\PSoC4/BLE_eventHandler.c **** #ifdef CYBLE_GLS_CLIENT
1088:.\Generated_Source\PSoC4/BLE_eventHandler.c ****     if((cyBle_eventHandlerFlag & CYBLE_CALLBACK) != 0u)
1089:.\Generated_Source\PSoC4/BLE_eventHandler.c ****     {
1090:.\Generated_Source\PSoC4/BLE_eventHandler.c ****         CyBle_GlscReadResponseEventHandler(eventParam);
1091:.\Generated_Source\PSoC4/BLE_eventHandler.c ****     }
1092:.\Generated_Source\PSoC4/BLE_eventHandler.c **** #endif /* CYBLE_GLS_CLIENT */
1093:.\Generated_Source\PSoC4/BLE_eventHandler.c **** #ifdef CYBLE_HIDS_CLIENT
1094:.\Generated_Source\PSoC4/BLE_eventHandler.c ****     if((cyBle_eventHandlerFlag & CYBLE_CALLBACK) != 0u)
1095:.\Generated_Source\PSoC4/BLE_eventHandler.c ****     {
1096:.\Generated_Source\PSoC4/BLE_eventHandler.c ****         CyBle_HidscReadResponseEventHandler(eventParam);
1097:.\Generated_Source\PSoC4/BLE_eventHandler.c ****     }
1098:.\Generated_Source\PSoC4/BLE_eventHandler.c **** #endif /* CYBLE_HIDS_CLIENT */
1099:.\Generated_Source\PSoC4/BLE_eventHandler.c **** #ifdef CYBLE_HPS_CLIENT
1100:.\Generated_Source\PSoC4/BLE_eventHandler.c ****     if((cyBle_eventHandlerFlag & CYBLE_CALLBACK) != 0u)
1101:.\Generated_Source\PSoC4/BLE_eventHandler.c ****     {
1102:.\Generated_Source\PSoC4/BLE_eventHandler.c ****         CyBle_HpscReadResponseEventHandler(eventParam);
1103:.\Generated_Source\PSoC4/BLE_eventHandler.c ****     }
1104:.\Generated_Source\PSoC4/BLE_eventHandler.c **** #endif /* CYBLE_HPS_CLIENT */
1105:.\Generated_Source\PSoC4/BLE_eventHandler.c **** #ifdef CYBLE_HRS_CLIENT
1106:.\Generated_Source\PSoC4/BLE_eventHandler.c ****     if((cyBle_eventHandlerFlag & CYBLE_CALLBACK) != 0u)
1107:.\Generated_Source\PSoC4/BLE_eventHandler.c ****     {
1108:.\Generated_Source\PSoC4/BLE_eventHandler.c ****         CyBle_HrscReadResponseEventHandler(eventParam);
1109:.\Generated_Source\PSoC4/BLE_eventHandler.c ****     }
1110:.\Generated_Source\PSoC4/BLE_eventHandler.c **** #endif /* CYBLE_HRS_CLIENT */
1111:.\Generated_Source\PSoC4/BLE_eventHandler.c **** #ifdef CYBLE_HTS_CLIENT
1112:.\Generated_Source\PSoC4/BLE_eventHandler.c ****     if((cyBle_eventHandlerFlag & CYBLE_CALLBACK) != 0u)
1113:.\Generated_Source\PSoC4/BLE_eventHandler.c ****     {
1114:.\Generated_Source\PSoC4/BLE_eventHandler.c ****         CyBle_HtscReadResponseEventHandler(eventParam);
ARM GAS  C:\Users\ADMINI~1\AppData\Local\Temp\ccs1OUCB.s 			page 25


1115:.\Generated_Source\PSoC4/BLE_eventHandler.c ****     }
1116:.\Generated_Source\PSoC4/BLE_eventHandler.c **** #endif /* CYBLE_HTS_CLIENT */
1117:.\Generated_Source\PSoC4/BLE_eventHandler.c **** #ifdef CYBLE_IPS_CLIENT
1118:.\Generated_Source\PSoC4/BLE_eventHandler.c ****     if((cyBle_eventHandlerFlag & CYBLE_CALLBACK) != 0u)
1119:.\Generated_Source\PSoC4/BLE_eventHandler.c ****     {
1120:.\Generated_Source\PSoC4/BLE_eventHandler.c ****         CyBle_IpscReadResponseEventHandler(eventParam);
1121:.\Generated_Source\PSoC4/BLE_eventHandler.c ****     }
1122:.\Generated_Source\PSoC4/BLE_eventHandler.c **** #endif /* CYBLE_IPS_CLIENT */
1123:.\Generated_Source\PSoC4/BLE_eventHandler.c **** #ifdef CYBLE_LLS_CLIENT
1124:.\Generated_Source\PSoC4/BLE_eventHandler.c ****     if((cyBle_eventHandlerFlag & CYBLE_CALLBACK) != 0u)
1125:.\Generated_Source\PSoC4/BLE_eventHandler.c ****     {
1126:.\Generated_Source\PSoC4/BLE_eventHandler.c ****         CyBle_LlscReadResponseEventHandler(eventParam);
1127:.\Generated_Source\PSoC4/BLE_eventHandler.c ****     }
1128:.\Generated_Source\PSoC4/BLE_eventHandler.c **** #endif /* CYBLE_LLS_CLIENT */
1129:.\Generated_Source\PSoC4/BLE_eventHandler.c **** #ifdef CYBLE_LNS_CLIENT
1130:.\Generated_Source\PSoC4/BLE_eventHandler.c ****     if((cyBle_eventHandlerFlag & CYBLE_CALLBACK) != 0u)
1131:.\Generated_Source\PSoC4/BLE_eventHandler.c ****     {
1132:.\Generated_Source\PSoC4/BLE_eventHandler.c ****         CyBle_LnscReadResponseEventHandler(eventParam);
1133:.\Generated_Source\PSoC4/BLE_eventHandler.c ****     }
1134:.\Generated_Source\PSoC4/BLE_eventHandler.c **** #endif /* CYBLE_LNS_CLIENT */
1135:.\Generated_Source\PSoC4/BLE_eventHandler.c **** #ifdef CYBLE_NDCS_CLIENT
1136:.\Generated_Source\PSoC4/BLE_eventHandler.c ****     if((cyBle_eventHandlerFlag & CYBLE_CALLBACK) != 0u)
1137:.\Generated_Source\PSoC4/BLE_eventHandler.c ****     {
1138:.\Generated_Source\PSoC4/BLE_eventHandler.c ****         CyBle_NdcscReadResponseEventHandler(eventParam);
1139:.\Generated_Source\PSoC4/BLE_eventHandler.c ****     }
1140:.\Generated_Source\PSoC4/BLE_eventHandler.c **** #endif /* CYBLE_NDCS_CLIENT */
1141:.\Generated_Source\PSoC4/BLE_eventHandler.c **** #ifdef CYBLE_PASS_CLIENT
1142:.\Generated_Source\PSoC4/BLE_eventHandler.c ****     if((cyBle_eventHandlerFlag & CYBLE_CALLBACK) != 0u)
1143:.\Generated_Source\PSoC4/BLE_eventHandler.c ****     {
1144:.\Generated_Source\PSoC4/BLE_eventHandler.c ****         CyBle_PasscReadResponseEventHandler(eventParam);
1145:.\Generated_Source\PSoC4/BLE_eventHandler.c ****     }
1146:.\Generated_Source\PSoC4/BLE_eventHandler.c **** #endif /* CYBLE_PASS_CLIENT */
1147:.\Generated_Source\PSoC4/BLE_eventHandler.c **** #ifdef CYBLE_RSCS_CLIENT
1148:.\Generated_Source\PSoC4/BLE_eventHandler.c ****     if((cyBle_eventHandlerFlag & CYBLE_CALLBACK) != 0u)
1149:.\Generated_Source\PSoC4/BLE_eventHandler.c ****     {
1150:.\Generated_Source\PSoC4/BLE_eventHandler.c ****         CyBle_RscscReadResponseEventHandler(eventParam);
1151:.\Generated_Source\PSoC4/BLE_eventHandler.c ****     }
1152:.\Generated_Source\PSoC4/BLE_eventHandler.c **** #endif /* CYBLE_RSCS_CLIENT */
1153:.\Generated_Source\PSoC4/BLE_eventHandler.c **** #ifdef CYBLE_RTUS_CLIENT
1154:.\Generated_Source\PSoC4/BLE_eventHandler.c ****     if((cyBle_eventHandlerFlag & CYBLE_CALLBACK) != 0u)
1155:.\Generated_Source\PSoC4/BLE_eventHandler.c ****     {
1156:.\Generated_Source\PSoC4/BLE_eventHandler.c ****         CyBle_RtuscReadResponseEventHandler(eventParam);
1157:.\Generated_Source\PSoC4/BLE_eventHandler.c ****     }
1158:.\Generated_Source\PSoC4/BLE_eventHandler.c **** #endif /* CYBLE_RTUS_CLIENT */
1159:.\Generated_Source\PSoC4/BLE_eventHandler.c **** #ifdef CYBLE_SCPS_CLIENT
1160:.\Generated_Source\PSoC4/BLE_eventHandler.c ****     if((cyBle_eventHandlerFlag & CYBLE_CALLBACK) != 0u)
1161:.\Generated_Source\PSoC4/BLE_eventHandler.c ****     {
1162:.\Generated_Source\PSoC4/BLE_eventHandler.c ****         CyBle_ScpscReadResponseEventHandler(eventParam);
1163:.\Generated_Source\PSoC4/BLE_eventHandler.c ****     }
1164:.\Generated_Source\PSoC4/BLE_eventHandler.c **** #endif /* CYBLE_SCPS_CLIENT */
1165:.\Generated_Source\PSoC4/BLE_eventHandler.c **** #ifdef CYBLE_TPS_CLIENT
1166:.\Generated_Source\PSoC4/BLE_eventHandler.c ****     if((cyBle_eventHandlerFlag & CYBLE_CALLBACK) != 0u)
1167:.\Generated_Source\PSoC4/BLE_eventHandler.c ****     {
1168:.\Generated_Source\PSoC4/BLE_eventHandler.c ****         CyBle_TpscReadResponseEventHandler(eventParam);
1169:.\Generated_Source\PSoC4/BLE_eventHandler.c ****     }
1170:.\Generated_Source\PSoC4/BLE_eventHandler.c **** #endif /* CYBLE_TPS_CLIENT */
1171:.\Generated_Source\PSoC4/BLE_eventHandler.c **** #ifdef CYBLE_UDS_CLIENT
ARM GAS  C:\Users\ADMINI~1\AppData\Local\Temp\ccs1OUCB.s 			page 26


1172:.\Generated_Source\PSoC4/BLE_eventHandler.c ****     if((cyBle_eventHandlerFlag & CYBLE_CALLBACK) != 0u)
1173:.\Generated_Source\PSoC4/BLE_eventHandler.c ****     {
1174:.\Generated_Source\PSoC4/BLE_eventHandler.c ****         CyBle_UdscReadResponseEventHandler(eventParam);
1175:.\Generated_Source\PSoC4/BLE_eventHandler.c ****     }
1176:.\Generated_Source\PSoC4/BLE_eventHandler.c **** #endif /* CYBLE_UDS_CLIENT */
1177:.\Generated_Source\PSoC4/BLE_eventHandler.c **** #ifdef CYBLE_WPTS_CLIENT
1178:.\Generated_Source\PSoC4/BLE_eventHandler.c ****     if((cyBle_eventHandlerFlag & CYBLE_CALLBACK) != 0u)
1179:.\Generated_Source\PSoC4/BLE_eventHandler.c ****     {
1180:.\Generated_Source\PSoC4/BLE_eventHandler.c ****         CyBle_WptscReadResponseEventHandler(eventParam);
1181:.\Generated_Source\PSoC4/BLE_eventHandler.c ****     }
1182:.\Generated_Source\PSoC4/BLE_eventHandler.c **** #endif /* CYBLE_WPTS_CLIENT */
1183:.\Generated_Source\PSoC4/BLE_eventHandler.c **** #ifdef CYBLE_WSS_CLIENT
1184:.\Generated_Source\PSoC4/BLE_eventHandler.c ****     if((cyBle_eventHandlerFlag & CYBLE_CALLBACK) != 0u)
1185:.\Generated_Source\PSoC4/BLE_eventHandler.c ****     {
1186:.\Generated_Source\PSoC4/BLE_eventHandler.c ****         CyBle_WsscReadResponseEventHandler(eventParam);
1187:.\Generated_Source\PSoC4/BLE_eventHandler.c ****     }
1188:.\Generated_Source\PSoC4/BLE_eventHandler.c **** #endif /* CYBLE_WSS_CLIENT */
1189:.\Generated_Source\PSoC4/BLE_eventHandler.c **** }
 255              		.loc 1 1189 0
 256 0008 BD46     		mov	sp, r7
 257 000a 02B0     		add	sp, sp, #8
 258              		@ sp needed
 259 000c 80BD     		pop	{r7, pc}
 260              		.cfi_endproc
 261              	.LFE7:
 262              		.size	CyBle_ReadResponseEventHandler, .-CyBle_ReadResponseEventHandler
 263              		.section	.text.CyBle_ReadMultipleResponseEventHandler,"ax",%progbits
 264              		.align	2
 265              		.code	16
 266              		.thumb_func
 267              		.type	CyBle_ReadMultipleResponseEventHandler, %function
 268              	CyBle_ReadMultipleResponseEventHandler:
 269              	.LFB8:
1190:.\Generated_Source\PSoC4/BLE_eventHandler.c **** 
1191:.\Generated_Source\PSoC4/BLE_eventHandler.c **** /******************************************************************************    
1192:.\Generated_Source\PSoC4/BLE_eventHandler.c **** * Function Name: CyBle_ReadMultipleResponseEventHandler
1193:.\Generated_Source\PSoC4/BLE_eventHandler.c **** ***************************************************************************//**
1194:.\Generated_Source\PSoC4/BLE_eventHandler.c **** * 
1195:.\Generated_Source\PSoC4/BLE_eventHandler.c **** *  Handles the Read Multiple Response event from BLE stack.
1196:.\Generated_Source\PSoC4/BLE_eventHandler.c **** * 
1197:.\Generated_Source\PSoC4/BLE_eventHandler.c **** *  \param eventParam: event parameter
1198:.\Generated_Source\PSoC4/BLE_eventHandler.c **** * 
1199:.\Generated_Source\PSoC4/BLE_eventHandler.c **** * \return
1200:.\Generated_Source\PSoC4/BLE_eventHandler.c **** *  None
1201:.\Generated_Source\PSoC4/BLE_eventHandler.c **** * 
1202:.\Generated_Source\PSoC4/BLE_eventHandler.c **** ******************************************************************************/
1203:.\Generated_Source\PSoC4/BLE_eventHandler.c **** static void CyBle_ReadMultipleResponseEventHandler(CYBLE_GATTC_READ_RSP_PARAM_T *eventParam)
1204:.\Generated_Source\PSoC4/BLE_eventHandler.c **** {
 270              		.loc 1 1204 0
 271              		.cfi_startproc
 272 0000 80B5     		push	{r7, lr}
 273              		.cfi_def_cfa_offset 8
 274              		.cfi_offset 7, -8
 275              		.cfi_offset 14, -4
 276 0002 82B0     		sub	sp, sp, #8
 277              		.cfi_def_cfa_offset 16
 278 0004 00AF     		add	r7, sp, #0
ARM GAS  C:\Users\ADMINI~1\AppData\Local\Temp\ccs1OUCB.s 			page 27


 279              		.cfi_def_cfa_register 7
 280 0006 7860     		str	r0, [r7, #4]
1205:.\Generated_Source\PSoC4/BLE_eventHandler.c **** #ifdef CYBLE_CUSTOM_CLIENT
1206:.\Generated_Source\PSoC4/BLE_eventHandler.c ****     /* Read response with 128-bit included service uuid */
1207:.\Generated_Source\PSoC4/BLE_eventHandler.c ****     if((CYBLE_CLIENT_STATE_INCL_DISCOVERING == CyBle_GetClientState()) &&
1208:.\Generated_Source\PSoC4/BLE_eventHandler.c ****        (cyBle_discInclInfo.inclDefHandle != 0u))
1209:.\Generated_Source\PSoC4/BLE_eventHandler.c ****     {
1210:.\Generated_Source\PSoC4/BLE_eventHandler.c ****         CYBLE_DISC_SRVC128_INFO_T discServInfo;
1211:.\Generated_Source\PSoC4/BLE_eventHandler.c **** 
1212:.\Generated_Source\PSoC4/BLE_eventHandler.c ****         /* Store service range */
1213:.\Generated_Source\PSoC4/BLE_eventHandler.c ****         discServInfo.range = cyBle_discInclInfo.inclHandleRange;
1214:.\Generated_Source\PSoC4/BLE_eventHandler.c ****         (void)memcpy((void *) discServInfo.uuid.uuid128.value, (void *)eventParam->value.val, event
1215:.\Generated_Source\PSoC4/BLE_eventHandler.c ****         CyBle_CustomcDiscoverServiceEventHandler(&discServInfo);
1216:.\Generated_Source\PSoC4/BLE_eventHandler.c ****         
1217:.\Generated_Source\PSoC4/BLE_eventHandler.c ****         /* Re-initiate CyBle_GattcFindIncludedServices function, setting the start
1218:.\Generated_Source\PSoC4/BLE_eventHandler.c ****            handle to the attribute handle which is placed next to the one used in
1219:.\Generated_Source\PSoC4/BLE_eventHandler.c ****            the above step.
1220:.\Generated_Source\PSoC4/BLE_eventHandler.c ****         */
1221:.\Generated_Source\PSoC4/BLE_eventHandler.c ****         discServInfo.range.startHandle = cyBle_discInclInfo.inclDefHandle + 1;
1222:.\Generated_Source\PSoC4/BLE_eventHandler.c ****         discServInfo.range.endHandle = cyBle_serverInfo[cyBle_disCount].range.endHandle;
1223:.\Generated_Source\PSoC4/BLE_eventHandler.c ****         if(discServInfo.range.startHandle <= discServInfo.range.endHandle)
1224:.\Generated_Source\PSoC4/BLE_eventHandler.c ****         {
1225:.\Generated_Source\PSoC4/BLE_eventHandler.c ****             if(CYBLE_ERROR_OK != CyBle_GattcFindIncludedServices(cyBle_connHandle, &discServInfo.ra
1226:.\Generated_Source\PSoC4/BLE_eventHandler.c ****             {
1227:.\Generated_Source\PSoC4/BLE_eventHandler.c ****                 CyBle_ApplCallback(CYBLE_EVT_GATTC_INCL_DISCOVERY_FAILED, NULL);
1228:.\Generated_Source\PSoC4/BLE_eventHandler.c ****                 cyBle_eventHandlerFlag &= (uint8)~CYBLE_AUTO_DISCOVERY;
1229:.\Generated_Source\PSoC4/BLE_eventHandler.c ****             }
1230:.\Generated_Source\PSoC4/BLE_eventHandler.c ****         }
1231:.\Generated_Source\PSoC4/BLE_eventHandler.c ****         else /* Continue discovery of the following service */
1232:.\Generated_Source\PSoC4/BLE_eventHandler.c ****         {
1233:.\Generated_Source\PSoC4/BLE_eventHandler.c ****             CyBle_NextInclDiscovery(CYBLE_DISCOVERY_CONTINUE);
1234:.\Generated_Source\PSoC4/BLE_eventHandler.c ****         }
1235:.\Generated_Source\PSoC4/BLE_eventHandler.c ****         
1236:.\Generated_Source\PSoC4/BLE_eventHandler.c ****         cyBle_eventHandlerFlag &= (uint8)~CYBLE_CALLBACK;
1237:.\Generated_Source\PSoC4/BLE_eventHandler.c ****     #ifdef CYBLE_CUSTOM_CLIENT
1238:.\Generated_Source\PSoC4/BLE_eventHandler.c ****         cyBle_discInclInfo.inclDefHandle = 0u;
1239:.\Generated_Source\PSoC4/BLE_eventHandler.c ****     #endif /* CYBLE_CUSTOM_CLIENT */
1240:.\Generated_Source\PSoC4/BLE_eventHandler.c ****     }
1241:.\Generated_Source\PSoC4/BLE_eventHandler.c **** #endif /* CYBLE_CUSTOM_CLIENT */
1242:.\Generated_Source\PSoC4/BLE_eventHandler.c **** #ifdef CYBLE_IPS_CLIENT
1243:.\Generated_Source\PSoC4/BLE_eventHandler.c ****     if((cyBle_eventHandlerFlag & CYBLE_CALLBACK) != 0u)
1244:.\Generated_Source\PSoC4/BLE_eventHandler.c ****     {
1245:.\Generated_Source\PSoC4/BLE_eventHandler.c ****         CyBle_IpscReadMultipleResponseEventHandler(eventParam);
1246:.\Generated_Source\PSoC4/BLE_eventHandler.c ****     }
1247:.\Generated_Source\PSoC4/BLE_eventHandler.c **** #endif /* CYBLE_IPS_CLIENT */
1248:.\Generated_Source\PSoC4/BLE_eventHandler.c ****     /* MISRA 16.7 violavion workarround */
1249:.\Generated_Source\PSoC4/BLE_eventHandler.c ****     eventParam = eventParam;
1250:.\Generated_Source\PSoC4/BLE_eventHandler.c **** }
 281              		.loc 1 1250 0
 282 0008 BD46     		mov	sp, r7
 283 000a 02B0     		add	sp, sp, #8
 284              		@ sp needed
 285 000c 80BD     		pop	{r7, pc}
 286              		.cfi_endproc
 287              	.LFE8:
 288              		.size	CyBle_ReadMultipleResponseEventHandler, .-CyBle_ReadMultipleResponseEventHandler
 289              		.section	.text.CyBle_GattDisconnectEventHandler,"ax",%progbits
ARM GAS  C:\Users\ADMINI~1\AppData\Local\Temp\ccs1OUCB.s 			page 28


 290              		.align	2
 291              		.code	16
 292              		.thumb_func
 293              		.type	CyBle_GattDisconnectEventHandler, %function
 294              	CyBle_GattDisconnectEventHandler:
 295              	.LFB9:
1251:.\Generated_Source\PSoC4/BLE_eventHandler.c **** #endif /* CYBLE_GATT_ROLE_CLIENT */
1252:.\Generated_Source\PSoC4/BLE_eventHandler.c **** 
1253:.\Generated_Source\PSoC4/BLE_eventHandler.c **** 
1254:.\Generated_Source\PSoC4/BLE_eventHandler.c **** /****************************************************************************** 
1255:.\Generated_Source\PSoC4/BLE_eventHandler.c **** * Function Name: CyBle_DisconnectEventHandler
1256:.\Generated_Source\PSoC4/BLE_eventHandler.c **** ***************************************************************************//**
1257:.\Generated_Source\PSoC4/BLE_eventHandler.c **** * 
1258:.\Generated_Source\PSoC4/BLE_eventHandler.c **** *  Handles the GATT Disconnection event from the BLE stack.
1259:.\Generated_Source\PSoC4/BLE_eventHandler.c **** * 
1260:.\Generated_Source\PSoC4/BLE_eventHandler.c **** * \return
1261:.\Generated_Source\PSoC4/BLE_eventHandler.c **** *  None
1262:.\Generated_Source\PSoC4/BLE_eventHandler.c **** * 
1263:.\Generated_Source\PSoC4/BLE_eventHandler.c **** ******************************************************************************/
1264:.\Generated_Source\PSoC4/BLE_eventHandler.c **** static void CyBle_GattDisconnectEventHandler(void)
1265:.\Generated_Source\PSoC4/BLE_eventHandler.c **** {
 296              		.loc 1 1265 0
 297              		.cfi_startproc
 298 0000 80B5     		push	{r7, lr}
 299              		.cfi_def_cfa_offset 8
 300              		.cfi_offset 7, -8
 301              		.cfi_offset 14, -4
 302 0002 00AF     		add	r7, sp, #0
 303              		.cfi_def_cfa_register 7
1266:.\Generated_Source\PSoC4/BLE_eventHandler.c ****     cyBle_connHandle.attId = 0u;
 304              		.loc 1 1266 0
 305 0004 094B     		ldr	r3, .L15
 306 0006 0022     		mov	r2, #0
 307 0008 5A70     		strb	r2, [r3, #1]
1267:.\Generated_Source\PSoC4/BLE_eventHandler.c ****     cyBle_connHandle.bdHandle = 0u;
 308              		.loc 1 1267 0
 309 000a 084B     		ldr	r3, .L15
 310 000c 0022     		mov	r2, #0
 311 000e 1A70     		strb	r2, [r3]
1268:.\Generated_Source\PSoC4/BLE_eventHandler.c ****     
1269:.\Generated_Source\PSoC4/BLE_eventHandler.c ****     #if (CYBLE_GATT_ROLE_CLIENT)
1270:.\Generated_Source\PSoC4/BLE_eventHandler.c ****         if(CYBLE_CLIENT_STATE_DISCOVERED == CyBle_GetClientState())
 312              		.loc 1 1270 0
 313 0010 074B     		ldr	r3, .L15+4
 314 0012 1B78     		ldrb	r3, [r3]
 315 0014 052B     		cmp	r3, #5
 316 0016 03D1     		bne	.L13
1271:.\Generated_Source\PSoC4/BLE_eventHandler.c ****         {
1272:.\Generated_Source\PSoC4/BLE_eventHandler.c ****             CyBle_SetClientState(CYBLE_CLIENT_STATE_DISCONNECTED_DISCOVERED);
 317              		.loc 1 1272 0
 318 0018 054B     		ldr	r3, .L15+4
 319 001a 0722     		mov	r2, #7
 320 001c 1A70     		strb	r2, [r3]
 321 001e 02E0     		b	.L12
 322              	.L13:
1273:.\Generated_Source\PSoC4/BLE_eventHandler.c ****         }
1274:.\Generated_Source\PSoC4/BLE_eventHandler.c ****         else
ARM GAS  C:\Users\ADMINI~1\AppData\Local\Temp\ccs1OUCB.s 			page 29


1275:.\Generated_Source\PSoC4/BLE_eventHandler.c ****         {
1276:.\Generated_Source\PSoC4/BLE_eventHandler.c ****             CyBle_SetClientState(CYBLE_CLIENT_STATE_DISCONNECTED);
 323              		.loc 1 1276 0
 324 0020 034B     		ldr	r3, .L15+4
 325 0022 0822     		mov	r2, #8
 326 0024 1A70     		strb	r2, [r3]
 327              	.L12:
1277:.\Generated_Source\PSoC4/BLE_eventHandler.c ****         }
1278:.\Generated_Source\PSoC4/BLE_eventHandler.c ****     #endif /* CYBLE_GATT_ROLE_CLIENT */
1279:.\Generated_Source\PSoC4/BLE_eventHandler.c ****         
1280:.\Generated_Source\PSoC4/BLE_eventHandler.c ****     #ifdef CYBLE_CPS_SERVER
1281:.\Generated_Source\PSoC4/BLE_eventHandler.c ****         #if CYBLE_GAP_ROLE_BROADCASTER
1282:.\Generated_Source\PSoC4/BLE_eventHandler.c ****             CyBle_CpssDisconnectEventHandler();
1283:.\Generated_Source\PSoC4/BLE_eventHandler.c ****         #endif /* CYBLE_GAP_ROLE_BROADCASTER */
1284:.\Generated_Source\PSoC4/BLE_eventHandler.c ****     #endif /* CYBLE_CPS_SERVER */
1285:.\Generated_Source\PSoC4/BLE_eventHandler.c **** 
1286:.\Generated_Source\PSoC4/BLE_eventHandler.c ****     #ifdef CYBLE_CPS_CLIENT
1287:.\Generated_Source\PSoC4/BLE_eventHandler.c ****         CyBle_CpscDisconnectEventHandler();
1288:.\Generated_Source\PSoC4/BLE_eventHandler.c ****     #endif /* CYBLE_CPS_CLIENT */
1289:.\Generated_Source\PSoC4/BLE_eventHandler.c **** 
1290:.\Generated_Source\PSoC4/BLE_eventHandler.c ****     #ifdef CYBLE_IAS_SERVER
1291:.\Generated_Source\PSoC4/BLE_eventHandler.c ****         CyBle_IassDisconnectEventHandler();
1292:.\Generated_Source\PSoC4/BLE_eventHandler.c ****     #endif /* CYBLE_IAS_SERVER */
1293:.\Generated_Source\PSoC4/BLE_eventHandler.c ****     
1294:.\Generated_Source\PSoC4/BLE_eventHandler.c ****     #ifdef CYBLE_GLS_SERVER
1295:.\Generated_Source\PSoC4/BLE_eventHandler.c ****         CyBle_GlsInit();
1296:.\Generated_Source\PSoC4/BLE_eventHandler.c ****     #endif /* CYBLE_GLS_SERVER */
1297:.\Generated_Source\PSoC4/BLE_eventHandler.c ****     
1298:.\Generated_Source\PSoC4/BLE_eventHandler.c ****     #ifdef CYBLE_LNS_SERVER
1299:.\Generated_Source\PSoC4/BLE_eventHandler.c ****         CyBle_LnsInit();
1300:.\Generated_Source\PSoC4/BLE_eventHandler.c ****     #endif /* CYBLE_LNS_SERVER */
1301:.\Generated_Source\PSoC4/BLE_eventHandler.c ****     
1302:.\Generated_Source\PSoC4/BLE_eventHandler.c ****     #ifdef CYBLE_UDS_SERVER
1303:.\Generated_Source\PSoC4/BLE_eventHandler.c ****         CyBle_UdsInit();
1304:.\Generated_Source\PSoC4/BLE_eventHandler.c ****     #endif /* CYBLE_UDS_SERVER */
1305:.\Generated_Source\PSoC4/BLE_eventHandler.c **** }
 328              		.loc 1 1305 0
 329 0026 BD46     		mov	sp, r7
 330              		@ sp needed
 331 0028 80BD     		pop	{r7, pc}
 332              	.L16:
 333 002a C046     		.align	2
 334              	.L15:
 335 002c 00000000 		.word	cyBle_connHandle
 336 0030 00000000 		.word	cyBle_clientState
 337              		.cfi_endproc
 338              	.LFE9:
 339              		.size	CyBle_GattDisconnectEventHandler, .-CyBle_GattDisconnectEventHandler
 340              		.section	.text.CyBle_TimeOutEventHandler,"ax",%progbits
 341              		.align	2
 342              		.code	16
 343              		.thumb_func
 344              		.type	CyBle_TimeOutEventHandler, %function
 345              	CyBle_TimeOutEventHandler:
 346              	.LFB10:
1306:.\Generated_Source\PSoC4/BLE_eventHandler.c **** 
1307:.\Generated_Source\PSoC4/BLE_eventHandler.c **** 
ARM GAS  C:\Users\ADMINI~1\AppData\Local\Temp\ccs1OUCB.s 			page 30


1308:.\Generated_Source\PSoC4/BLE_eventHandler.c **** /****************************************************************************** 
1309:.\Generated_Source\PSoC4/BLE_eventHandler.c **** * Function Name: CyBle_TimeOutEventHandler
1310:.\Generated_Source\PSoC4/BLE_eventHandler.c **** ***************************************************************************//**
1311:.\Generated_Source\PSoC4/BLE_eventHandler.c **** * 
1312:.\Generated_Source\PSoC4/BLE_eventHandler.c **** *  Handles the CYBLE_EVT_TIMEOUT event from the BLE stack.
1313:.\Generated_Source\PSoC4/BLE_eventHandler.c **** * 
1314:.\Generated_Source\PSoC4/BLE_eventHandler.c **** *  \param eventParam: The pointer to a structure of type CYBLE_TO_REASON_CODE_T.
1315:.\Generated_Source\PSoC4/BLE_eventHandler.c **** * 
1316:.\Generated_Source\PSoC4/BLE_eventHandler.c **** * \return
1317:.\Generated_Source\PSoC4/BLE_eventHandler.c **** *  None
1318:.\Generated_Source\PSoC4/BLE_eventHandler.c **** * 
1319:.\Generated_Source\PSoC4/BLE_eventHandler.c **** ******************************************************************************/
1320:.\Generated_Source\PSoC4/BLE_eventHandler.c **** static void CyBle_TimeOutEventHandler(const CYBLE_TO_REASON_CODE_T *eventParam)
1321:.\Generated_Source\PSoC4/BLE_eventHandler.c **** {
 347              		.loc 1 1321 0
 348              		.cfi_startproc
 349 0000 80B5     		push	{r7, lr}
 350              		.cfi_def_cfa_offset 8
 351              		.cfi_offset 7, -8
 352              		.cfi_offset 14, -4
 353 0002 82B0     		sub	sp, sp, #8
 354              		.cfi_def_cfa_offset 16
 355 0004 00AF     		add	r7, sp, #0
 356              		.cfi_def_cfa_register 7
 357 0006 7860     		str	r0, [r7, #4]
1322:.\Generated_Source\PSoC4/BLE_eventHandler.c ****     if(*eventParam == CYBLE_GATT_RSP_TO)
 358              		.loc 1 1322 0
 359 0008 7B68     		ldr	r3, [r7, #4]
 360 000a 1B78     		ldrb	r3, [r3]
 361 000c 032B     		cmp	r3, #3
 362 000e 3ED1     		bne	.L18
1323:.\Generated_Source\PSoC4/BLE_eventHandler.c ****     {
1324:.\Generated_Source\PSoC4/BLE_eventHandler.c ****     #if (CYBLE_GATT_ROLE_CLIENT)
1325:.\Generated_Source\PSoC4/BLE_eventHandler.c ****         if((cyBle_eventHandlerFlag & CYBLE_AUTO_DISCOVERY) != 0u)
 363              		.loc 1 1325 0
 364 0010 254B     		ldr	r3, .L27
 365 0012 1B78     		ldrb	r3, [r3]
 366 0014 DBB2     		uxtb	r3, r3
 367 0016 1A1C     		mov	r2, r3
 368 0018 0223     		mov	r3, #2
 369 001a 1340     		and	r3, r2
 370 001c 37D0     		beq	.L18
1326:.\Generated_Source\PSoC4/BLE_eventHandler.c ****         {
1327:.\Generated_Source\PSoC4/BLE_eventHandler.c ****             switch(CyBle_GetClientState())
 371              		.loc 1 1327 0
 372 001e 234B     		ldr	r3, .L27+4
 373 0020 1B78     		ldrb	r3, [r3]
 374 0022 022B     		cmp	r3, #2
 375 0024 10D0     		beq	.L20
 376 0026 02DC     		bgt	.L21
 377 0028 012B     		cmp	r3, #1
 378 002a 05D0     		beq	.L22
1328:.\Generated_Source\PSoC4/BLE_eventHandler.c ****             {
1329:.\Generated_Source\PSoC4/BLE_eventHandler.c ****                 case CYBLE_CLIENT_STATE_SRVC_DISCOVERING:
1330:.\Generated_Source\PSoC4/BLE_eventHandler.c ****                     CyBle_ApplCallback(CYBLE_EVT_GATTC_SRVC_DISCOVERY_FAILED, NULL);
1331:.\Generated_Source\PSoC4/BLE_eventHandler.c ****                     break;
1332:.\Generated_Source\PSoC4/BLE_eventHandler.c ****                 case CYBLE_CLIENT_STATE_INCL_DISCOVERING:
ARM GAS  C:\Users\ADMINI~1\AppData\Local\Temp\ccs1OUCB.s 			page 31


1333:.\Generated_Source\PSoC4/BLE_eventHandler.c ****                     CyBle_ApplCallback(CYBLE_EVT_GATTC_INCL_DISCOVERY_FAILED, NULL);
1334:.\Generated_Source\PSoC4/BLE_eventHandler.c ****                     break;
1335:.\Generated_Source\PSoC4/BLE_eventHandler.c ****                 case CYBLE_CLIENT_STATE_CHAR_DISCOVERING:
1336:.\Generated_Source\PSoC4/BLE_eventHandler.c ****                     CyBle_ApplCallback(CYBLE_EVT_GATTC_CHAR_DISCOVERY_FAILED, NULL);
1337:.\Generated_Source\PSoC4/BLE_eventHandler.c ****                     break;
1338:.\Generated_Source\PSoC4/BLE_eventHandler.c ****                 case CYBLE_CLIENT_STATE_DESCR_DISCOVERING:
1339:.\Generated_Source\PSoC4/BLE_eventHandler.c ****                     CyBle_ApplCallback(CYBLE_EVT_GATTC_DESCR_DISCOVERY_FAILED, NULL);
1340:.\Generated_Source\PSoC4/BLE_eventHandler.c ****                     break;
1341:.\Generated_Source\PSoC4/BLE_eventHandler.c ****                 default:        /* Other states should not be set in Auto discovery mode */
1342:.\Generated_Source\PSoC4/BLE_eventHandler.c ****                     break;
 379              		.loc 1 1342 0
 380 002c 24E0     		b	.L25
 381              	.L21:
1327:.\Generated_Source\PSoC4/BLE_eventHandler.c ****             {
 382              		.loc 1 1327 0
 383 002e 032B     		cmp	r3, #3
 384 0030 12D0     		beq	.L23
 385 0032 042B     		cmp	r3, #4
 386 0034 18D0     		beq	.L24
 387              		.loc 1 1342 0
 388 0036 1FE0     		b	.L25
 389              	.L22:
1330:.\Generated_Source\PSoC4/BLE_eventHandler.c ****                     break;
 390              		.loc 1 1330 0
 391 0038 1D4B     		ldr	r3, .L27+8
 392 003a 1B68     		ldr	r3, [r3]
 393 003c 0822     		mov	r2, #8
 394 003e FF32     		add	r2, r2, #255
 395 0040 101C     		mov	r0, r2
 396 0042 0021     		mov	r1, #0
 397 0044 9847     		blx	r3
1331:.\Generated_Source\PSoC4/BLE_eventHandler.c ****                 case CYBLE_CLIENT_STATE_INCL_DISCOVERING:
 398              		.loc 1 1331 0
 399 0046 17E0     		b	.L25
 400              	.L20:
1333:.\Generated_Source\PSoC4/BLE_eventHandler.c ****                     break;
 401              		.loc 1 1333 0
 402 0048 194B     		ldr	r3, .L27+8
 403 004a 1B68     		ldr	r3, [r3]
 404 004c 8422     		mov	r2, #132
 405 004e 5200     		lsl	r2, r2, #1
 406 0050 101C     		mov	r0, r2
 407 0052 0021     		mov	r1, #0
 408 0054 9847     		blx	r3
1334:.\Generated_Source\PSoC4/BLE_eventHandler.c ****                 case CYBLE_CLIENT_STATE_CHAR_DISCOVERING:
 409              		.loc 1 1334 0
 410 0056 0FE0     		b	.L25
 411              	.L23:
1336:.\Generated_Source\PSoC4/BLE_eventHandler.c ****                     break;
 412              		.loc 1 1336 0
 413 0058 154B     		ldr	r3, .L27+8
 414 005a 1B68     		ldr	r3, [r3]
 415 005c 0A22     		mov	r2, #10
 416 005e FF32     		add	r2, r2, #255
 417 0060 101C     		mov	r0, r2
 418 0062 0021     		mov	r1, #0
 419 0064 9847     		blx	r3
ARM GAS  C:\Users\ADMINI~1\AppData\Local\Temp\ccs1OUCB.s 			page 32


1337:.\Generated_Source\PSoC4/BLE_eventHandler.c ****                 case CYBLE_CLIENT_STATE_DESCR_DISCOVERING:
 420              		.loc 1 1337 0
 421 0066 07E0     		b	.L25
 422              	.L24:
1339:.\Generated_Source\PSoC4/BLE_eventHandler.c ****                     break;
 423              		.loc 1 1339 0
 424 0068 114B     		ldr	r3, .L27+8
 425 006a 1B68     		ldr	r3, [r3]
 426 006c 8522     		mov	r2, #133
 427 006e 5200     		lsl	r2, r2, #1
 428 0070 101C     		mov	r0, r2
 429 0072 0021     		mov	r1, #0
 430 0074 9847     		blx	r3
1340:.\Generated_Source\PSoC4/BLE_eventHandler.c ****                 default:        /* Other states should not be set in Auto discovery mode */
 431              		.loc 1 1340 0
 432 0076 C046     		mov	r8, r8
 433              	.L25:
1343:.\Generated_Source\PSoC4/BLE_eventHandler.c ****             }
1344:.\Generated_Source\PSoC4/BLE_eventHandler.c ****             cyBle_eventHandlerFlag &= (uint8)~CYBLE_AUTO_DISCOVERY;
 434              		.loc 1 1344 0
 435 0078 0B4B     		ldr	r3, .L27
 436 007a 1B78     		ldrb	r3, [r3]
 437 007c DBB2     		uxtb	r3, r3
 438 007e 0222     		mov	r2, #2
 439 0080 9343     		bic	r3, r2
 440 0082 DAB2     		uxtb	r2, r3
 441 0084 084B     		ldr	r3, .L27
 442 0086 1A70     		strb	r2, [r3]
1345:.\Generated_Source\PSoC4/BLE_eventHandler.c ****             CyBle_SetClientState(CYBLE_CLIENT_STATE_CONNECTED);
 443              		.loc 1 1345 0
 444 0088 084B     		ldr	r3, .L27+4
 445 008a 0022     		mov	r2, #0
 446 008c 1A70     		strb	r2, [r3]
 447              	.L18:
1346:.\Generated_Source\PSoC4/BLE_eventHandler.c ****         }
1347:.\Generated_Source\PSoC4/BLE_eventHandler.c ****     #endif /* CYBLE_GATT_ROLE_CLIENT */
1348:.\Generated_Source\PSoC4/BLE_eventHandler.c ****     #ifdef CYBLE_CPS_SERVER
1349:.\Generated_Source\PSoC4/BLE_eventHandler.c ****         CyBle_CpssTimeOutEventHandler();
1350:.\Generated_Source\PSoC4/BLE_eventHandler.c ****     #endif /* CYBLE_CPS_SERVER */
1351:.\Generated_Source\PSoC4/BLE_eventHandler.c ****     }
1352:.\Generated_Source\PSoC4/BLE_eventHandler.c ****     
1353:.\Generated_Source\PSoC4/BLE_eventHandler.c ****     /* Connection procedure timeout */
1354:.\Generated_Source\PSoC4/BLE_eventHandler.c ****     if(*eventParam == CYBLE_GENERIC_TO)
 448              		.loc 1 1354 0
 449 008e 7B68     		ldr	r3, [r7, #4]
 450 0090 1B78     		ldrb	r3, [r3]
 451 0092 042B     		cmp	r3, #4
 452 0094 05D1     		bne	.L17
1355:.\Generated_Source\PSoC4/BLE_eventHandler.c ****     {
1356:.\Generated_Source\PSoC4/BLE_eventHandler.c ****     #if(CYBLE_GAP_ROLE_CENTRAL)
1357:.\Generated_Source\PSoC4/BLE_eventHandler.c ****         if(CYBLE_STATE_CONNECTING == CyBle_GetState())
 453              		.loc 1 1357 0
 454 0096 074B     		ldr	r3, .L27+12
 455 0098 1B78     		ldrb	r3, [r3]
 456 009a 042B     		cmp	r3, #4
 457 009c 01D1     		bne	.L17
1358:.\Generated_Source\PSoC4/BLE_eventHandler.c ****         {
ARM GAS  C:\Users\ADMINI~1\AppData\Local\Temp\ccs1OUCB.s 			page 33


1359:.\Generated_Source\PSoC4/BLE_eventHandler.c ****             (void)CyBle_GapcCancelDeviceConnection();
 458              		.loc 1 1359 0
 459 009e FFF7FEFF 		bl	CyBle_GapcCancelDeviceConnection
 460              	.L17:
1360:.\Generated_Source\PSoC4/BLE_eventHandler.c ****         }
1361:.\Generated_Source\PSoC4/BLE_eventHandler.c ****     #endif /* CYBLE_GAP_ROLE_CENTRAL */
1362:.\Generated_Source\PSoC4/BLE_eventHandler.c ****     }
1363:.\Generated_Source\PSoC4/BLE_eventHandler.c **** }
 461              		.loc 1 1363 0
 462 00a2 BD46     		mov	sp, r7
 463 00a4 02B0     		add	sp, sp, #8
 464              		@ sp needed
 465 00a6 80BD     		pop	{r7, pc}
 466              	.L28:
 467              		.align	2
 468              	.L27:
 469 00a8 00000000 		.word	cyBle_eventHandlerFlag
 470 00ac 00000000 		.word	cyBle_clientState
 471 00b0 00000000 		.word	CyBle_ApplCallback
 472 00b4 00000000 		.word	cyBle_state
 473              		.cfi_endproc
 474              	.LFE10:
 475              		.size	CyBle_TimeOutEventHandler, .-CyBle_TimeOutEventHandler
 476              		.section	.text.CyBle_GattConnectReqHandler,"ax",%progbits
 477              		.align	2
 478              		.code	16
 479              		.thumb_func
 480              		.type	CyBle_GattConnectReqHandler, %function
 481              	CyBle_GattConnectReqHandler:
 482              	.LFB11:
1364:.\Generated_Source\PSoC4/BLE_eventHandler.c **** 
1365:.\Generated_Source\PSoC4/BLE_eventHandler.c **** 
1366:.\Generated_Source\PSoC4/BLE_eventHandler.c **** /****************************************************************************** 
1367:.\Generated_Source\PSoC4/BLE_eventHandler.c **** * Function Name: CyBle_GattConnectReqHandler
1368:.\Generated_Source\PSoC4/BLE_eventHandler.c **** ***************************************************************************//**
1369:.\Generated_Source\PSoC4/BLE_eventHandler.c **** * 
1370:.\Generated_Source\PSoC4/BLE_eventHandler.c **** *  Handles the GATT connect event from the BLE stack.
1371:.\Generated_Source\PSoC4/BLE_eventHandler.c **** * 
1372:.\Generated_Source\PSoC4/BLE_eventHandler.c **** * \return
1373:.\Generated_Source\PSoC4/BLE_eventHandler.c **** *  None
1374:.\Generated_Source\PSoC4/BLE_eventHandler.c **** * 
1375:.\Generated_Source\PSoC4/BLE_eventHandler.c **** ******************************************************************************/
1376:.\Generated_Source\PSoC4/BLE_eventHandler.c **** static void CyBle_GattConnectReqHandler(void)
1377:.\Generated_Source\PSoC4/BLE_eventHandler.c **** {
 483              		.loc 1 1377 0
 484              		.cfi_startproc
 485 0000 80B5     		push	{r7, lr}
 486              		.cfi_def_cfa_offset 8
 487              		.cfi_offset 7, -8
 488              		.cfi_offset 14, -4
 489 0002 00AF     		add	r7, sp, #0
 490              		.cfi_def_cfa_register 7
1378:.\Generated_Source\PSoC4/BLE_eventHandler.c ****     #ifdef CYBLE_CGMS_SERVER
1379:.\Generated_Source\PSoC4/BLE_eventHandler.c ****         CyBle_CgmsInit();
1380:.\Generated_Source\PSoC4/BLE_eventHandler.c ****     #endif /* CYBLE_CGMS_SERVER */
1381:.\Generated_Source\PSoC4/BLE_eventHandler.c ****     
1382:.\Generated_Source\PSoC4/BLE_eventHandler.c ****     #ifdef CYBLE_CPS_SERVER
ARM GAS  C:\Users\ADMINI~1\AppData\Local\Temp\ccs1OUCB.s 			page 34


1383:.\Generated_Source\PSoC4/BLE_eventHandler.c ****         CyBle_CpssConnectEventHandler();
1384:.\Generated_Source\PSoC4/BLE_eventHandler.c ****     #endif /* CYBLE_CPS_SERVER */
1385:.\Generated_Source\PSoC4/BLE_eventHandler.c ****     
1386:.\Generated_Source\PSoC4/BLE_eventHandler.c ****     #ifdef CYBLE_CSCS_SERVER
1387:.\Generated_Source\PSoC4/BLE_eventHandler.c ****             CyBle_CscsInit();
1388:.\Generated_Source\PSoC4/BLE_eventHandler.c ****     #endif /* CYBLE_CSCS_SERVER */
1389:.\Generated_Source\PSoC4/BLE_eventHandler.c ****     
1390:.\Generated_Source\PSoC4/BLE_eventHandler.c ****     #ifdef CYBLE_LLS_SERVER
1391:.\Generated_Source\PSoC4/BLE_eventHandler.c ****         CyBle_LlssConnectEventHandler();
1392:.\Generated_Source\PSoC4/BLE_eventHandler.c ****     #endif /* CYBLE_LLS_SERVER */
1393:.\Generated_Source\PSoC4/BLE_eventHandler.c ****     
1394:.\Generated_Source\PSoC4/BLE_eventHandler.c ****     #ifdef CYBLE_HIDS_SERVER
1395:.\Generated_Source\PSoC4/BLE_eventHandler.c ****         CyBle_HidssOnDeviceConnected();
1396:.\Generated_Source\PSoC4/BLE_eventHandler.c ****     #endif /* CYBLE_HIDS_SERVER */
1397:.\Generated_Source\PSoC4/BLE_eventHandler.c **** 
1398:.\Generated_Source\PSoC4/BLE_eventHandler.c ****     #ifdef CYBLE_RSCS_SERVER
1399:.\Generated_Source\PSoC4/BLE_eventHandler.c ****         CyBle_RscsInit();
1400:.\Generated_Source\PSoC4/BLE_eventHandler.c ****     #endif /* CYBLE_RSCS_SERVER */
1401:.\Generated_Source\PSoC4/BLE_eventHandler.c **** }
 491              		.loc 1 1401 0
 492 0004 BD46     		mov	sp, r7
 493              		@ sp needed
 494 0006 80BD     		pop	{r7, pc}
 495              		.cfi_endproc
 496              	.LFE11:
 497              		.size	CyBle_GattConnectReqHandler, .-CyBle_GattConnectReqHandler
 498              		.section	.text.CyBle_IsDeviceAddressValid,"ax",%progbits
 499              		.align	2
 500              		.global	CyBle_IsDeviceAddressValid
 501              		.code	16
 502              		.thumb_func
 503              		.type	CyBle_IsDeviceAddressValid, %function
 504              	CyBle_IsDeviceAddressValid:
 505              	.LFB12:
1402:.\Generated_Source\PSoC4/BLE_eventHandler.c **** 
1403:.\Generated_Source\PSoC4/BLE_eventHandler.c **** 
1404:.\Generated_Source\PSoC4/BLE_eventHandler.c **** #if (CYBLE_GATT_ROLE_SERVER || CYBLE_GATT_ROLE_CLIENT)
1405:.\Generated_Source\PSoC4/BLE_eventHandler.c **** 
1406:.\Generated_Source\PSoC4/BLE_eventHandler.c **** /****************************************************************************** 
1407:.\Generated_Source\PSoC4/BLE_eventHandler.c **** * Function Name: CyBle_IsDeviceAddressValid
1408:.\Generated_Source\PSoC4/BLE_eventHandler.c **** ***************************************************************************//**
1409:.\Generated_Source\PSoC4/BLE_eventHandler.c **** * 
1410:.\Generated_Source\PSoC4/BLE_eventHandler.c **** *  This function verifies that BLE public address has been programmed to SFLASH 
1411:.\Generated_Source\PSoC4/BLE_eventHandler.c **** *  during manufacture. It could be used to verify if public device address is 
1412:.\Generated_Source\PSoC4/BLE_eventHandler.c **** *  programmed to flash memory.
1413:.\Generated_Source\PSoC4/BLE_eventHandler.c **** * 
1414:.\Generated_Source\PSoC4/BLE_eventHandler.c **** *  \param deviceAddress: the pointer to the BD address of type CYBLE_GAP_BD_ADDR_T. 
1415:.\Generated_Source\PSoC4/BLE_eventHandler.c **** * 
1416:.\Generated_Source\PSoC4/BLE_eventHandler.c **** * \return
1417:.\Generated_Source\PSoC4/BLE_eventHandler.c **** *  Non zero value when a device address differs from the default SFLASH content.
1418:.\Generated_Source\PSoC4/BLE_eventHandler.c **** * 
1419:.\Generated_Source\PSoC4/BLE_eventHandler.c **** ******************************************************************************/
1420:.\Generated_Source\PSoC4/BLE_eventHandler.c **** uint8 CyBle_IsDeviceAddressValid(const CYBLE_GAP_BD_ADDR_T *deviceAddress)
1421:.\Generated_Source\PSoC4/BLE_eventHandler.c **** {
 506              		.loc 1 1421 0
 507              		.cfi_startproc
 508 0000 80B5     		push	{r7, lr}
ARM GAS  C:\Users\ADMINI~1\AppData\Local\Temp\ccs1OUCB.s 			page 35


 509              		.cfi_def_cfa_offset 8
 510              		.cfi_offset 7, -8
 511              		.cfi_offset 14, -4
 512 0002 84B0     		sub	sp, sp, #16
 513              		.cfi_def_cfa_offset 24
 514 0004 00AF     		add	r7, sp, #0
 515              		.cfi_def_cfa_register 7
 516 0006 7860     		str	r0, [r7, #4]
1422:.\Generated_Source\PSoC4/BLE_eventHandler.c ****     uint8 i;
1423:.\Generated_Source\PSoC4/BLE_eventHandler.c ****     uint8 addressValid = 0u;
 517              		.loc 1 1423 0
 518 0008 0E23     		mov	r3, #14
 519 000a FB18     		add	r3, r7, r3
 520 000c 0022     		mov	r2, #0
 521 000e 1A70     		strb	r2, [r3]
1424:.\Generated_Source\PSoC4/BLE_eventHandler.c ****     
1425:.\Generated_Source\PSoC4/BLE_eventHandler.c ****     if(deviceAddress -> type == CYBLE_GAP_ADDR_TYPE_PUBLIC)  
 522              		.loc 1 1425 0
 523 0010 7B68     		ldr	r3, [r7, #4]
 524 0012 9B79     		ldrb	r3, [r3, #6]
 525 0014 002B     		cmp	r3, #0
 526 0016 1CD1     		bne	.L31
1426:.\Generated_Source\PSoC4/BLE_eventHandler.c ****     {
1427:.\Generated_Source\PSoC4/BLE_eventHandler.c ****         for(i = 0u; i < CYBLE_GAP_BD_ADDR_SIZE; i++)
 527              		.loc 1 1427 0
 528 0018 0F23     		mov	r3, #15
 529 001a FB18     		add	r3, r7, r3
 530 001c 0022     		mov	r2, #0
 531 001e 1A70     		strb	r2, [r3]
 532 0020 12E0     		b	.L32
 533              	.L34:
1428:.\Generated_Source\PSoC4/BLE_eventHandler.c ****         {
1429:.\Generated_Source\PSoC4/BLE_eventHandler.c ****             if(deviceAddress->bdAddr[i] != 0u)
 534              		.loc 1 1429 0
 535 0022 0F23     		mov	r3, #15
 536 0024 FB18     		add	r3, r7, r3
 537 0026 1B78     		ldrb	r3, [r3]
 538 0028 7A68     		ldr	r2, [r7, #4]
 539 002a D35C     		ldrb	r3, [r2, r3]
 540 002c 002B     		cmp	r3, #0
 541 002e 04D0     		beq	.L33
1430:.\Generated_Source\PSoC4/BLE_eventHandler.c ****             {
1431:.\Generated_Source\PSoC4/BLE_eventHandler.c ****                 addressValid = 1u;
 542              		.loc 1 1431 0
 543 0030 0E23     		mov	r3, #14
 544 0032 FB18     		add	r3, r7, r3
 545 0034 0122     		mov	r2, #1
 546 0036 1A70     		strb	r2, [r3]
1432:.\Generated_Source\PSoC4/BLE_eventHandler.c ****                 break;
 547              		.loc 1 1432 0
 548 0038 0BE0     		b	.L31
 549              	.L33:
1427:.\Generated_Source\PSoC4/BLE_eventHandler.c ****         {
 550              		.loc 1 1427 0 discriminator 2
 551 003a 0F23     		mov	r3, #15
 552 003c FB18     		add	r3, r7, r3
 553 003e 1A78     		ldrb	r2, [r3]
ARM GAS  C:\Users\ADMINI~1\AppData\Local\Temp\ccs1OUCB.s 			page 36


 554 0040 0F23     		mov	r3, #15
 555 0042 FB18     		add	r3, r7, r3
 556 0044 0132     		add	r2, r2, #1
 557 0046 1A70     		strb	r2, [r3]
 558              	.L32:
1427:.\Generated_Source\PSoC4/BLE_eventHandler.c ****         {
 559              		.loc 1 1427 0 is_stmt 0 discriminator 1
 560 0048 0F23     		mov	r3, #15
 561 004a FB18     		add	r3, r7, r3
 562 004c 1B78     		ldrb	r3, [r3]
 563 004e 052B     		cmp	r3, #5
 564 0050 E7D9     		bls	.L34
 565              	.L31:
1433:.\Generated_Source\PSoC4/BLE_eventHandler.c ****             }
1434:.\Generated_Source\PSoC4/BLE_eventHandler.c ****         }
1435:.\Generated_Source\PSoC4/BLE_eventHandler.c ****     }
1436:.\Generated_Source\PSoC4/BLE_eventHandler.c ****     return (addressValid);
 566              		.loc 1 1436 0 is_stmt 1
 567 0052 0E23     		mov	r3, #14
 568 0054 FB18     		add	r3, r7, r3
 569 0056 1B78     		ldrb	r3, [r3]
1437:.\Generated_Source\PSoC4/BLE_eventHandler.c **** }
 570              		.loc 1 1437 0
 571 0058 181C     		mov	r0, r3
 572 005a BD46     		mov	sp, r7
 573 005c 04B0     		add	sp, sp, #16
 574              		@ sp needed
 575 005e 80BD     		pop	{r7, pc}
 576              		.cfi_endproc
 577              	.LFE12:
 578              		.size	CyBle_IsDeviceAddressValid, .-CyBle_IsDeviceAddressValid
 579              		.section	.text.CyBle_L2Cap_ConnParamUpdateRspEventHandler,"ax",%progbits
 580              		.align	2
 581              		.code	16
 582              		.thumb_func
 583              		.type	CyBle_L2Cap_ConnParamUpdateRspEventHandler, %function
 584              	CyBle_L2Cap_ConnParamUpdateRspEventHandler:
 585              	.LFB13:
1438:.\Generated_Source\PSoC4/BLE_eventHandler.c **** #endif /* CYBLE_GATT_ROLE_SERVER || CYBLE_GATT_ROLE_CLIENT */
1439:.\Generated_Source\PSoC4/BLE_eventHandler.c **** 
1440:.\Generated_Source\PSoC4/BLE_eventHandler.c **** 
1441:.\Generated_Source\PSoC4/BLE_eventHandler.c **** /****************************************************************************** 
1442:.\Generated_Source\PSoC4/BLE_eventHandler.c **** * Function Name: CyBle_L2Cap_ConnParamUpdateRspHandler
1443:.\Generated_Source\PSoC4/BLE_eventHandler.c **** ***************************************************************************//**
1444:.\Generated_Source\PSoC4/BLE_eventHandler.c **** * 
1445:.\Generated_Source\PSoC4/BLE_eventHandler.c **** *  Handles the L2CAP connection parameter response event from
1446:.\Generated_Source\PSoC4/BLE_eventHandler.c **** *  the BLE stack.
1447:.\Generated_Source\PSoC4/BLE_eventHandler.c **** * 
1448:.\Generated_Source\PSoC4/BLE_eventHandler.c **** *  \param response:
1449:.\Generated_Source\PSoC4/BLE_eventHandler.c **** *      * Accepted = 0x0000
1450:.\Generated_Source\PSoC4/BLE_eventHandler.c **** *      * Rejected = 0x0001
1451:.\Generated_Source\PSoC4/BLE_eventHandler.c **** * 
1452:.\Generated_Source\PSoC4/BLE_eventHandler.c **** * \return
1453:.\Generated_Source\PSoC4/BLE_eventHandler.c **** *  None
1454:.\Generated_Source\PSoC4/BLE_eventHandler.c **** * 
1455:.\Generated_Source\PSoC4/BLE_eventHandler.c **** ******************************************************************************/
1456:.\Generated_Source\PSoC4/BLE_eventHandler.c **** static void CyBle_L2Cap_ConnParamUpdateRspEventHandler(uint16 response)
ARM GAS  C:\Users\ADMINI~1\AppData\Local\Temp\ccs1OUCB.s 			page 37


1457:.\Generated_Source\PSoC4/BLE_eventHandler.c **** {
 586              		.loc 1 1457 0
 587              		.cfi_startproc
 588 0000 80B5     		push	{r7, lr}
 589              		.cfi_def_cfa_offset 8
 590              		.cfi_offset 7, -8
 591              		.cfi_offset 14, -4
 592 0002 82B0     		sub	sp, sp, #8
 593              		.cfi_def_cfa_offset 16
 594 0004 00AF     		add	r7, sp, #0
 595              		.cfi_def_cfa_register 7
 596 0006 021C     		mov	r2, r0
 597 0008 BB1D     		add	r3, r7, #6
 598 000a 1A80     		strh	r2, [r3]
1458:.\Generated_Source\PSoC4/BLE_eventHandler.c ****     #ifdef CYBLE_CPS_SERVER
1459:.\Generated_Source\PSoC4/BLE_eventHandler.c ****         CyBle_CpssConnParamUpdateRspEventHandler(response);
1460:.\Generated_Source\PSoC4/BLE_eventHandler.c ****     #endif /* CYBLE_CPS_SERVER */
1461:.\Generated_Source\PSoC4/BLE_eventHandler.c ****     
1462:.\Generated_Source\PSoC4/BLE_eventHandler.c ****     /* Unreferenced variable warning workaround */
1463:.\Generated_Source\PSoC4/BLE_eventHandler.c ****     if(response != 0u)
1464:.\Generated_Source\PSoC4/BLE_eventHandler.c ****     {
1465:.\Generated_Source\PSoC4/BLE_eventHandler.c ****     }
1466:.\Generated_Source\PSoC4/BLE_eventHandler.c **** }
 599              		.loc 1 1466 0
 600 000c BD46     		mov	sp, r7
 601 000e 02B0     		add	sp, sp, #8
 602              		@ sp needed
 603 0010 80BD     		pop	{r7, pc}
 604              		.cfi_endproc
 605              	.LFE13:
 606              		.size	CyBle_L2Cap_ConnParamUpdateRspEventHandler, .-CyBle_L2Cap_ConnParamUpdateRspEventHandler
 607 0012 C046     		.section	.text.CyBle_GapConnUpdateCompleteEventHandler,"ax",%progbits
 608              		.align	2
 609              		.code	16
 610              		.thumb_func
 611              		.type	CyBle_GapConnUpdateCompleteEventHandler, %function
 612              	CyBle_GapConnUpdateCompleteEventHandler:
 613              	.LFB14:
1467:.\Generated_Source\PSoC4/BLE_eventHandler.c **** 
1468:.\Generated_Source\PSoC4/BLE_eventHandler.c **** 
1469:.\Generated_Source\PSoC4/BLE_eventHandler.c **** /****************************************************************************** 
1470:.\Generated_Source\PSoC4/BLE_eventHandler.c **** * Function Name: CyBle_GapConnUpdateCompleteEventHandler
1471:.\Generated_Source\PSoC4/BLE_eventHandler.c **** ***************************************************************************//**
1472:.\Generated_Source\PSoC4/BLE_eventHandler.c **** * 
1473:.\Generated_Source\PSoC4/BLE_eventHandler.c **** *  Handles the CYBLE_EVT_GAP_CONNECTION_UPDATE_COMPLETE event from
1474:.\Generated_Source\PSoC4/BLE_eventHandler.c **** *  the BLE stack.
1475:.\Generated_Source\PSoC4/BLE_eventHandler.c **** * 
1476:.\Generated_Source\PSoC4/BLE_eventHandler.c **** *  \param eventParam: The pointer to the data structure specified by the event.
1477:.\Generated_Source\PSoC4/BLE_eventHandler.c **** * 
1478:.\Generated_Source\PSoC4/BLE_eventHandler.c **** * \return
1479:.\Generated_Source\PSoC4/BLE_eventHandler.c **** *  None
1480:.\Generated_Source\PSoC4/BLE_eventHandler.c **** * 
1481:.\Generated_Source\PSoC4/BLE_eventHandler.c **** ******************************************************************************/
1482:.\Generated_Source\PSoC4/BLE_eventHandler.c **** static void CyBle_GapConnUpdateCompleteEventHandler(const CYBLE_GAP_CONN_PARAM_UPDATED_IN_CONTROLLE
1483:.\Generated_Source\PSoC4/BLE_eventHandler.c **** {
 614              		.loc 1 1483 0
 615              		.cfi_startproc
ARM GAS  C:\Users\ADMINI~1\AppData\Local\Temp\ccs1OUCB.s 			page 38


 616 0000 80B5     		push	{r7, lr}
 617              		.cfi_def_cfa_offset 8
 618              		.cfi_offset 7, -8
 619              		.cfi_offset 14, -4
 620 0002 82B0     		sub	sp, sp, #8
 621              		.cfi_def_cfa_offset 16
 622 0004 00AF     		add	r7, sp, #0
 623              		.cfi_def_cfa_register 7
 624 0006 7860     		str	r0, [r7, #4]
1484:.\Generated_Source\PSoC4/BLE_eventHandler.c ****     #ifdef CYBLE_CPS_SERVER
1485:.\Generated_Source\PSoC4/BLE_eventHandler.c ****         CyBle_CpssConnUpdateCompleteEventHandler(eventParam);
1486:.\Generated_Source\PSoC4/BLE_eventHandler.c ****     #endif /* CYBLE_CPS_SERVER */
1487:.\Generated_Source\PSoC4/BLE_eventHandler.c ****     
1488:.\Generated_Source\PSoC4/BLE_eventHandler.c ****     /* Unreferenced variable warning workaround */
1489:.\Generated_Source\PSoC4/BLE_eventHandler.c ****     if(eventParam != 0u)
1490:.\Generated_Source\PSoC4/BLE_eventHandler.c ****     {
1491:.\Generated_Source\PSoC4/BLE_eventHandler.c ****     }
1492:.\Generated_Source\PSoC4/BLE_eventHandler.c **** }
 625              		.loc 1 1492 0
 626 0008 BD46     		mov	sp, r7
 627 000a 02B0     		add	sp, sp, #8
 628              		@ sp needed
 629 000c 80BD     		pop	{r7, pc}
 630              		.cfi_endproc
 631              	.LFE14:
 632              		.size	CyBle_GapConnUpdateCompleteEventHandler, .-CyBle_GapConnUpdateCompleteEventHandler
 633              		.section	.text.CyBle_EventHandler,"ax",%progbits
 634              		.align	2
 635              		.global	CyBle_EventHandler
 636              		.code	16
 637              		.thumb_func
 638              		.type	CyBle_EventHandler, %function
 639              	CyBle_EventHandler:
 640              	.LFB15:
1493:.\Generated_Source\PSoC4/BLE_eventHandler.c **** 
1494:.\Generated_Source\PSoC4/BLE_eventHandler.c **** 
1495:.\Generated_Source\PSoC4/BLE_eventHandler.c **** /****************************************************************************** 
1496:.\Generated_Source\PSoC4/BLE_eventHandler.c **** * Function Name: CyBle_EventHandler
1497:.\Generated_Source\PSoC4/BLE_eventHandler.c **** ***************************************************************************//**
1498:.\Generated_Source\PSoC4/BLE_eventHandler.c **** * 
1499:.\Generated_Source\PSoC4/BLE_eventHandler.c **** *  Handles the events from the BLE stack
1500:.\Generated_Source\PSoC4/BLE_eventHandler.c **** * 
1501:.\Generated_Source\PSoC4/BLE_eventHandler.c **** *  \param eventCode:    the event code
1502:.\Generated_Source\PSoC4/BLE_eventHandler.c **** *  \param eventParam:  the event parameters
1503:.\Generated_Source\PSoC4/BLE_eventHandler.c **** * 
1504:.\Generated_Source\PSoC4/BLE_eventHandler.c **** * \return
1505:.\Generated_Source\PSoC4/BLE_eventHandler.c **** *  None.
1506:.\Generated_Source\PSoC4/BLE_eventHandler.c **** * 
1507:.\Generated_Source\PSoC4/BLE_eventHandler.c **** ******************************************************************************/
1508:.\Generated_Source\PSoC4/BLE_eventHandler.c **** void CyBle_EventHandler(uint8 eventCode, void *eventParam)
1509:.\Generated_Source\PSoC4/BLE_eventHandler.c **** {
 641              		.loc 1 1509 0
 642              		.cfi_startproc
 643 0000 80B5     		push	{r7, lr}
 644              		.cfi_def_cfa_offset 8
 645              		.cfi_offset 7, -8
 646              		.cfi_offset 14, -4
ARM GAS  C:\Users\ADMINI~1\AppData\Local\Temp\ccs1OUCB.s 			page 39


 647 0002 88B0     		sub	sp, sp, #32
 648              		.cfi_def_cfa_offset 40
 649 0004 00AF     		add	r7, sp, #0
 650              		.cfi_def_cfa_register 7
 651 0006 021C     		mov	r2, r0
 652 0008 3960     		str	r1, [r7]
 653 000a FB1D     		add	r3, r7, #7
 654 000c 1A70     		strb	r2, [r3]
1510:.\Generated_Source\PSoC4/BLE_eventHandler.c ****     cyBle_eventHandlerFlag |= CYBLE_CALLBACK;
 655              		.loc 1 1510 0
 656 000e D64B     		ldr	r3, .L91
 657 0010 1B78     		ldrb	r3, [r3]
 658 0012 DBB2     		uxtb	r3, r3
 659 0014 0122     		mov	r2, #1
 660 0016 1343     		orr	r3, r2
 661 0018 DAB2     		uxtb	r2, r3
 662 001a D34B     		ldr	r3, .L91
 663 001c 1A70     		strb	r2, [r3]
1511:.\Generated_Source\PSoC4/BLE_eventHandler.c **** 
1512:.\Generated_Source\PSoC4/BLE_eventHandler.c ****     /* Common Profile event handling */
1513:.\Generated_Source\PSoC4/BLE_eventHandler.c ****     switch(eventCode)
 664              		.loc 1 1513 0
 665 001e FB1D     		add	r3, r7, #7
 666 0020 1B78     		ldrb	r3, [r3]
 667 0022 FA2B     		cmp	r3, #250
 668 0024 00D9     		bls	.LCB564
 669 0026 C7E1     		b	.L90	@long jump
 670              	.LCB564:
 671 0028 9A00     		lsl	r2, r3, #2
 672 002a D04B     		ldr	r3, .L91+4
 673 002c D318     		add	r3, r2, r3
 674 002e 1B68     		ldr	r3, [r3]
 675 0030 9F46     		mov	pc, r3
 676              		.section	.rodata
 677              		.align	2
 678              	.L41:
 679 0000 B8030000 		.word	.L90
 680 0004 32000000 		.word	.L40
 681 0008 02010000 		.word	.L42
 682 000c B8030000 		.word	.L90
 683 0010 B8030000 		.word	.L90
 684 0014 0C010000 		.word	.L43
 685 0018 16010000 		.word	.L44
 686 001c B8030000 		.word	.L90
 687 0020 B8030000 		.word	.L90
 688 0024 B8030000 		.word	.L90
 689 0028 B8030000 		.word	.L90
 690 002c B8030000 		.word	.L90
 691 0030 B8030000 		.word	.L90
 692 0034 B8030000 		.word	.L90
 693 0038 B8030000 		.word	.L90
 694 003c B8030000 		.word	.L90
 695 0040 B8030000 		.word	.L90
 696 0044 B8030000 		.word	.L90
 697 0048 B8030000 		.word	.L90
 698 004c B8030000 		.word	.L90
 699 0050 B8030000 		.word	.L90
ARM GAS  C:\Users\ADMINI~1\AppData\Local\Temp\ccs1OUCB.s 			page 40


 700 0054 B8030000 		.word	.L90
 701 0058 B8030000 		.word	.L90
 702 005c B8030000 		.word	.L90
 703 0060 B8030000 		.word	.L90
 704 0064 B8030000 		.word	.L90
 705 0068 B8030000 		.word	.L90
 706 006c B8030000 		.word	.L90
 707 0070 B8030000 		.word	.L90
 708 0074 B8030000 		.word	.L90
 709 0078 B8030000 		.word	.L90
 710 007c B8030000 		.word	.L90
 711 0080 B8030000 		.word	.L90
 712 0084 56010000 		.word	.L46
 713 0088 B8030000 		.word	.L90
 714 008c B8030000 		.word	.L90
 715 0090 84010000 		.word	.L47
 716 0094 B8030000 		.word	.L90
 717 0098 B8030000 		.word	.L90
 718 009c 98010000 		.word	.L48
 719 00a0 B4010000 		.word	.L49
 720 00a4 B8030000 		.word	.L90
 721 00a8 8E010000 		.word	.L50
 722 00ac BC010000 		.word	.L51
 723 00b0 B8030000 		.word	.L90
 724 00b4 B8030000 		.word	.L90
 725 00b8 B8030000 		.word	.L90
 726 00bc B8030000 		.word	.L90
 727 00c0 B8030000 		.word	.L90
 728 00c4 B8030000 		.word	.L90
 729 00c8 B8030000 		.word	.L90
 730 00cc B8030000 		.word	.L90
 731 00d0 B8030000 		.word	.L90
 732 00d4 B8030000 		.word	.L90
 733 00d8 B8030000 		.word	.L90
 734 00dc B8030000 		.word	.L90
 735 00e0 B8030000 		.word	.L90
 736 00e4 B8030000 		.word	.L90
 737 00e8 B8030000 		.word	.L90
 738 00ec B8030000 		.word	.L90
 739 00f0 B8030000 		.word	.L90
 740 00f4 B8030000 		.word	.L90
 741 00f8 B8030000 		.word	.L90
 742 00fc B8030000 		.word	.L90
 743 0100 FC020000 		.word	.L52
 744 0104 3C020000 		.word	.L53
 745 0108 84020000 		.word	.L54
 746 010c 8A020000 		.word	.L55
 747 0110 B8030000 		.word	.L90
 748 0114 D8020000 		.word	.L56
 749 0118 E2020000 		.word	.L57
 750 011c F2020000 		.word	.L58
 751 0120 B8030000 		.word	.L90
 752 0124 3A030000 		.word	.L59
 753 0128 B8030000 		.word	.L90
 754 012c 44030000 		.word	.L61
 755 0130 C4020000 		.word	.L62
 756 0134 4E030000 		.word	.L63
ARM GAS  C:\Users\ADMINI~1\AppData\Local\Temp\ccs1OUCB.s 			page 41


 757 0138 B8030000 		.word	.L90
 758 013c B8030000 		.word	.L90
 759 0140 B8030000 		.word	.L90
 760 0144 B8030000 		.word	.L90
 761 0148 06030000 		.word	.L68
 762 014c 10030000 		.word	.L69
 763 0150 CE020000 		.word	.L70
 764 0154 B8030000 		.word	.L90
 765 0158 B8030000 		.word	.L90
 766 015c B8030000 		.word	.L90
 767 0160 EC020000 		.word	.L72
 768 0164 B8030000 		.word	.L90
 769 0168 B8030000 		.word	.L90
 770 016c B8030000 		.word	.L90
 771 0170 B8030000 		.word	.L90
 772 0174 B8030000 		.word	.L90
 773 0178 B8030000 		.word	.L90
 774 017c B8030000 		.word	.L90
 775 0180 B8030000 		.word	.L90
 776 0184 B8030000 		.word	.L90
 777 0188 B8030000 		.word	.L90
 778 018c B8030000 		.word	.L90
 779 0190 B8030000 		.word	.L90
 780 0194 B8030000 		.word	.L90
 781 0198 B8030000 		.word	.L90
 782 019c B8030000 		.word	.L90
 783 01a0 B8030000 		.word	.L90
 784 01a4 B8030000 		.word	.L90
 785 01a8 B8030000 		.word	.L90
 786 01ac B8030000 		.word	.L90
 787 01b0 B8030000 		.word	.L90
 788 01b4 B8030000 		.word	.L90
 789 01b8 B8030000 		.word	.L90
 790 01bc B8030000 		.word	.L90
 791 01c0 B8030000 		.word	.L90
 792 01c4 30020000 		.word	.L73
 793 01c8 B8030000 		.word	.L90
 794 01cc B8030000 		.word	.L90
 795 01d0 B8030000 		.word	.L90
 796 01d4 B8030000 		.word	.L90
 797 01d8 B8030000 		.word	.L90
 798 01dc B8030000 		.word	.L90
 799 01e0 B8030000 		.word	.L90
 800 01e4 B8030000 		.word	.L90
 801 01e8 B8030000 		.word	.L90
 802 01ec B8030000 		.word	.L90
 803 01f0 B8030000 		.word	.L90
 804 01f4 B8030000 		.word	.L90
 805 01f8 B8030000 		.word	.L90
 806 01fc B8030000 		.word	.L90
 807 0200 B8030000 		.word	.L90
 808 0204 B8030000 		.word	.L90
 809 0208 B8030000 		.word	.L90
 810 020c B8030000 		.word	.L90
 811 0210 B8030000 		.word	.L90
 812 0214 B8030000 		.word	.L90
 813 0218 B8030000 		.word	.L90
ARM GAS  C:\Users\ADMINI~1\AppData\Local\Temp\ccs1OUCB.s 			page 42


 814 021c B8030000 		.word	.L90
 815 0220 B8030000 		.word	.L90
 816 0224 B8030000 		.word	.L90
 817 0228 B8030000 		.word	.L90
 818 022c B8030000 		.word	.L90
 819 0230 B8030000 		.word	.L90
 820 0234 B8030000 		.word	.L90
 821 0238 B8030000 		.word	.L90
 822 023c B8030000 		.word	.L90
 823 0240 B8030000 		.word	.L90
 824 0244 B8030000 		.word	.L90
 825 0248 B8030000 		.word	.L90
 826 024c B8030000 		.word	.L90
 827 0250 B8030000 		.word	.L90
 828 0254 B8030000 		.word	.L90
 829 0258 B8030000 		.word	.L90
 830 025c B8030000 		.word	.L90
 831 0260 B8030000 		.word	.L90
 832 0264 B8030000 		.word	.L90
 833 0268 B8030000 		.word	.L90
 834 026c B8030000 		.word	.L90
 835 0270 B8030000 		.word	.L90
 836 0274 B8030000 		.word	.L90
 837 0278 B8030000 		.word	.L90
 838 027c B8030000 		.word	.L90
 839 0280 B8030000 		.word	.L90
 840 0284 B8030000 		.word	.L90
 841 0288 B8030000 		.word	.L90
 842 028c B8030000 		.word	.L90
 843 0290 B8030000 		.word	.L90
 844 0294 B8030000 		.word	.L90
 845 0298 B8030000 		.word	.L90
 846 029c B8030000 		.word	.L90
 847 02a0 B8030000 		.word	.L90
 848 02a4 B8030000 		.word	.L90
 849 02a8 B8030000 		.word	.L90
 850 02ac B8030000 		.word	.L90
 851 02b0 B8030000 		.word	.L90
 852 02b4 B8030000 		.word	.L90
 853 02b8 B8030000 		.word	.L90
 854 02bc B8030000 		.word	.L90
 855 02c0 B8030000 		.word	.L90
 856 02c4 B8030000 		.word	.L90
 857 02c8 B8030000 		.word	.L90
 858 02cc B8030000 		.word	.L90
 859 02d0 B8030000 		.word	.L90
 860 02d4 B8030000 		.word	.L90
 861 02d8 B8030000 		.word	.L90
 862 02dc B8030000 		.word	.L90
 863 02e0 B8030000 		.word	.L90
 864 02e4 B8030000 		.word	.L90
 865 02e8 B8030000 		.word	.L90
 866 02ec B8030000 		.word	.L90
 867 02f0 B8030000 		.word	.L90
 868 02f4 B8030000 		.word	.L90
 869 02f8 B8030000 		.word	.L90
 870 02fc B8030000 		.word	.L90
ARM GAS  C:\Users\ADMINI~1\AppData\Local\Temp\ccs1OUCB.s 			page 43


 871 0300 B8030000 		.word	.L90
 872 0304 B8030000 		.word	.L90
 873 0308 B8030000 		.word	.L90
 874 030c B8030000 		.word	.L90
 875 0310 B8030000 		.word	.L90
 876 0314 B8030000 		.word	.L90
 877 0318 B8030000 		.word	.L90
 878 031c B8030000 		.word	.L90
 879 0320 B8030000 		.word	.L90
 880 0324 B8030000 		.word	.L90
 881 0328 B8030000 		.word	.L90
 882 032c B8030000 		.word	.L90
 883 0330 B8030000 		.word	.L90
 884 0334 B8030000 		.word	.L90
 885 0338 B8030000 		.word	.L90
 886 033c B8030000 		.word	.L90
 887 0340 B8030000 		.word	.L90
 888 0344 B8030000 		.word	.L90
 889 0348 B8030000 		.word	.L90
 890 034c B8030000 		.word	.L90
 891 0350 B8030000 		.word	.L90
 892 0354 B8030000 		.word	.L90
 893 0358 B8030000 		.word	.L90
 894 035c B8030000 		.word	.L90
 895 0360 B8030000 		.word	.L90
 896 0364 B8030000 		.word	.L90
 897 0368 B8030000 		.word	.L90
 898 036c B8030000 		.word	.L90
 899 0370 B8030000 		.word	.L90
 900 0374 B8030000 		.word	.L90
 901 0378 B8030000 		.word	.L90
 902 037c B8030000 		.word	.L90
 903 0380 B8030000 		.word	.L90
 904 0384 B8030000 		.word	.L90
 905 0388 B8030000 		.word	.L90
 906 038c B8030000 		.word	.L90
 907 0390 B8030000 		.word	.L90
 908 0394 B8030000 		.word	.L90
 909 0398 B8030000 		.word	.L90
 910 039c B8030000 		.word	.L90
 911 03a0 B8030000 		.word	.L90
 912 03a4 B8030000 		.word	.L90
 913 03a8 B8030000 		.word	.L90
 914 03ac B8030000 		.word	.L90
 915 03b0 B8030000 		.word	.L90
 916 03b4 B8030000 		.word	.L90
 917 03b8 B8030000 		.word	.L90
 918 03bc B8030000 		.word	.L90
 919 03c0 B8030000 		.word	.L90
 920 03c4 B8030000 		.word	.L90
 921 03c8 B8030000 		.word	.L90
 922 03cc B8030000 		.word	.L90
 923 03d0 B8030000 		.word	.L90
 924 03d4 B8030000 		.word	.L90
 925 03d8 B8030000 		.word	.L90
 926 03dc B8030000 		.word	.L90
 927 03e0 B8030000 		.word	.L90
ARM GAS  C:\Users\ADMINI~1\AppData\Local\Temp\ccs1OUCB.s 			page 44


 928 03e4 B8030000 		.word	.L90
 929 03e8 58030000 		.word	.L74
 930              		.section	.text.CyBle_EventHandler
 931              	.L40:
 932              	.LBB3:
1514:.\Generated_Source\PSoC4/BLE_eventHandler.c ****     {
1515:.\Generated_Source\PSoC4/BLE_eventHandler.c ****         /**********************************************************
1516:.\Generated_Source\PSoC4/BLE_eventHandler.c ****         * General events
1517:.\Generated_Source\PSoC4/BLE_eventHandler.c ****         ************************************************************/
1518:.\Generated_Source\PSoC4/BLE_eventHandler.c ****         case CYBLE_EVT_STACK_ON:
1519:.\Generated_Source\PSoC4/BLE_eventHandler.c ****         #if(CYBLE_MODE_PROFILE)
1520:.\Generated_Source\PSoC4/BLE_eventHandler.c ****         {
1521:.\Generated_Source\PSoC4/BLE_eventHandler.c ****             CYBLE_BLESS_PWR_IN_DB_T bleSsPowerLevel;
1522:.\Generated_Source\PSoC4/BLE_eventHandler.c ****             
1523:.\Generated_Source\PSoC4/BLE_eventHandler.c ****             /* Set Tx Power Level for advertising and connection channels */
1524:.\Generated_Source\PSoC4/BLE_eventHandler.c ****             bleSsPowerLevel.blePwrLevelInDbm = CYBLE_TX_POWER_LEVEL_ADV;
 933              		.loc 1 1524 0
 934 0032 1023     		mov	r3, #16
 935 0034 FB18     		add	r3, r7, r3
 936 0036 0722     		mov	r2, #7
 937 0038 1A70     		strb	r2, [r3]
1525:.\Generated_Source\PSoC4/BLE_eventHandler.c ****             bleSsPowerLevel.bleSsChId = CYBLE_LL_ADV_CH_TYPE;
 938              		.loc 1 1525 0
 939 003a 1023     		mov	r3, #16
 940 003c FB18     		add	r3, r7, r3
 941 003e 0022     		mov	r2, #0
 942 0040 5A70     		strb	r2, [r3, #1]
1526:.\Generated_Source\PSoC4/BLE_eventHandler.c ****             (void) CyBle_SetTxPowerLevel (&bleSsPowerLevel);
 943              		.loc 1 1526 0
 944 0042 1023     		mov	r3, #16
 945 0044 FB18     		add	r3, r7, r3
 946 0046 181C     		mov	r0, r3
 947 0048 FFF7FEFF 		bl	CyBle_SetTxPowerLevel
1527:.\Generated_Source\PSoC4/BLE_eventHandler.c ****             bleSsPowerLevel.blePwrLevelInDbm = CYBLE_TX_POWER_LEVEL_CONN;
 948              		.loc 1 1527 0
 949 004c 1023     		mov	r3, #16
 950 004e FB18     		add	r3, r7, r3
 951 0050 0722     		mov	r2, #7
 952 0052 1A70     		strb	r2, [r3]
1528:.\Generated_Source\PSoC4/BLE_eventHandler.c ****             bleSsPowerLevel.bleSsChId = CYBLE_LL_CONN_CH_TYPE;
 953              		.loc 1 1528 0
 954 0054 1023     		mov	r3, #16
 955 0056 FB18     		add	r3, r7, r3
 956 0058 0122     		mov	r2, #1
 957 005a 5A70     		strb	r2, [r3, #1]
1529:.\Generated_Source\PSoC4/BLE_eventHandler.c ****             (void) CyBle_SetTxPowerLevel (&bleSsPowerLevel);
 958              		.loc 1 1529 0
 959 005c 1023     		mov	r3, #16
 960 005e FB18     		add	r3, r7, r3
 961 0060 181C     		mov	r0, r3
 962 0062 FFF7FEFF 		bl	CyBle_SetTxPowerLevel
 963              	.LBE3:
1530:.\Generated_Source\PSoC4/BLE_eventHandler.c ****             
1531:.\Generated_Source\PSoC4/BLE_eventHandler.c ****         }
1532:.\Generated_Source\PSoC4/BLE_eventHandler.c ****         #endif /* CYBLE_MODE_PROFILE */
1533:.\Generated_Source\PSoC4/BLE_eventHandler.c ****         #if (CYBLE_GATT_ROLE_SERVER || CYBLE_GATT_ROLE_CLIENT)
1534:.\Generated_Source\PSoC4/BLE_eventHandler.c ****             /* Set device Address  */
ARM GAS  C:\Users\ADMINI~1\AppData\Local\Temp\ccs1OUCB.s 			page 45


1535:.\Generated_Source\PSoC4/BLE_eventHandler.c ****             if(CyBle_IsDeviceAddressValid(cyBle_sflashDeviceAddress) != 0u)
 964              		.loc 1 1535 0
 965 0066 C24B     		ldr	r3, .L91+8
 966 0068 1B68     		ldr	r3, [r3]
 967 006a 181C     		mov	r0, r3
 968 006c FFF7FEFF 		bl	CyBle_IsDeviceAddressValid
 969 0070 031E     		sub	r3, r0, #0
 970 0072 05D0     		beq	.L75
1536:.\Generated_Source\PSoC4/BLE_eventHandler.c ****             {
1537:.\Generated_Source\PSoC4/BLE_eventHandler.c ****                 (void) CyBle_SetDeviceAddress(cyBle_sflashDeviceAddress);
 971              		.loc 1 1537 0
 972 0074 BE4B     		ldr	r3, .L91+8
 973 0076 1B68     		ldr	r3, [r3]
 974 0078 181C     		mov	r0, r3
 975 007a FFF7FEFF 		bl	CyBle_SetDeviceAddress
 976 007e 2CE0     		b	.L76
 977              	.L75:
 978              	.LBB4:
1538:.\Generated_Source\PSoC4/BLE_eventHandler.c ****                 #if(CYBLE_GAP_ROLE_PERIPHERAL || CYBLE_GAP_ROLE_BROADCASTER)
1539:.\Generated_Source\PSoC4/BLE_eventHandler.c ****                     CyBle_ChangeAdDeviceAddress(cyBle_sflashDeviceAddress, 0u);
1540:.\Generated_Source\PSoC4/BLE_eventHandler.c ****                     CyBle_ChangeAdDeviceAddress(cyBle_sflashDeviceAddress, 1u);
1541:.\Generated_Source\PSoC4/BLE_eventHandler.c ****                 #endif /* CYBLE_GAP_ROLE_PERIPHERAL || CYBLE_GAP_ROLE_BROADCASTER */    
1542:.\Generated_Source\PSoC4/BLE_eventHandler.c ****             }
1543:.\Generated_Source\PSoC4/BLE_eventHandler.c ****             else
1544:.\Generated_Source\PSoC4/BLE_eventHandler.c ****             {
1545:.\Generated_Source\PSoC4/BLE_eventHandler.c ****             #if (SILICON_GENERATED_DEVICE_ADDRESS != 0u)
1546:.\Generated_Source\PSoC4/BLE_eventHandler.c ****             {
1547:.\Generated_Source\PSoC4/BLE_eventHandler.c ****                 uint32 bdAddrLoc;
1548:.\Generated_Source\PSoC4/BLE_eventHandler.c ****                 bdAddrLoc = (CYBLE_SFLASH_DIE_X_REG & CYBLE_SFLASH_DIE_X_MASK) |
 979              		.loc 1 1548 0
 980 0080 BC4B     		ldr	r3, .L91+12
 981 0082 1B78     		ldrb	r3, [r3]
 982 0084 1A1C     		mov	r2, r3
 983 0086 3F23     		mov	r3, #63
 984 0088 1A40     		and	r2, r3
1549:.\Generated_Source\PSoC4/BLE_eventHandler.c ****                     ((uint32)(((uint32)CYBLE_SFLASH_DIE_Y_REG) & ((uint32)CYBLE_SFLASH_DIE_Y_MASK))
 985              		.loc 1 1549 0
 986 008a BB4B     		ldr	r3, .L91+16
 987 008c 1B78     		ldrb	r3, [r3]
 988 008e 191C     		mov	r1, r3
 989 0090 3F23     		mov	r3, #63
 990 0092 0B40     		and	r3, r1
 991 0094 9B01     		lsl	r3, r3, #6
1548:.\Generated_Source\PSoC4/BLE_eventHandler.c ****                     ((uint32)(((uint32)CYBLE_SFLASH_DIE_Y_REG) & ((uint32)CYBLE_SFLASH_DIE_Y_MASK))
 992              		.loc 1 1548 0
 993 0096 1A43     		orr	r2, r3
1550:.\Generated_Source\PSoC4/BLE_eventHandler.c ****                         CYBLE_SFLASH_DIE_X_BITS) |
1551:.\Generated_Source\PSoC4/BLE_eventHandler.c ****                     ((uint32)(((uint32)CYBLE_SFLASH_DIE_WAFER_REG) & ((uint32)CYBLE_SFLASH_DIE_WAFE
 994              		.loc 1 1551 0
 995 0098 B84B     		ldr	r3, .L91+20
 996 009a 1B78     		ldrb	r3, [r3]
 997 009c 191C     		mov	r1, r3
 998 009e 1F23     		mov	r3, #31
 999 00a0 0B40     		and	r3, r1
 1000 00a2 1B03     		lsl	r3, r3, #12
1550:.\Generated_Source\PSoC4/BLE_eventHandler.c ****                         CYBLE_SFLASH_DIE_X_BITS) |
 1001              		.loc 1 1550 0
ARM GAS  C:\Users\ADMINI~1\AppData\Local\Temp\ccs1OUCB.s 			page 46


 1002 00a4 1A43     		orr	r2, r3
1552:.\Generated_Source\PSoC4/BLE_eventHandler.c ****                         CYBLE_SFLASH_DIE_XY_BITS) |
1553:.\Generated_Source\PSoC4/BLE_eventHandler.c ****                     ((uint32)(((uint32)CYBLE_SFLASH_DIE_LOT_REG) & ((uint32)CYBLE_SFLASH_DIE_LOT_MA
 1003              		.loc 1 1553 0
 1004 00a6 B64B     		ldr	r3, .L91+24
 1005 00a8 1B78     		ldrb	r3, [r3]
 1006 00aa 191C     		mov	r1, r3
 1007 00ac 7F23     		mov	r3, #127
 1008 00ae 0B40     		and	r3, r1
 1009 00b0 5B04     		lsl	r3, r3, #17
1548:.\Generated_Source\PSoC4/BLE_eventHandler.c ****                     ((uint32)(((uint32)CYBLE_SFLASH_DIE_Y_REG) & ((uint32)CYBLE_SFLASH_DIE_Y_MASK))
 1010              		.loc 1 1548 0
 1011 00b2 1343     		orr	r3, r2
 1012 00b4 BB61     		str	r3, [r7, #24]
1554:.\Generated_Source\PSoC4/BLE_eventHandler.c ****                         CYBLE_SFLASH_DIE_XYWAFER_BITS);
1555:.\Generated_Source\PSoC4/BLE_eventHandler.c ****                             
1556:.\Generated_Source\PSoC4/BLE_eventHandler.c ****                 cyBle_deviceAddress.bdAddr[0] = (uint8)bdAddrLoc;
 1013              		.loc 1 1556 0
 1014 00b6 BB69     		ldr	r3, [r7, #24]
 1015 00b8 DAB2     		uxtb	r2, r3
 1016 00ba B24B     		ldr	r3, .L91+28
 1017 00bc 1A70     		strb	r2, [r3]
1557:.\Generated_Source\PSoC4/BLE_eventHandler.c ****                 cyBle_deviceAddress.bdAddr[1] = (uint8)(bdAddrLoc >> 8u);
 1018              		.loc 1 1557 0
 1019 00be BB69     		ldr	r3, [r7, #24]
 1020 00c0 1B0A     		lsr	r3, r3, #8
 1021 00c2 DAB2     		uxtb	r2, r3
 1022 00c4 AF4B     		ldr	r3, .L91+28
 1023 00c6 5A70     		strb	r2, [r3, #1]
1558:.\Generated_Source\PSoC4/BLE_eventHandler.c ****                 cyBle_deviceAddress.bdAddr[2] = (uint8)(bdAddrLoc >> 16u);
 1024              		.loc 1 1558 0
 1025 00c8 BB69     		ldr	r3, [r7, #24]
 1026 00ca 1B0C     		lsr	r3, r3, #16
 1027 00cc DAB2     		uxtb	r2, r3
 1028 00ce AD4B     		ldr	r3, .L91+28
 1029 00d0 9A70     		strb	r2, [r3, #2]
 1030              	.LBE4:
1559:.\Generated_Source\PSoC4/BLE_eventHandler.c ****             }
1560:.\Generated_Source\PSoC4/BLE_eventHandler.c ****             #endif /* SILICON_GENERATED_DEVICE_ADDRESS != 0u */
1561:.\Generated_Source\PSoC4/BLE_eventHandler.c ****                 (void) CyBle_SetDeviceAddress(&cyBle_deviceAddress);
 1031              		.loc 1 1561 0
 1032 00d2 AC4B     		ldr	r3, .L91+28
 1033 00d4 181C     		mov	r0, r3
 1034 00d6 FFF7FEFF 		bl	CyBle_SetDeviceAddress
 1035              	.L76:
1562:.\Generated_Source\PSoC4/BLE_eventHandler.c ****                 #if(CYBLE_GAP_ROLE_PERIPHERAL || CYBLE_GAP_ROLE_BROADCASTER)
1563:.\Generated_Source\PSoC4/BLE_eventHandler.c ****                     CyBle_ChangeAdDeviceAddress(&cyBle_deviceAddress, 0u);
1564:.\Generated_Source\PSoC4/BLE_eventHandler.c ****                     CyBle_ChangeAdDeviceAddress(&cyBle_deviceAddress, 1u);
1565:.\Generated_Source\PSoC4/BLE_eventHandler.c ****                 #endif /* CYBLE_GAP_ROLE_PERIPHERAL || CYBLE_GAP_ROLE_BROADCASTER */    
1566:.\Generated_Source\PSoC4/BLE_eventHandler.c ****             }
1567:.\Generated_Source\PSoC4/BLE_eventHandler.c ****             /* Set device IO Capability  */
1568:.\Generated_Source\PSoC4/BLE_eventHandler.c ****             (void) CyBle_GapSetIoCap(CYBLE_IO_CAPABILITY);    
 1036              		.loc 1 1568 0
 1037 00da 0320     		mov	r0, #3
 1038 00dc FFF7FEFF 		bl	CyBle_GapSetIoCap
 1039              	.LBB5:
1569:.\Generated_Source\PSoC4/BLE_eventHandler.c ****             {
ARM GAS  C:\Users\ADMINI~1\AppData\Local\Temp\ccs1OUCB.s 			page 47


1570:.\Generated_Source\PSoC4/BLE_eventHandler.c ****                 /* Enable all 4.1 events and configured 4.2 events */
1571:.\Generated_Source\PSoC4/BLE_eventHandler.c ****                 uint8 leMask[CYBLE_LE_MASK_LENGTH] = {LO8(CYBLE_LE_MASK), HI8(CYBLE_LE_MASK)};
 1040              		.loc 1 1571 0
 1041 00e0 0C23     		mov	r3, #12
 1042 00e2 FB18     		add	r3, r7, r3
 1043 00e4 3F22     		mov	r2, #63
 1044 00e6 1A70     		strb	r2, [r3]
 1045 00e8 0C23     		mov	r3, #12
 1046 00ea FB18     		add	r3, r7, r3
 1047 00ec 0022     		mov	r2, #0
 1048 00ee 5A70     		strb	r2, [r3, #1]
1572:.\Generated_Source\PSoC4/BLE_eventHandler.c ****                 (void) CyBle_GapSetLeEventMask(leMask);
 1049              		.loc 1 1572 0
 1050 00f0 0C23     		mov	r3, #12
 1051 00f2 FB18     		add	r3, r7, r3
 1052 00f4 181C     		mov	r0, r3
 1053 00f6 FFF7FEFF 		bl	CyBle_GapSetLeEventMask
 1054              	.LBE5:
1573:.\Generated_Source\PSoC4/BLE_eventHandler.c ****             }
1574:.\Generated_Source\PSoC4/BLE_eventHandler.c ****         #if(CYBLE_DLE_FEATURE_ENABLED)
1575:.\Generated_Source\PSoC4/BLE_eventHandler.c ****         {
1576:.\Generated_Source\PSoC4/BLE_eventHandler.c ****             /* Set maximum suggested TX payload size */
1577:.\Generated_Source\PSoC4/BLE_eventHandler.c ****             uint16 payloadTime = CYBLE_LL_MAX_TX_TIME;
1578:.\Generated_Source\PSoC4/BLE_eventHandler.c ****             (void) CyBle_GapConvertOctetToTime(CYBLE_GAP_PHY_1MBPS, CYBLE_LL_MAX_TX_PAYLOAD_SIZE, &
1579:.\Generated_Source\PSoC4/BLE_eventHandler.c ****             (void) CyBle_GapSetSuggestedDataLength(CYBLE_LL_MAX_TX_PAYLOAD_SIZE, payloadTime); 
1580:.\Generated_Source\PSoC4/BLE_eventHandler.c ****         }
1581:.\Generated_Source\PSoC4/BLE_eventHandler.c ****         #endif /* CYBLE_DLE_FEATURE != 0u */
1582:.\Generated_Source\PSoC4/BLE_eventHandler.c ****         
1583:.\Generated_Source\PSoC4/BLE_eventHandler.c ****         #endif /* CYBLE_GATT_ROLE_SERVER || CYBLE_GATT_ROLE_CLIENT */
1584:.\Generated_Source\PSoC4/BLE_eventHandler.c ****             CyBle_SetState(CYBLE_STATE_DISCONNECTED);
 1055              		.loc 1 1584 0
 1056 00fa A34B     		ldr	r3, .L91+32
 1057 00fc 0522     		mov	r2, #5
 1058 00fe 1A70     		strb	r2, [r3]
1585:.\Generated_Source\PSoC4/BLE_eventHandler.c ****             break;
 1059              		.loc 1 1585 0
 1060 0100 5BE1     		b	.L77
 1061              	.L42:
1586:.\Generated_Source\PSoC4/BLE_eventHandler.c ****         case CYBLE_EVT_TIMEOUT:
1587:.\Generated_Source\PSoC4/BLE_eventHandler.c ****             CyBle_TimeOutEventHandler((CYBLE_TO_REASON_CODE_T *)eventParam);
 1062              		.loc 1 1587 0
 1063 0102 3B68     		ldr	r3, [r7]
 1064 0104 181C     		mov	r0, r3
 1065 0106 FFF7FEFF 		bl	CyBle_TimeOutEventHandler
1588:.\Generated_Source\PSoC4/BLE_eventHandler.c ****             break;
 1066              		.loc 1 1588 0
 1067 010a 56E1     		b	.L77
 1068              	.L43:
1589:.\Generated_Source\PSoC4/BLE_eventHandler.c ****     	case CYBLE_EVT_STACK_BUSY_STATUS:
1590:.\Generated_Source\PSoC4/BLE_eventHandler.c ****             cyBle_busyStatus = *(uint8 *)eventParam;
 1069              		.loc 1 1590 0
 1070 010c 3B68     		ldr	r3, [r7]
 1071 010e 1A78     		ldrb	r2, [r3]
 1072 0110 9E4B     		ldr	r3, .L91+36
 1073 0112 1A70     		strb	r2, [r3]
1591:.\Generated_Source\PSoC4/BLE_eventHandler.c ****             break;
 1074              		.loc 1 1591 0
ARM GAS  C:\Users\ADMINI~1\AppData\Local\Temp\ccs1OUCB.s 			page 48


 1075 0114 51E1     		b	.L77
 1076              	.L44:
 1077              	.LBB6:
1592:.\Generated_Source\PSoC4/BLE_eventHandler.c ****     	case CYBLE_EVT_MEMORY_REQUEST:
1593:.\Generated_Source\PSoC4/BLE_eventHandler.c ****         #if(CYBLE_MODE_PROFILE)
1594:.\Generated_Source\PSoC4/BLE_eventHandler.c ****         {
1595:.\Generated_Source\PSoC4/BLE_eventHandler.c ****             CYBLE_MEMORY_REQUEST_T *memReq = (CYBLE_MEMORY_REQUEST_T *)eventParam;
 1078              		.loc 1 1595 0
 1079 0116 3B68     		ldr	r3, [r7]
 1080 0118 7B61     		str	r3, [r7, #20]
1596:.\Generated_Source\PSoC4/BLE_eventHandler.c ****             if(memReq->request == CYBLE_PREPARED_WRITE_REQUEST)
 1081              		.loc 1 1596 0
 1082 011a 7B69     		ldr	r3, [r7, #20]
 1083 011c 1B78     		ldrb	r3, [r3]
 1084 011e 002B     		cmp	r3, #0
 1085 0120 18D1     		bne	.L78
1597:.\Generated_Source\PSoC4/BLE_eventHandler.c ****             {  
1598:.\Generated_Source\PSoC4/BLE_eventHandler.c ****             #if(CYBLE_GATT_ENABLE_EXTERNAL_PREP_WRITE_BUFF == 0u)
1599:.\Generated_Source\PSoC4/BLE_eventHandler.c ****                 /* Stack requests to provide memory to process remote request */
1600:.\Generated_Source\PSoC4/BLE_eventHandler.c ****                 if(memReq->allocFree == CYBLE_ALLOC_MEMORY)
 1086              		.loc 1 1600 0
 1087 0122 7B69     		ldr	r3, [r7, #20]
 1088 0124 5B78     		ldrb	r3, [r3, #1]
 1089 0126 002B     		cmp	r3, #0
 1090 0128 0BD1     		bne	.L79
 1091              	.LBB7:
1601:.\Generated_Source\PSoC4/BLE_eventHandler.c ****                 {
1602:.\Generated_Source\PSoC4/BLE_eventHandler.c ****                     static CYBLE_PREPARE_WRITE_REQUEST_MEMORY_T gPrepWriteReqMem;
1603:.\Generated_Source\PSoC4/BLE_eventHandler.c ****                     
1604:.\Generated_Source\PSoC4/BLE_eventHandler.c ****                     /* Configure and return statically allocated buffer at the end of cyBle_stackMe
1605:.\Generated_Source\PSoC4/BLE_eventHandler.c ****                     gPrepWriteReqMem.prepareWriteQueueSize = CYBLE_GATT_MAX_PREPARE_BUFF_COUNT;
 1092              		.loc 1 1605 0
 1093 012a 994B     		ldr	r3, .L91+40
 1094 012c 0022     		mov	r2, #0
 1095 012e DA80     		strh	r2, [r3, #6]
1606:.\Generated_Source\PSoC4/BLE_eventHandler.c ****                     gPrepWriteReqMem.totalAttrValueLength = CYBLE_GATT_PREPARE_LENGTH_ALIGN;
 1096              		.loc 1 1606 0
 1097 0130 974B     		ldr	r3, .L91+40
 1098 0132 0022     		mov	r2, #0
 1099 0134 9A80     		strh	r2, [r3, #4]
1607:.\Generated_Source\PSoC4/BLE_eventHandler.c ****                     gPrepWriteReqMem.queueBuffer = &cyBle_stackMemoryRam[CYBLE_STACK_RAM_SIZE - 
 1100              		.loc 1 1607 0
 1101 0136 964B     		ldr	r3, .L91+40
 1102 0138 964A     		ldr	r2, .L91+44
 1103 013a 1A60     		str	r2, [r3]
1608:.\Generated_Source\PSoC4/BLE_eventHandler.c ****                                                                          CYBLE_GATT_PREPARE_WRITE_B
1609:.\Generated_Source\PSoC4/BLE_eventHandler.c ****                     memReq->configMemory = &gPrepWriteReqMem;  
 1104              		.loc 1 1609 0
 1105 013c 7B69     		ldr	r3, [r7, #20]
 1106 013e 944A     		ldr	r2, .L91+40
 1107 0140 5A60     		str	r2, [r3, #4]
 1108              	.L79:
 1109              	.LBE7:
1610:.\Generated_Source\PSoC4/BLE_eventHandler.c ****                 }                
1611:.\Generated_Source\PSoC4/BLE_eventHandler.c ****                 /* Clear CYBLE_CALLBACK flag not to provide handled event to application */
1612:.\Generated_Source\PSoC4/BLE_eventHandler.c ****                 cyBle_eventHandlerFlag &= (uint8)~CYBLE_CALLBACK;
 1110              		.loc 1 1612 0
ARM GAS  C:\Users\ADMINI~1\AppData\Local\Temp\ccs1OUCB.s 			page 49


 1111 0142 894B     		ldr	r3, .L91
 1112 0144 1B78     		ldrb	r3, [r3]
 1113 0146 DBB2     		uxtb	r3, r3
 1114 0148 0122     		mov	r2, #1
 1115 014a 9343     		bic	r3, r2
 1116 014c DAB2     		uxtb	r2, r3
 1117 014e 864B     		ldr	r3, .L91
 1118 0150 1A70     		strb	r2, [r3]
 1119              	.LBE6:
1613:.\Generated_Source\PSoC4/BLE_eventHandler.c ****             #endif  /* CYBLE_GATT_ENABLE_EXTERNAL_PREP_WRITE_BUFF == 0u */
1614:.\Generated_Source\PSoC4/BLE_eventHandler.c ****             }
1615:.\Generated_Source\PSoC4/BLE_eventHandler.c ****         }
1616:.\Generated_Source\PSoC4/BLE_eventHandler.c ****         #endif /* CYBLE_MODE_PROFILE */
1617:.\Generated_Source\PSoC4/BLE_eventHandler.c ****             break;
 1120              		.loc 1 1617 0
 1121 0152 32E1     		b	.L77
 1122              	.L78:
 1123 0154 31E1     		b	.L77
 1124              	.L46:
1618:.\Generated_Source\PSoC4/BLE_eventHandler.c ****         /**********************************************************
1619:.\Generated_Source\PSoC4/BLE_eventHandler.c ****         * GAP events
1620:.\Generated_Source\PSoC4/BLE_eventHandler.c ****         ************************************************************/
1621:.\Generated_Source\PSoC4/BLE_eventHandler.c ****         case CYBLE_EVT_GAP_AUTH_REQ:
1622:.\Generated_Source\PSoC4/BLE_eventHandler.c ****         #if(CYBLE_MODE_PROFILE)
1623:.\Generated_Source\PSoC4/BLE_eventHandler.c ****             if(0u == (cyBle_eventHandlerFlag & CYBLE_DISABLE_AUTOMATIC_AUTH))
 1125              		.loc 1 1623 0
 1126 0156 844B     		ldr	r3, .L91
 1127 0158 1B78     		ldrb	r3, [r3]
 1128 015a DBB2     		uxtb	r3, r3
 1129 015c 1A1C     		mov	r2, r3
 1130 015e 2023     		mov	r3, #32
 1131 0160 1340     		and	r3, r2
 1132 0162 0ED1     		bne	.L80
1624:.\Generated_Source\PSoC4/BLE_eventHandler.c ****             {
1625:.\Generated_Source\PSoC4/BLE_eventHandler.c ****                 /* If the responding device does not support pairing then the responding 
1626:.\Generated_Source\PSoC4/BLE_eventHandler.c ****                    device shall respond using the Pairing Failed message with the error 
1627:.\Generated_Source\PSoC4/BLE_eventHandler.c ****                    code "Pairing Not Supported" otherwise it responds with a Pairing 
1628:.\Generated_Source\PSoC4/BLE_eventHandler.c ****                    Response message.
1629:.\Generated_Source\PSoC4/BLE_eventHandler.c ****                 */
1630:.\Generated_Source\PSoC4/BLE_eventHandler.c ****                 if(cyBle_authInfo.security == (CYBLE_GAP_SEC_MODE_1 | CYBLE_GAP_SEC_LEVEL_1))
 1133              		.loc 1 1630 0
 1134 0164 8C4B     		ldr	r3, .L91+48
 1135 0166 1B78     		ldrb	r3, [r3]
 1136 0168 102B     		cmp	r3, #16
 1137 016a 02D1     		bne	.L81
1631:.\Generated_Source\PSoC4/BLE_eventHandler.c ****                 {
1632:.\Generated_Source\PSoC4/BLE_eventHandler.c ****                     cyBle_authInfo.authErr = CYBLE_GAP_AUTH_ERROR_PAIRING_NOT_SUPPORTED;
 1138              		.loc 1 1632 0
 1139 016c 8A4B     		ldr	r3, .L91+48
 1140 016e 0522     		mov	r2, #5
 1141 0170 DA70     		strb	r2, [r3, #3]
 1142              	.L81:
1633:.\Generated_Source\PSoC4/BLE_eventHandler.c ****                 }    
1634:.\Generated_Source\PSoC4/BLE_eventHandler.c ****             #if(CYBLE_GAP_ROLE_PERIPHERAL)
1635:.\Generated_Source\PSoC4/BLE_eventHandler.c ****                 (void)CyBle_GappAuthReqReply(cyBle_connHandle.bdHandle, &cyBle_authInfo);
1636:.\Generated_Source\PSoC4/BLE_eventHandler.c ****                 /* Setting callback flag again as CyBle_GappAuthReqReply() will generate
1637:.\Generated_Source\PSoC4/BLE_eventHandler.c ****                 * CYBLE_EVT_GAP_SMP_NEGOTIATED_AUTH_INFO event wich will clear the callback
ARM GAS  C:\Users\ADMINI~1\AppData\Local\Temp\ccs1OUCB.s 			page 50


1638:.\Generated_Source\PSoC4/BLE_eventHandler.c ****                 * flag.
1639:.\Generated_Source\PSoC4/BLE_eventHandler.c ****                 */
1640:.\Generated_Source\PSoC4/BLE_eventHandler.c ****                 cyBle_eventHandlerFlag |= CYBLE_CALLBACK;
1641:.\Generated_Source\PSoC4/BLE_eventHandler.c ****             #endif /* CYBLE_GAP_ROLE_PERIPHERAL */
1642:.\Generated_Source\PSoC4/BLE_eventHandler.c ****             #if (CYBLE_GAP_ROLE_CENTRAL)
1643:.\Generated_Source\PSoC4/BLE_eventHandler.c ****                 (void)CyBle_GapAuthReq(cyBle_connHandle.bdHandle, &cyBle_authInfo);
 1143              		.loc 1 1643 0
 1144 0172 8A4B     		ldr	r3, .L91+52
 1145 0174 1A78     		ldrb	r2, [r3]
 1146 0176 884B     		ldr	r3, .L91+48
 1147 0178 101C     		mov	r0, r2
 1148 017a 191C     		mov	r1, r3
 1149 017c FFF7FEFF 		bl	CyBle_GapAuthReq
1644:.\Generated_Source\PSoC4/BLE_eventHandler.c ****             #endif /* CYBLE_GAP_ROLE_CENTRAL */
1645:.\Generated_Source\PSoC4/BLE_eventHandler.c ****             }
1646:.\Generated_Source\PSoC4/BLE_eventHandler.c ****         #endif /* CYBLE_MODE_PROFILE */
1647:.\Generated_Source\PSoC4/BLE_eventHandler.c ****             break;
 1150              		.loc 1 1647 0
 1151 0180 1BE1     		b	.L77
 1152              	.L80:
 1153 0182 1AE1     		b	.L77
 1154              	.L47:
1648:.\Generated_Source\PSoC4/BLE_eventHandler.c ****         
1649:.\Generated_Source\PSoC4/BLE_eventHandler.c ****         case CYBLE_EVT_GAP_AUTH_COMPLETE:
1650:.\Generated_Source\PSoC4/BLE_eventHandler.c ****         #if((CYBLE_GAP_ROLE_PERIPHERAL || CYBLE_GAP_ROLE_CENTRAL) && (CYBLE_BONDING_REQUIREMENT == 
1651:.\Generated_Source\PSoC4/BLE_eventHandler.c ****             cyBle_peerBonding = ((CYBLE_GAP_AUTH_INFO_T *)eventParam)->bonding;
 1155              		.loc 1 1651 0
 1156 0184 3B68     		ldr	r3, [r7]
 1157 0186 5A78     		ldrb	r2, [r3, #1]
 1158 0188 854B     		ldr	r3, .L91+56
 1159 018a 1A70     		strb	r2, [r3]
1652:.\Generated_Source\PSoC4/BLE_eventHandler.c ****         #endif  /* CYBLE_BONDING_REQUIREMENT == CYBLE_BONDING_YES */
1653:.\Generated_Source\PSoC4/BLE_eventHandler.c ****             break;
 1160              		.loc 1 1653 0
 1161 018c 15E1     		b	.L77
 1162              	.L50:
1654:.\Generated_Source\PSoC4/BLE_eventHandler.c ****         
1655:.\Generated_Source\PSoC4/BLE_eventHandler.c ****         case CYBLE_EVT_GAP_CONNECTION_UPDATE_COMPLETE:
1656:.\Generated_Source\PSoC4/BLE_eventHandler.c ****             CyBle_GapConnUpdateCompleteEventHandler((const CYBLE_GAP_CONN_PARAM_UPDATED_IN_CONTROLL
 1163              		.loc 1 1656 0
 1164 018e 3B68     		ldr	r3, [r7]
 1165 0190 181C     		mov	r0, r3
 1166 0192 FFF7FEFF 		bl	CyBle_GapConnUpdateCompleteEventHandler
1657:.\Generated_Source\PSoC4/BLE_eventHandler.c ****             break;
 1167              		.loc 1 1657 0
 1168 0196 10E1     		b	.L77
 1169              	.L48:
1658:.\Generated_Source\PSoC4/BLE_eventHandler.c ****             
1659:.\Generated_Source\PSoC4/BLE_eventHandler.c ****     #if(CYBLE_LL_PRIVACY_FEATURE != 0u)        
1660:.\Generated_Source\PSoC4/BLE_eventHandler.c ****         case CYBLE_EVT_GAP_ENHANCE_CONN_COMPLETE:
1661:.\Generated_Source\PSoC4/BLE_eventHandler.c ****         {
1662:.\Generated_Source\PSoC4/BLE_eventHandler.c ****             CYBLE_GAP_CONN_PARAM_UPDATED_IN_CONTROLLER_T  connCParam;
1663:.\Generated_Source\PSoC4/BLE_eventHandler.c ****             CYBLE_GAP_ENHANCE_CONN_COMPLETE_T *connEnhanceParam;
1664:.\Generated_Source\PSoC4/BLE_eventHandler.c ****             
1665:.\Generated_Source\PSoC4/BLE_eventHandler.c ****             connEnhanceParam = (CYBLE_GAP_ENHANCE_CONN_COMPLETE_T *)eventParam;
1666:.\Generated_Source\PSoC4/BLE_eventHandler.c ****             connCParam.status = connEnhanceParam->status;
1667:.\Generated_Source\PSoC4/BLE_eventHandler.c ****             connCParam.connIntv = connEnhanceParam->connIntv;
ARM GAS  C:\Users\ADMINI~1\AppData\Local\Temp\ccs1OUCB.s 			page 51


1668:.\Generated_Source\PSoC4/BLE_eventHandler.c ****             connCParam.connLatency = connEnhanceParam->connLatency;
1669:.\Generated_Source\PSoC4/BLE_eventHandler.c ****             connCParam.supervisionTO = connEnhanceParam->supervisionTo;
1670:.\Generated_Source\PSoC4/BLE_eventHandler.c ****             CyBle_GapConnUpdateCompleteEventHandler((const CYBLE_GAP_CONN_PARAM_UPDATED_IN_CONTROLL
1671:.\Generated_Source\PSoC4/BLE_eventHandler.c ****             
1672:.\Generated_Source\PSoC4/BLE_eventHandler.c ****             #if(CYBLE_GAP_ROLE_CENTRAL)
1673:.\Generated_Source\PSoC4/BLE_eventHandler.c ****                 if(cyBle_connectingTimeout != 0u)
1674:.\Generated_Source\PSoC4/BLE_eventHandler.c ****                 {
1675:.\Generated_Source\PSoC4/BLE_eventHandler.c ****                    (void)CyBle_StopTimer();
1676:.\Generated_Source\PSoC4/BLE_eventHandler.c ****                 }
1677:.\Generated_Source\PSoC4/BLE_eventHandler.c ****             #endif /* CYBLE_GAP_ROLE_CENTRAL */
1678:.\Generated_Source\PSoC4/BLE_eventHandler.c ****             CyBle_SetState(CYBLE_STATE_CONNECTED);
1679:.\Generated_Source\PSoC4/BLE_eventHandler.c ****         }
1680:.\Generated_Source\PSoC4/BLE_eventHandler.c ****             break;
1681:.\Generated_Source\PSoC4/BLE_eventHandler.c ****     #endif /* CYBLE_LL_PRIVACY_FEATURE != 0u */      
1682:.\Generated_Source\PSoC4/BLE_eventHandler.c ****             
1683:.\Generated_Source\PSoC4/BLE_eventHandler.c ****         case CYBLE_EVT_GAP_DEVICE_CONNECTED:
1684:.\Generated_Source\PSoC4/BLE_eventHandler.c ****             CyBle_GapConnUpdateCompleteEventHandler((const CYBLE_GAP_CONN_PARAM_UPDATED_IN_CONTROLL
 1170              		.loc 1 1684 0
 1171 0198 3B68     		ldr	r3, [r7]
 1172 019a 181C     		mov	r0, r3
 1173 019c FFF7FEFF 		bl	CyBle_GapConnUpdateCompleteEventHandler
1685:.\Generated_Source\PSoC4/BLE_eventHandler.c ****             #if(CYBLE_GAP_ROLE_CENTRAL)
1686:.\Generated_Source\PSoC4/BLE_eventHandler.c ****                 if(cyBle_connectingTimeout != 0u)
 1174              		.loc 1 1686 0
 1175 01a0 804B     		ldr	r3, .L91+60
 1176 01a2 1B88     		ldrh	r3, [r3]
 1177 01a4 002B     		cmp	r3, #0
 1178 01a6 01D0     		beq	.L82
1687:.\Generated_Source\PSoC4/BLE_eventHandler.c ****                 {
1688:.\Generated_Source\PSoC4/BLE_eventHandler.c ****                    (void)CyBle_StopTimer();
 1179              		.loc 1 1688 0
 1180 01a8 FFF7FEFF 		bl	CyBle_StopTimer
 1181              	.L82:
1689:.\Generated_Source\PSoC4/BLE_eventHandler.c ****                 }
1690:.\Generated_Source\PSoC4/BLE_eventHandler.c ****             #endif /* CYBLE_GAP_ROLE_CENTRAL */
1691:.\Generated_Source\PSoC4/BLE_eventHandler.c ****             CyBle_SetState(CYBLE_STATE_CONNECTED);
 1182              		.loc 1 1691 0
 1183 01ac 764B     		ldr	r3, .L91+32
 1184 01ae 0222     		mov	r2, #2
 1185 01b0 1A70     		strb	r2, [r3]
1692:.\Generated_Source\PSoC4/BLE_eventHandler.c ****             break;
 1186              		.loc 1 1692 0
 1187 01b2 02E1     		b	.L77
 1188              	.L49:
1693:.\Generated_Source\PSoC4/BLE_eventHandler.c **** 
1694:.\Generated_Source\PSoC4/BLE_eventHandler.c ****         case CYBLE_EVT_GAP_DEVICE_DISCONNECTED:
1695:.\Generated_Source\PSoC4/BLE_eventHandler.c ****             CyBle_SetState(CYBLE_STATE_DISCONNECTED);
 1189              		.loc 1 1695 0
 1190 01b4 744B     		ldr	r3, .L91+32
 1191 01b6 0522     		mov	r2, #5
 1192 01b8 1A70     		strb	r2, [r3]
1696:.\Generated_Source\PSoC4/BLE_eventHandler.c ****             break;
 1193              		.loc 1 1696 0
 1194 01ba FEE0     		b	.L77
 1195              	.L51:
1697:.\Generated_Source\PSoC4/BLE_eventHandler.c ****         #if(CYBLE_GAP_ROLE_PERIPHERAL || CYBLE_GAP_ROLE_BROADCASTER)
1698:.\Generated_Source\PSoC4/BLE_eventHandler.c ****             
ARM GAS  C:\Users\ADMINI~1\AppData\Local\Temp\ccs1OUCB.s 			page 52


1699:.\Generated_Source\PSoC4/BLE_eventHandler.c ****         case CYBLE_EVT_GAPP_ADVERTISEMENT_START_STOP:
1700:.\Generated_Source\PSoC4/BLE_eventHandler.c ****             #ifdef CYBLE_CPS_SERVER
1701:.\Generated_Source\PSoC4/BLE_eventHandler.c ****                 #if(CYBLE_GAP_ROLE_BROADCASTER)
1702:.\Generated_Source\PSoC4/BLE_eventHandler.c ****                     CyBle_CpssAdvertisementStartStopEventHandler();
1703:.\Generated_Source\PSoC4/BLE_eventHandler.c ****                 #endif /* CYBLE_GAP_ROLE_BROADCASTER */
1704:.\Generated_Source\PSoC4/BLE_eventHandler.c ****             #endif /* CYBLE_CPS_SERVER */
1705:.\Generated_Source\PSoC4/BLE_eventHandler.c ****             
1706:.\Generated_Source\PSoC4/BLE_eventHandler.c ****             if((CYBLE_STATE_CONNECTED != CyBle_GetState()) && ((cyBle_eventHandlerFlag & CYBLE_CALL
1707:.\Generated_Source\PSoC4/BLE_eventHandler.c ****             {
1708:.\Generated_Source\PSoC4/BLE_eventHandler.c ****                 /* After CyBle_GappStartAdvertisement first event indicates that advertising has be
1709:.\Generated_Source\PSoC4/BLE_eventHandler.c ****                 if(0u != (cyBle_eventHandlerFlag & CYBLE_START_FLAG))
1710:.\Generated_Source\PSoC4/BLE_eventHandler.c ****                 {
1711:.\Generated_Source\PSoC4/BLE_eventHandler.c ****                     CyBle_SetState(CYBLE_STATE_ADVERTISING);
1712:.\Generated_Source\PSoC4/BLE_eventHandler.c ****                     cyBle_eventHandlerFlag &= (uint8)~CYBLE_START_FLAG;
1713:.\Generated_Source\PSoC4/BLE_eventHandler.c ****                 }
1714:.\Generated_Source\PSoC4/BLE_eventHandler.c ****                 /* When application initiated stop advertisement */
1715:.\Generated_Source\PSoC4/BLE_eventHandler.c ****                 else if(0u != (cyBle_eventHandlerFlag & CYBLE_STOP_FLAG))
1716:.\Generated_Source\PSoC4/BLE_eventHandler.c ****                 {
1717:.\Generated_Source\PSoC4/BLE_eventHandler.c ****                     CyBle_SetState(CYBLE_STATE_DISCONNECTED);  
1718:.\Generated_Source\PSoC4/BLE_eventHandler.c ****                     cyBle_eventHandlerFlag &= (uint8)~CYBLE_STOP_FLAG;
1719:.\Generated_Source\PSoC4/BLE_eventHandler.c ****                 }
1720:.\Generated_Source\PSoC4/BLE_eventHandler.c ****                 else /* Following event indicates that advertising has been stopped */
1721:.\Generated_Source\PSoC4/BLE_eventHandler.c ****                 {
1722:.\Generated_Source\PSoC4/BLE_eventHandler.c ****                     if(CYBLE_STATE_ADVERTISING == CyBle_GetState())
1723:.\Generated_Source\PSoC4/BLE_eventHandler.c ****                     {
1724:.\Generated_Source\PSoC4/BLE_eventHandler.c ****                         CyBle_SetState(CYBLE_STATE_DISCONNECTED);
1725:.\Generated_Source\PSoC4/BLE_eventHandler.c ****                     #if ((CYBLE_SLOW_ADV_ENABLED != 0u) && (CYBLE_FAST_ADV_TIMEOUT != 0u))
1726:.\Generated_Source\PSoC4/BLE_eventHandler.c ****                         if(cyBle_advertisingIntervalType == CYBLE_ADVERTISING_FAST)
1727:.\Generated_Source\PSoC4/BLE_eventHandler.c ****                         {
1728:.\Generated_Source\PSoC4/BLE_eventHandler.c ****                             /* When fast advertising time out occur: Start slow advertising */
1729:.\Generated_Source\PSoC4/BLE_eventHandler.c ****                             if(CYBLE_ERROR_OK == CyBle_GappStartAdvertisement(CYBLE_ADVERTISING_SLO
1730:.\Generated_Source\PSoC4/BLE_eventHandler.c ****                             {
1731:.\Generated_Source\PSoC4/BLE_eventHandler.c ****                                 CyBle_SetState(CYBLE_STATE_ADVERTISING);
1732:.\Generated_Source\PSoC4/BLE_eventHandler.c ****                             }
1733:.\Generated_Source\PSoC4/BLE_eventHandler.c ****                         }
1734:.\Generated_Source\PSoC4/BLE_eventHandler.c ****                     #endif /* CYBLE_SLOW_ADV_ENABLED */
1735:.\Generated_Source\PSoC4/BLE_eventHandler.c ****                     }
1736:.\Generated_Source\PSoC4/BLE_eventHandler.c ****                 }
1737:.\Generated_Source\PSoC4/BLE_eventHandler.c ****             }
1738:.\Generated_Source\PSoC4/BLE_eventHandler.c ****             break;
1739:.\Generated_Source\PSoC4/BLE_eventHandler.c ****         #endif /* CYBLE_GAP_ROLE_PERIPHERAL || CYBLE_GAP_ROLE_BROADCASTER */
1740:.\Generated_Source\PSoC4/BLE_eventHandler.c ****         
1741:.\Generated_Source\PSoC4/BLE_eventHandler.c ****         #if(CYBLE_GAP_ROLE_CENTRAL || CYBLE_GAP_ROLE_OBSERVER)    
1742:.\Generated_Source\PSoC4/BLE_eventHandler.c ****         case CYBLE_EVT_GAPC_SCAN_START_STOP:
1743:.\Generated_Source\PSoC4/BLE_eventHandler.c ****             #ifdef CYBLE_CPS_CLIENT
1744:.\Generated_Source\PSoC4/BLE_eventHandler.c ****                 CyBle_CpscScanStartStopEventHandler();
1745:.\Generated_Source\PSoC4/BLE_eventHandler.c ****             #endif /* CYBLE_CPS_CLIENT */
1746:.\Generated_Source\PSoC4/BLE_eventHandler.c ****             
1747:.\Generated_Source\PSoC4/BLE_eventHandler.c ****             if((CYBLE_STATE_CONNECTED != CyBle_GetState()) && ((cyBle_eventHandlerFlag & CYBLE_CALL
 1196              		.loc 1 1747 0
 1197 01bc 724B     		ldr	r3, .L91+32
 1198 01be 1B78     		ldrb	r3, [r3]
 1199 01c0 022B     		cmp	r3, #2
 1200 01c2 34D0     		beq	.L83
 1201              		.loc 1 1747 0 is_stmt 0 discriminator 1
 1202 01c4 684B     		ldr	r3, .L91
 1203 01c6 1B78     		ldrb	r3, [r3]
ARM GAS  C:\Users\ADMINI~1\AppData\Local\Temp\ccs1OUCB.s 			page 53


 1204 01c8 DBB2     		uxtb	r3, r3
 1205 01ca 1A1C     		mov	r2, r3
 1206 01cc 0123     		mov	r3, #1
 1207 01ce 1340     		and	r3, r2
 1208 01d0 2DD0     		beq	.L83
1748:.\Generated_Source\PSoC4/BLE_eventHandler.c ****             {
1749:.\Generated_Source\PSoC4/BLE_eventHandler.c ****                 /* After CyBle_GapcStartScan first event indicates that scanning has been started *
1750:.\Generated_Source\PSoC4/BLE_eventHandler.c ****                 if(0u != (cyBle_eventHandlerFlag & CYBLE_START_FLAG))
 1209              		.loc 1 1750 0 is_stmt 1
 1210 01d2 654B     		ldr	r3, .L91
 1211 01d4 1B78     		ldrb	r3, [r3]
 1212 01d6 DBB2     		uxtb	r3, r3
 1213 01d8 1A1C     		mov	r2, r3
 1214 01da 0423     		mov	r3, #4
 1215 01dc 1340     		and	r3, r2
 1216 01de 0BD0     		beq	.L84
1751:.\Generated_Source\PSoC4/BLE_eventHandler.c ****                 {
1752:.\Generated_Source\PSoC4/BLE_eventHandler.c ****                     CyBle_SetState(CYBLE_STATE_SCANNING);
 1217              		.loc 1 1752 0
 1218 01e0 694B     		ldr	r3, .L91+32
 1219 01e2 0322     		mov	r2, #3
 1220 01e4 1A70     		strb	r2, [r3]
1753:.\Generated_Source\PSoC4/BLE_eventHandler.c ****                     cyBle_eventHandlerFlag &= (uint8)~CYBLE_START_FLAG;
 1221              		.loc 1 1753 0
 1222 01e6 604B     		ldr	r3, .L91
 1223 01e8 1B78     		ldrb	r3, [r3]
 1224 01ea DBB2     		uxtb	r3, r3
 1225 01ec 0422     		mov	r2, #4
 1226 01ee 9343     		bic	r3, r2
 1227 01f0 DAB2     		uxtb	r2, r3
 1228 01f2 5D4B     		ldr	r3, .L91
 1229 01f4 1A70     		strb	r2, [r3]
 1230 01f6 1AE0     		b	.L83
 1231              	.L84:
1754:.\Generated_Source\PSoC4/BLE_eventHandler.c ****                 }
1755:.\Generated_Source\PSoC4/BLE_eventHandler.c ****                 /* When application initiated stop scanning */
1756:.\Generated_Source\PSoC4/BLE_eventHandler.c ****                 else if(0u != (cyBle_eventHandlerFlag & CYBLE_STOP_FLAG))
 1232              		.loc 1 1756 0
 1233 01f8 5B4B     		ldr	r3, .L91
 1234 01fa 1B78     		ldrb	r3, [r3]
 1235 01fc DBB2     		uxtb	r3, r3
 1236 01fe 1A1C     		mov	r2, r3
 1237 0200 0823     		mov	r3, #8
 1238 0202 1340     		and	r3, r2
 1239 0204 0BD0     		beq	.L85
1757:.\Generated_Source\PSoC4/BLE_eventHandler.c ****                 {
1758:.\Generated_Source\PSoC4/BLE_eventHandler.c ****                     CyBle_SetState(CYBLE_STATE_DISCONNECTED);  
 1240              		.loc 1 1758 0
 1241 0206 604B     		ldr	r3, .L91+32
 1242 0208 0522     		mov	r2, #5
 1243 020a 1A70     		strb	r2, [r3]
1759:.\Generated_Source\PSoC4/BLE_eventHandler.c ****                     cyBle_eventHandlerFlag &= (uint8)~CYBLE_STOP_FLAG;
 1244              		.loc 1 1759 0
 1245 020c 564B     		ldr	r3, .L91
 1246 020e 1B78     		ldrb	r3, [r3]
 1247 0210 DBB2     		uxtb	r3, r3
 1248 0212 0822     		mov	r2, #8
ARM GAS  C:\Users\ADMINI~1\AppData\Local\Temp\ccs1OUCB.s 			page 54


 1249 0214 9343     		bic	r3, r2
 1250 0216 DAB2     		uxtb	r2, r3
 1251 0218 534B     		ldr	r3, .L91
 1252 021a 1A70     		strb	r2, [r3]
 1253 021c 07E0     		b	.L83
 1254              	.L85:
1760:.\Generated_Source\PSoC4/BLE_eventHandler.c ****                 }
1761:.\Generated_Source\PSoC4/BLE_eventHandler.c ****                 else /* Following event indicates that scanning has been stopped by stack */
1762:.\Generated_Source\PSoC4/BLE_eventHandler.c ****                 {
1763:.\Generated_Source\PSoC4/BLE_eventHandler.c ****                     if(CYBLE_STATE_SCANNING == CyBle_GetState())
 1255              		.loc 1 1763 0
 1256 021e 5A4B     		ldr	r3, .L91+32
 1257 0220 1B78     		ldrb	r3, [r3]
 1258 0222 032B     		cmp	r3, #3
 1259 0224 03D1     		bne	.L83
1764:.\Generated_Source\PSoC4/BLE_eventHandler.c ****                     {
1765:.\Generated_Source\PSoC4/BLE_eventHandler.c ****                         CyBle_SetState(CYBLE_STATE_DISCONNECTED);  
 1260              		.loc 1 1765 0
 1261 0226 584B     		ldr	r3, .L91+32
 1262 0228 0522     		mov	r2, #5
 1263 022a 1A70     		strb	r2, [r3]
1766:.\Generated_Source\PSoC4/BLE_eventHandler.c ****                     #if ((CYBLE_SLOW_SCAN_ENABLED != 0u) && (CYBLE_FAST_SCAN_TIMEOUT != 0u))
1767:.\Generated_Source\PSoC4/BLE_eventHandler.c ****                         if(cyBle_scanningIntervalType == CYBLE_SCANNING_FAST)
1768:.\Generated_Source\PSoC4/BLE_eventHandler.c ****                         {
1769:.\Generated_Source\PSoC4/BLE_eventHandler.c ****                             /* When fast scanning time out occur: Start slow scanning */
1770:.\Generated_Source\PSoC4/BLE_eventHandler.c ****                             if(CYBLE_ERROR_OK == CyBle_GapcStartScan(CYBLE_SCANNING_SLOW))
1771:.\Generated_Source\PSoC4/BLE_eventHandler.c ****                             {
1772:.\Generated_Source\PSoC4/BLE_eventHandler.c ****                                 CyBle_SetState(CYBLE_STATE_SCANNING);
1773:.\Generated_Source\PSoC4/BLE_eventHandler.c ****                             }
1774:.\Generated_Source\PSoC4/BLE_eventHandler.c ****                         }
1775:.\Generated_Source\PSoC4/BLE_eventHandler.c ****                     #endif /* CYBLE_SLOW_SCAN_ENABLED */
1776:.\Generated_Source\PSoC4/BLE_eventHandler.c ****                     }
1777:.\Generated_Source\PSoC4/BLE_eventHandler.c ****                 }
1778:.\Generated_Source\PSoC4/BLE_eventHandler.c ****             }
1779:.\Generated_Source\PSoC4/BLE_eventHandler.c ****             break;
 1264              		.loc 1 1779 0
 1265 022c C5E0     		b	.L77
 1266              	.L83:
 1267 022e C4E0     		b	.L77
 1268              	.L73:
1780:.\Generated_Source\PSoC4/BLE_eventHandler.c ****         #endif /* CYBLE_GAP_ROLE_CENTRAL || CYBLE_GAP_ROLE_OBSERVER */
1781:.\Generated_Source\PSoC4/BLE_eventHandler.c **** 
1782:.\Generated_Source\PSoC4/BLE_eventHandler.c ****         /**********************************************************
1783:.\Generated_Source\PSoC4/BLE_eventHandler.c ****         * L2AP events 
1784:.\Generated_Source\PSoC4/BLE_eventHandler.c ****         ************************************************************/
1785:.\Generated_Source\PSoC4/BLE_eventHandler.c ****         case CYBLE_EVT_L2CAP_CONN_PARAM_UPDATE_RSP:
1786:.\Generated_Source\PSoC4/BLE_eventHandler.c ****             CyBle_L2Cap_ConnParamUpdateRspEventHandler(*(uint16 *)eventParam);
 1269              		.loc 1 1786 0
 1270 0230 3B68     		ldr	r3, [r7]
 1271 0232 1B88     		ldrh	r3, [r3]
 1272 0234 181C     		mov	r0, r3
 1273 0236 FFF7FEFF 		bl	CyBle_L2Cap_ConnParamUpdateRspEventHandler
1787:.\Generated_Source\PSoC4/BLE_eventHandler.c ****             break;
 1274              		.loc 1 1787 0
 1275 023a BEE0     		b	.L77
 1276              	.L53:
1788:.\Generated_Source\PSoC4/BLE_eventHandler.c ****         
ARM GAS  C:\Users\ADMINI~1\AppData\Local\Temp\ccs1OUCB.s 			page 55


1789:.\Generated_Source\PSoC4/BLE_eventHandler.c ****         /**********************************************************
1790:.\Generated_Source\PSoC4/BLE_eventHandler.c ****         * GATT events
1791:.\Generated_Source\PSoC4/BLE_eventHandler.c ****         ************************************************************/        
1792:.\Generated_Source\PSoC4/BLE_eventHandler.c ****         case CYBLE_EVT_GATT_CONNECT_IND:
1793:.\Generated_Source\PSoC4/BLE_eventHandler.c ****             cyBle_connHandle = *(CYBLE_CONN_HANDLE_T *)eventParam;
 1277              		.loc 1 1793 0
 1278 023c 574A     		ldr	r2, .L91+52
 1279 023e 3B68     		ldr	r3, [r7]
 1280 0240 111C     		mov	r1, r2
 1281 0242 1A1C     		mov	r2, r3
 1282 0244 0223     		mov	r3, #2
 1283 0246 081C     		mov	r0, r1
 1284 0248 111C     		mov	r1, r2
 1285 024a 1A1C     		mov	r2, r3
 1286 024c FFF7FEFF 		bl	memcpy
1794:.\Generated_Source\PSoC4/BLE_eventHandler.c ****             cyBle_busyStatus = CYBLE_STACK_STATE_FREE;
 1287              		.loc 1 1794 0
 1288 0250 4E4B     		ldr	r3, .L91+36
 1289 0252 0022     		mov	r2, #0
 1290 0254 1A70     		strb	r2, [r3]
1795:.\Generated_Source\PSoC4/BLE_eventHandler.c ****             
1796:.\Generated_Source\PSoC4/BLE_eventHandler.c ****         #if((CYBLE_GATT_ROLE_SERVER) && (CYBLE_GATT_DB_CCCD_COUNT != 0u) && \
1797:.\Generated_Source\PSoC4/BLE_eventHandler.c ****             (CYBLE_BONDING_REQUIREMENT == CYBLE_BONDING_YES))
1798:.\Generated_Source\PSoC4/BLE_eventHandler.c ****             /* Init CCCD values in RAM when bonding is enabled */
1799:.\Generated_Source\PSoC4/BLE_eventHandler.c ****         	(void) memcpy (cyBle_attValuesCCCD, cyBle_flashStorage.attValuesCCCDFlashMemory[cyBle_conn
 1291              		.loc 1 1799 0
 1292 0256 514B     		ldr	r3, .L91+52
 1293 0258 1B78     		ldrb	r3, [r3]
 1294 025a 3D33     		add	r3, r3, #61
 1295 025c FF33     		add	r3, r3, #255
 1296 025e 5A00     		lsl	r2, r3, #1
 1297 0260 514B     		ldr	r3, .L91+64
 1298 0262 D318     		add	r3, r2, r3
 1299 0264 0133     		add	r3, r3, #1
 1300 0266 514A     		ldr	r2, .L91+68
 1301 0268 111C     		mov	r1, r2
 1302 026a 1A1C     		mov	r2, r3
 1303 026c 0223     		mov	r3, #2
 1304 026e 081C     		mov	r0, r1
 1305 0270 111C     		mov	r1, r2
 1306 0272 1A1C     		mov	r2, r3
 1307 0274 FFF7FEFF 		bl	memcpy
1800:.\Generated_Source\PSoC4/BLE_eventHandler.c ****                             CYBLE_GATT_DB_CCCD_COUNT);
1801:.\Generated_Source\PSoC4/BLE_eventHandler.c ****         #endif /* CYBLE_GATT_ROLE_SERVER && (CYBLE_BONDING_REQUIREMENT == CYBLE_BONDING_YES) */
1802:.\Generated_Source\PSoC4/BLE_eventHandler.c ****         
1803:.\Generated_Source\PSoC4/BLE_eventHandler.c ****         #if (CYBLE_GATT_ROLE_CLIENT)
1804:.\Generated_Source\PSoC4/BLE_eventHandler.c ****             CyBle_SetClientState(CYBLE_CLIENT_STATE_CONNECTED);
 1308              		.loc 1 1804 0
 1309 0278 4D4B     		ldr	r3, .L91+72
 1310 027a 0022     		mov	r2, #0
 1311 027c 1A70     		strb	r2, [r3]
1805:.\Generated_Source\PSoC4/BLE_eventHandler.c ****         #endif /* CYBLE_GATT_ROLE_CLIENT */
1806:.\Generated_Source\PSoC4/BLE_eventHandler.c ****         
1807:.\Generated_Source\PSoC4/BLE_eventHandler.c ****             CyBle_GattConnectReqHandler();
 1312              		.loc 1 1807 0
 1313 027e FFF7FEFF 		bl	CyBle_GattConnectReqHandler
1808:.\Generated_Source\PSoC4/BLE_eventHandler.c ****             break;
ARM GAS  C:\Users\ADMINI~1\AppData\Local\Temp\ccs1OUCB.s 			page 56


 1314              		.loc 1 1808 0
 1315 0282 9AE0     		b	.L77
 1316              	.L54:
1809:.\Generated_Source\PSoC4/BLE_eventHandler.c **** 
1810:.\Generated_Source\PSoC4/BLE_eventHandler.c ****         case CYBLE_EVT_GATT_DISCONNECT_IND:
1811:.\Generated_Source\PSoC4/BLE_eventHandler.c ****             CyBle_GattDisconnectEventHandler();
 1317              		.loc 1 1811 0
 1318 0284 FFF7FEFF 		bl	CyBle_GattDisconnectEventHandler
1812:.\Generated_Source\PSoC4/BLE_eventHandler.c ****             break;
 1319              		.loc 1 1812 0
 1320 0288 97E0     		b	.L77
 1321              	.L55:
 1322              	.LBB8:
1813:.\Generated_Source\PSoC4/BLE_eventHandler.c **** 
1814:.\Generated_Source\PSoC4/BLE_eventHandler.c ****     #if((CYBLE_GATT_ROLE_SERVER) || (CYBLE_GATT_ROLE_CLIENT))
1815:.\Generated_Source\PSoC4/BLE_eventHandler.c ****         case CYBLE_EVT_GATTS_XCNHG_MTU_REQ:
1816:.\Generated_Source\PSoC4/BLE_eventHandler.c ****             {
1817:.\Generated_Source\PSoC4/BLE_eventHandler.c ****                 uint16 cyBle_mtuSize;
1818:.\Generated_Source\PSoC4/BLE_eventHandler.c ****                 if(CYBLE_GATT_MTU > ((CYBLE_GATT_XCHG_MTU_PARAM_T *)eventParam)->mtu)
 1323              		.loc 1 1818 0
 1324 028a 3B68     		ldr	r3, [r7]
 1325 028c 5B88     		ldrh	r3, [r3, #2]
 1326 028e 162B     		cmp	r3, #22
 1327 0290 05D8     		bhi	.L86
1819:.\Generated_Source\PSoC4/BLE_eventHandler.c ****                 {
1820:.\Generated_Source\PSoC4/BLE_eventHandler.c ****                     cyBle_mtuSize = ((CYBLE_GATT_XCHG_MTU_PARAM_T *)eventParam)->mtu;
 1328              		.loc 1 1820 0
 1329 0292 1E23     		mov	r3, #30
 1330 0294 FB18     		add	r3, r7, r3
 1331 0296 3A68     		ldr	r2, [r7]
 1332 0298 5288     		ldrh	r2, [r2, #2]
 1333 029a 1A80     		strh	r2, [r3]
 1334 029c 03E0     		b	.L87
 1335              	.L86:
1821:.\Generated_Source\PSoC4/BLE_eventHandler.c ****                 }
1822:.\Generated_Source\PSoC4/BLE_eventHandler.c ****                 else
1823:.\Generated_Source\PSoC4/BLE_eventHandler.c ****                 {
1824:.\Generated_Source\PSoC4/BLE_eventHandler.c ****                     cyBle_mtuSize = CYBLE_GATT_MTU;
 1336              		.loc 1 1824 0
 1337 029e 1E23     		mov	r3, #30
 1338 02a0 FB18     		add	r3, r7, r3
 1339 02a2 1722     		mov	r2, #23
 1340 02a4 1A80     		strh	r2, [r3]
 1341              	.L87:
1825:.\Generated_Source\PSoC4/BLE_eventHandler.c ****                 }
1826:.\Generated_Source\PSoC4/BLE_eventHandler.c ****                 (void)CyBle_GattsExchangeMtuRsp(((CYBLE_GATT_XCHG_MTU_PARAM_T *)eventParam)->connHa
 1342              		.loc 1 1826 0
 1343 02a6 3B68     		ldr	r3, [r7]
 1344 02a8 1E22     		mov	r2, #30
 1345 02aa BA18     		add	r2, r7, r2
 1346 02ac 1188     		ldrh	r1, [r2]
 1347 02ae 1A88     		ldrh	r2, [r3]
 1348 02b0 0023     		mov	r3, #0
 1349 02b2 1204     		lsl	r2, r2, #16
 1350 02b4 120C     		lsr	r2, r2, #16
 1351 02b6 1B0C     		lsr	r3, r3, #16
 1352 02b8 1B04     		lsl	r3, r3, #16
ARM GAS  C:\Users\ADMINI~1\AppData\Local\Temp\ccs1OUCB.s 			page 57


 1353 02ba 1343     		orr	r3, r2
 1354 02bc 181C     		mov	r0, r3
 1355 02be FFF7FEFF 		bl	CyBle_GattsExchangeMtuRsp
 1356              	.LBE8:
1827:.\Generated_Source\PSoC4/BLE_eventHandler.c ****             }
1828:.\Generated_Source\PSoC4/BLE_eventHandler.c ****             break;
 1357              		.loc 1 1828 0
 1358 02c2 7AE0     		b	.L77
 1359              	.L62:
1829:.\Generated_Source\PSoC4/BLE_eventHandler.c ****     #endif /* CYBLE_GATT_ROLE_SERVER || CYBLE_GATT_ROLE_CLIENT */
1830:.\Generated_Source\PSoC4/BLE_eventHandler.c ****     
1831:.\Generated_Source\PSoC4/BLE_eventHandler.c ****     #if (CYBLE_GATT_ROLE_CLIENT)
1832:.\Generated_Source\PSoC4/BLE_eventHandler.c ****         case CYBLE_EVT_GAPC_SCAN_PROGRESS_RESULT:
1833:.\Generated_Source\PSoC4/BLE_eventHandler.c ****         #ifdef CYBLE_CPS_CLIENT
1834:.\Generated_Source\PSoC4/BLE_eventHandler.c ****             CyBle_CpscScanProcessEventHandler((CYBLE_GAPC_ADV_REPORT_T *)eventParam);
1835:.\Generated_Source\PSoC4/BLE_eventHandler.c ****         #endif /* CYBLE_CPS_CLIENT */
1836:.\Generated_Source\PSoC4/BLE_eventHandler.c ****             break;
1837:.\Generated_Source\PSoC4/BLE_eventHandler.c ****     #endif /* CYBLE_GATT_ROLE_CLIENT */
1838:.\Generated_Source\PSoC4/BLE_eventHandler.c **** 
1839:.\Generated_Source\PSoC4/BLE_eventHandler.c ****     #if(CYBLE_GATT_ROLE_SERVER)
1840:.\Generated_Source\PSoC4/BLE_eventHandler.c ****         case CYBLE_EVT_GATTS_WRITE_REQ:
1841:.\Generated_Source\PSoC4/BLE_eventHandler.c ****             CyBle_WriteReqHandler((CYBLE_GATTS_WRITE_REQ_PARAM_T *)eventParam);
 1360              		.loc 1 1841 0
 1361 02c4 3B68     		ldr	r3, [r7]
 1362 02c6 181C     		mov	r0, r3
 1363 02c8 FFF7FEFF 		bl	CyBle_WriteReqHandler
1842:.\Generated_Source\PSoC4/BLE_eventHandler.c ****             break;
 1364              		.loc 1 1842 0
 1365 02cc 75E0     		b	.L77
 1366              	.L70:
1843:.\Generated_Source\PSoC4/BLE_eventHandler.c **** 
1844:.\Generated_Source\PSoC4/BLE_eventHandler.c ****         case CYBLE_EVT_GATTS_WRITE_CMD_REQ:
1845:.\Generated_Source\PSoC4/BLE_eventHandler.c ****         #ifdef CYBLE_IAS_SERVER
1846:.\Generated_Source\PSoC4/BLE_eventHandler.c ****             if((cyBle_eventHandlerFlag & CYBLE_CALLBACK) != 0u)
1847:.\Generated_Source\PSoC4/BLE_eventHandler.c ****             {
1848:.\Generated_Source\PSoC4/BLE_eventHandler.c ****                 (void)CyBle_IassWriteCmdEventHandler((CYBLE_GATTS_WRITE_REQ_PARAM_T *)eventParam);
1849:.\Generated_Source\PSoC4/BLE_eventHandler.c ****             }
1850:.\Generated_Source\PSoC4/BLE_eventHandler.c ****         #endif /* CYBLE_IAS_SERVER */
1851:.\Generated_Source\PSoC4/BLE_eventHandler.c ****         #ifdef CYBLE_IPS_SERVER
1852:.\Generated_Source\PSoC4/BLE_eventHandler.c ****             if((cyBle_eventHandlerFlag & CYBLE_CALLBACK) != 0u)
1853:.\Generated_Source\PSoC4/BLE_eventHandler.c ****             {
1854:.\Generated_Source\PSoC4/BLE_eventHandler.c ****                 (void)CyBle_IpssWriteCmdEventHandler((CYBLE_GATTS_WRITE_REQ_PARAM_T *)eventParam);
1855:.\Generated_Source\PSoC4/BLE_eventHandler.c ****             }
1856:.\Generated_Source\PSoC4/BLE_eventHandler.c ****         #endif /* CYBLE_IPS_SERVER */
1857:.\Generated_Source\PSoC4/BLE_eventHandler.c ****         #ifdef CYBLE_HIDS_SERVER
1858:.\Generated_Source\PSoC4/BLE_eventHandler.c ****             if((cyBle_eventHandlerFlag & CYBLE_CALLBACK) != 0u)
1859:.\Generated_Source\PSoC4/BLE_eventHandler.c ****             {
1860:.\Generated_Source\PSoC4/BLE_eventHandler.c ****                 (void)CyBle_HidssWriteEventHandler((CYBLE_GATTS_WRITE_REQ_PARAM_T *)eventParam);
1861:.\Generated_Source\PSoC4/BLE_eventHandler.c ****             }
1862:.\Generated_Source\PSoC4/BLE_eventHandler.c ****         #endif /* CYBLE_HIDS_SERVER */
1863:.\Generated_Source\PSoC4/BLE_eventHandler.c ****         #ifdef CYBLE_PASS_SERVER
1864:.\Generated_Source\PSoC4/BLE_eventHandler.c ****             if((cyBle_eventHandlerFlag & CYBLE_CALLBACK) != 0u)
1865:.\Generated_Source\PSoC4/BLE_eventHandler.c ****             {
1866:.\Generated_Source\PSoC4/BLE_eventHandler.c ****                 (void)CyBle_PasssWriteCmdEventHandler((CYBLE_GATTS_WRITE_REQ_PARAM_T *)eventParam);
1867:.\Generated_Source\PSoC4/BLE_eventHandler.c ****             }
1868:.\Generated_Source\PSoC4/BLE_eventHandler.c ****         #endif /* CYBLE_PASS_SERVER */
1869:.\Generated_Source\PSoC4/BLE_eventHandler.c ****         #ifdef CYBLE_RTUS_SERVER
ARM GAS  C:\Users\ADMINI~1\AppData\Local\Temp\ccs1OUCB.s 			page 58


1870:.\Generated_Source\PSoC4/BLE_eventHandler.c ****             if((cyBle_eventHandlerFlag & CYBLE_CALLBACK) != 0u)
1871:.\Generated_Source\PSoC4/BLE_eventHandler.c ****             {
1872:.\Generated_Source\PSoC4/BLE_eventHandler.c ****                 (void)CyBle_RtussWriteCmdEventHandler((CYBLE_GATTS_WRITE_REQ_PARAM_T *)eventParam);
1873:.\Generated_Source\PSoC4/BLE_eventHandler.c ****             }
1874:.\Generated_Source\PSoC4/BLE_eventHandler.c ****         #endif /* CYBLE_RTUS_SERVER */
1875:.\Generated_Source\PSoC4/BLE_eventHandler.c ****         #ifdef CYBLE_SCPS_SERVER
1876:.\Generated_Source\PSoC4/BLE_eventHandler.c ****             if((cyBle_eventHandlerFlag & CYBLE_CALLBACK) != 0u)
1877:.\Generated_Source\PSoC4/BLE_eventHandler.c ****             {
1878:.\Generated_Source\PSoC4/BLE_eventHandler.c ****                 (void)CyBle_ScpssWriteEventHandler((CYBLE_GATTS_WRITE_REQ_PARAM_T *)eventParam);
1879:.\Generated_Source\PSoC4/BLE_eventHandler.c ****             }
1880:.\Generated_Source\PSoC4/BLE_eventHandler.c ****         #endif /* CYBLE_SCPS_SERVER */
1881:.\Generated_Source\PSoC4/BLE_eventHandler.c ****             break;
1882:.\Generated_Source\PSoC4/BLE_eventHandler.c ****         
1883:.\Generated_Source\PSoC4/BLE_eventHandler.c ****         case CYBLE_EVT_GATTS_PREP_WRITE_REQ:
1884:.\Generated_Source\PSoC4/BLE_eventHandler.c ****         #ifdef CYBLE_BMS_SERVER
1885:.\Generated_Source\PSoC4/BLE_eventHandler.c ****             CyBle_BmssPrepareWriteRequestEventHandler((CYBLE_GATTS_PREP_WRITE_REQ_PARAM_T *)eventPa
1886:.\Generated_Source\PSoC4/BLE_eventHandler.c ****         #endif /* CYBLE_BMS_SERVER */
1887:.\Generated_Source\PSoC4/BLE_eventHandler.c ****         #ifdef CYBLE_BTS_SERVER
1888:.\Generated_Source\PSoC4/BLE_eventHandler.c ****             if((cyBle_eventHandlerFlag & CYBLE_CALLBACK) != 0u)
1889:.\Generated_Source\PSoC4/BLE_eventHandler.c ****             {
1890:.\Generated_Source\PSoC4/BLE_eventHandler.c ****                 CyBle_BtssPrepareWriteRequestEventHandler((CYBLE_GATTS_PREP_WRITE_REQ_PARAM_T *)eve
1891:.\Generated_Source\PSoC4/BLE_eventHandler.c ****             }
1892:.\Generated_Source\PSoC4/BLE_eventHandler.c ****         #endif /* CYBLE_BTS_SERVER */
1893:.\Generated_Source\PSoC4/BLE_eventHandler.c ****         #ifdef CYBLE_ESS_SERVER
1894:.\Generated_Source\PSoC4/BLE_eventHandler.c ****             if((cyBle_eventHandlerFlag & CYBLE_CALLBACK) != 0u)
1895:.\Generated_Source\PSoC4/BLE_eventHandler.c ****             {
1896:.\Generated_Source\PSoC4/BLE_eventHandler.c ****                 CyBle_EsssPrepareWriteRequestEventHandler((CYBLE_GATTS_PREP_WRITE_REQ_PARAM_T *)eve
1897:.\Generated_Source\PSoC4/BLE_eventHandler.c ****             }
1898:.\Generated_Source\PSoC4/BLE_eventHandler.c ****         #endif /* CYBLE_ESS_SERVER */
1899:.\Generated_Source\PSoC4/BLE_eventHandler.c ****         #ifdef CYBLE_HPS_SERVER
1900:.\Generated_Source\PSoC4/BLE_eventHandler.c ****             if((cyBle_eventHandlerFlag & CYBLE_CALLBACK) != 0u)
1901:.\Generated_Source\PSoC4/BLE_eventHandler.c ****             {
1902:.\Generated_Source\PSoC4/BLE_eventHandler.c ****                 CyBle_HpssPrepareWriteRequestEventHandler((CYBLE_GATTS_PREP_WRITE_REQ_PARAM_T *)eve
1903:.\Generated_Source\PSoC4/BLE_eventHandler.c ****             }
1904:.\Generated_Source\PSoC4/BLE_eventHandler.c ****         #endif /* CYBLE_HPS_SERVER */
1905:.\Generated_Source\PSoC4/BLE_eventHandler.c ****         #ifdef CYBLE_IPS_SERVER
1906:.\Generated_Source\PSoC4/BLE_eventHandler.c ****             if((cyBle_eventHandlerFlag & CYBLE_CALLBACK) != 0u)
1907:.\Generated_Source\PSoC4/BLE_eventHandler.c ****             {
1908:.\Generated_Source\PSoC4/BLE_eventHandler.c ****                 CyBle_IpssPrepareWriteRequestEventHandler((CYBLE_GATTS_PREP_WRITE_REQ_PARAM_T *)eve
1909:.\Generated_Source\PSoC4/BLE_eventHandler.c ****             }
1910:.\Generated_Source\PSoC4/BLE_eventHandler.c ****         #endif /* CYBLE_IPS_SERVER */
1911:.\Generated_Source\PSoC4/BLE_eventHandler.c ****         #ifdef CYBLE_UDS_SERVER
1912:.\Generated_Source\PSoC4/BLE_eventHandler.c ****             if((cyBle_eventHandlerFlag & CYBLE_CALLBACK) != 0u)
1913:.\Generated_Source\PSoC4/BLE_eventHandler.c ****             {
1914:.\Generated_Source\PSoC4/BLE_eventHandler.c ****                 CyBle_UdssPrepareWriteRequestEventHandler((CYBLE_GATTS_PREP_WRITE_REQ_PARAM_T *)eve
1915:.\Generated_Source\PSoC4/BLE_eventHandler.c ****             }
1916:.\Generated_Source\PSoC4/BLE_eventHandler.c ****         #endif /* CYBLE_UDS_SERVER */
1917:.\Generated_Source\PSoC4/BLE_eventHandler.c ****             break;
1918:.\Generated_Source\PSoC4/BLE_eventHandler.c **** 
1919:.\Generated_Source\PSoC4/BLE_eventHandler.c ****         case CYBLE_EVT_GATTS_EXEC_WRITE_REQ:
1920:.\Generated_Source\PSoC4/BLE_eventHandler.c ****         #ifdef CYBLE_BMS_SERVER
1921:.\Generated_Source\PSoC4/BLE_eventHandler.c ****             CyBle_BmssExecuteWriteRequestEventHandler((CYBLE_GATTS_EXEC_WRITE_REQ_T *)eventParam);
1922:.\Generated_Source\PSoC4/BLE_eventHandler.c ****         #endif /* CYBLE_BMS_SERVER */
1923:.\Generated_Source\PSoC4/BLE_eventHandler.c ****         #ifdef CYBLE_BTS_SERVER
1924:.\Generated_Source\PSoC4/BLE_eventHandler.c ****             CyBle_BtssExecuteWriteRequestEventHandler((CYBLE_GATTS_EXEC_WRITE_REQ_T *)eventParam);
1925:.\Generated_Source\PSoC4/BLE_eventHandler.c ****         #endif /* CYBLE_BTS_SERVER */
1926:.\Generated_Source\PSoC4/BLE_eventHandler.c ****         #ifdef CYBLE_ESS_SERVER
ARM GAS  C:\Users\ADMINI~1\AppData\Local\Temp\ccs1OUCB.s 			page 59


1927:.\Generated_Source\PSoC4/BLE_eventHandler.c ****             CyBle_EsssExecuteWriteRequestEventHandler((CYBLE_GATTS_EXEC_WRITE_REQ_T *)eventParam);
1928:.\Generated_Source\PSoC4/BLE_eventHandler.c ****         #endif /* CYBLE_ESS_SERVER */
1929:.\Generated_Source\PSoC4/BLE_eventHandler.c ****         #ifdef CYBLE_HPS_SERVER
1930:.\Generated_Source\PSoC4/BLE_eventHandler.c ****             CyBle_HpssExecuteWriteRequestEventHandler((CYBLE_GATTS_EXEC_WRITE_REQ_T *)eventParam);
1931:.\Generated_Source\PSoC4/BLE_eventHandler.c ****         #endif /* CYBLE_HPS_SERVER */
1932:.\Generated_Source\PSoC4/BLE_eventHandler.c ****         #ifdef CYBLE_IPS_SERVER
1933:.\Generated_Source\PSoC4/BLE_eventHandler.c ****             CyBle_IpssExecuteWriteRequestEventHandler((CYBLE_GATTS_EXEC_WRITE_REQ_T *)eventParam);
1934:.\Generated_Source\PSoC4/BLE_eventHandler.c ****         #endif /* CYBLE_IPS_SERVER */
1935:.\Generated_Source\PSoC4/BLE_eventHandler.c **** 		#ifdef CYBLE_UDS_SERVER
1936:.\Generated_Source\PSoC4/BLE_eventHandler.c ****             CyBle_UdssExecuteWriteRequestEventHandler((CYBLE_GATTS_EXEC_WRITE_REQ_T *)eventParam);
1937:.\Generated_Source\PSoC4/BLE_eventHandler.c ****         #endif /* CYBLE_UDS_SERVER */
1938:.\Generated_Source\PSoC4/BLE_eventHandler.c ****             break;
1939:.\Generated_Source\PSoC4/BLE_eventHandler.c ****         
1940:.\Generated_Source\PSoC4/BLE_eventHandler.c ****         case CYBLE_EVT_GATTS_HANDLE_VALUE_CNF:
1941:.\Generated_Source\PSoC4/BLE_eventHandler.c ****             CyBle_ValueConfirmation((CYBLE_CONN_HANDLE_T *)eventParam);
 1367              		.loc 1 1941 0
 1368 02ce 3B68     		ldr	r3, [r7]
 1369 02d0 181C     		mov	r0, r3
 1370 02d2 FFF7FEFF 		bl	CyBle_ValueConfirmation
1942:.\Generated_Source\PSoC4/BLE_eventHandler.c ****             break;
 1371              		.loc 1 1942 0
 1372 02d6 70E0     		b	.L77
 1373              	.L56:
1943:.\Generated_Source\PSoC4/BLE_eventHandler.c ****             
1944:.\Generated_Source\PSoC4/BLE_eventHandler.c ****         case CYBLE_EVT_GATTS_READ_CHAR_VAL_ACCESS_REQ:
1945:.\Generated_Source\PSoC4/BLE_eventHandler.c ****         #ifdef CYBLE_UDS_SERVER
1946:.\Generated_Source\PSoC4/BLE_eventHandler.c ****             CyBle_UdssReadRequestEventHandler((CYBLE_GATTS_CHAR_VAL_READ_REQ_T *)eventParam);
1947:.\Generated_Source\PSoC4/BLE_eventHandler.c ****         #endif /* CYBLE_UDS_SERVER */
1948:.\Generated_Source\PSoC4/BLE_eventHandler.c ****             break;
1949:.\Generated_Source\PSoC4/BLE_eventHandler.c ****             
1950:.\Generated_Source\PSoC4/BLE_eventHandler.c ****     #endif /* CYBLE_GATT_ROLE_SERVER */
1951:.\Generated_Source\PSoC4/BLE_eventHandler.c **** 
1952:.\Generated_Source\PSoC4/BLE_eventHandler.c ****     #if (CYBLE_GATT_ROLE_CLIENT)
1953:.\Generated_Source\PSoC4/BLE_eventHandler.c ****         
1954:.\Generated_Source\PSoC4/BLE_eventHandler.c ****         case CYBLE_EVT_GATTC_READ_BY_GROUP_TYPE_RSP:
1955:.\Generated_Source\PSoC4/BLE_eventHandler.c ****             CyBle_ReadByGroupEventHandler((CYBLE_GATTC_READ_BY_GRP_RSP_PARAM_T *)eventParam);
 1374              		.loc 1 1955 0
 1375 02d8 3B68     		ldr	r3, [r7]
 1376 02da 181C     		mov	r0, r3
 1377 02dc FFF7FEFF 		bl	CyBle_ReadByGroupEventHandler
1956:.\Generated_Source\PSoC4/BLE_eventHandler.c ****             break;
 1378              		.loc 1 1956 0
 1379 02e0 6BE0     		b	.L77
 1380              	.L57:
1957:.\Generated_Source\PSoC4/BLE_eventHandler.c **** 
1958:.\Generated_Source\PSoC4/BLE_eventHandler.c ****         case CYBLE_EVT_GATTC_READ_BY_TYPE_RSP:
1959:.\Generated_Source\PSoC4/BLE_eventHandler.c ****             CyBle_ReadByTypeEventHandler((CYBLE_GATTC_READ_BY_TYPE_RSP_PARAM_T *)eventParam);
 1381              		.loc 1 1959 0
 1382 02e2 3B68     		ldr	r3, [r7]
 1383 02e4 181C     		mov	r0, r3
 1384 02e6 FFF7FEFF 		bl	CyBle_ReadByTypeEventHandler
1960:.\Generated_Source\PSoC4/BLE_eventHandler.c ****             break;
 1385              		.loc 1 1960 0
 1386 02ea 66E0     		b	.L77
 1387              	.L72:
1961:.\Generated_Source\PSoC4/BLE_eventHandler.c **** 
1962:.\Generated_Source\PSoC4/BLE_eventHandler.c ****         case CYBLE_EVT_GATTC_READ_BLOB_RSP:
ARM GAS  C:\Users\ADMINI~1\AppData\Local\Temp\ccs1OUCB.s 			page 60


1963:.\Generated_Source\PSoC4/BLE_eventHandler.c ****         #ifdef CYBLE_ESS_CLIENT
1964:.\Generated_Source\PSoC4/BLE_eventHandler.c ****             CyBle_EsscReadLongRespEventHandler((CYBLE_GATTC_READ_RSP_PARAM_T *)eventParam);
1965:.\Generated_Source\PSoC4/BLE_eventHandler.c ****         #endif /* CYBLE_ESS_CLIENT */
1966:.\Generated_Source\PSoC4/BLE_eventHandler.c ****         #ifdef CYBLE_HPS_CLIENT
1967:.\Generated_Source\PSoC4/BLE_eventHandler.c ****             CyBle_HpscReadLongRespEventHandler((CYBLE_GATTC_READ_RSP_PARAM_T *)eventParam);
1968:.\Generated_Source\PSoC4/BLE_eventHandler.c ****         #endif /* CYBLE_HPS_CLIENT */
1969:.\Generated_Source\PSoC4/BLE_eventHandler.c **** 		#ifdef CYBLE_IPS_CLIENT
1970:.\Generated_Source\PSoC4/BLE_eventHandler.c ****             CyBle_IpscReadLongRespEventHandler((CYBLE_GATTC_READ_RSP_PARAM_T *)eventParam);
1971:.\Generated_Source\PSoC4/BLE_eventHandler.c ****         #endif /* CYBLE_IPS_CLIENT */
1972:.\Generated_Source\PSoC4/BLE_eventHandler.c ****         #ifdef CYBLE_UDS_CLIENT
1973:.\Generated_Source\PSoC4/BLE_eventHandler.c ****             if((cyBle_eventHandlerFlag & CYBLE_CALLBACK) != 0u)
1974:.\Generated_Source\PSoC4/BLE_eventHandler.c ****             {
1975:.\Generated_Source\PSoC4/BLE_eventHandler.c ****                 CyBle_UdscReadLongRespEventHandler((CYBLE_GATTC_READ_RSP_PARAM_T *)eventParam);
1976:.\Generated_Source\PSoC4/BLE_eventHandler.c ****             }
1977:.\Generated_Source\PSoC4/BLE_eventHandler.c ****         #endif /* CYBLE_UDS_CLIENT */
1978:.\Generated_Source\PSoC4/BLE_eventHandler.c ****             break;
1979:.\Generated_Source\PSoC4/BLE_eventHandler.c ****         
1980:.\Generated_Source\PSoC4/BLE_eventHandler.c ****         case CYBLE_EVT_GATTC_LONG_PROCEDURE_END:
1981:.\Generated_Source\PSoC4/BLE_eventHandler.c ****             CyBle_LongProcedureEndEventHandler();
 1388              		.loc 1 1981 0
 1389 02ec FFF7FEFF 		bl	CyBle_LongProcedureEndEventHandler
1982:.\Generated_Source\PSoC4/BLE_eventHandler.c ****             break;
 1390              		.loc 1 1982 0
 1391 02f0 63E0     		b	.L77
 1392              	.L58:
1983:.\Generated_Source\PSoC4/BLE_eventHandler.c ****         
1984:.\Generated_Source\PSoC4/BLE_eventHandler.c ****         case CYBLE_EVT_GATTC_FIND_INFO_RSP:
1985:.\Generated_Source\PSoC4/BLE_eventHandler.c ****             CyBle_FindInfoEventHandler((CYBLE_GATTC_FIND_INFO_RSP_PARAM_T *)eventParam);
 1393              		.loc 1 1985 0
 1394 02f2 3B68     		ldr	r3, [r7]
 1395 02f4 181C     		mov	r0, r3
 1396 02f6 FFF7FEFF 		bl	CyBle_FindInfoEventHandler
1986:.\Generated_Source\PSoC4/BLE_eventHandler.c ****             break;
 1397              		.loc 1 1986 0
 1398 02fa 5EE0     		b	.L77
 1399              	.L52:
1987:.\Generated_Source\PSoC4/BLE_eventHandler.c **** 
1988:.\Generated_Source\PSoC4/BLE_eventHandler.c ****         case CYBLE_EVT_GATTC_ERROR_RSP:
1989:.\Generated_Source\PSoC4/BLE_eventHandler.c ****             CyBle_ErrorResponseEventHandler((CYBLE_GATTC_ERR_RSP_PARAM_T *)eventParam);
 1400              		.loc 1 1989 0
 1401 02fc 3B68     		ldr	r3, [r7]
 1402 02fe 181C     		mov	r0, r3
 1403 0300 FFF7FEFF 		bl	CyBle_ErrorResponseEventHandler
1990:.\Generated_Source\PSoC4/BLE_eventHandler.c ****             break;
 1404              		.loc 1 1990 0
 1405 0304 59E0     		b	.L77
 1406              	.L68:
1991:.\Generated_Source\PSoC4/BLE_eventHandler.c **** 
1992:.\Generated_Source\PSoC4/BLE_eventHandler.c ****         case CYBLE_EVT_GATTC_HANDLE_VALUE_NTF:
1993:.\Generated_Source\PSoC4/BLE_eventHandler.c ****             CyBle_NotificationEventHandler((CYBLE_GATTC_HANDLE_VALUE_NTF_PARAM_T *)eventParam);
 1407              		.loc 1 1993 0
 1408 0306 3B68     		ldr	r3, [r7]
 1409 0308 181C     		mov	r0, r3
 1410 030a FFF7FEFF 		bl	CyBle_NotificationEventHandler
1994:.\Generated_Source\PSoC4/BLE_eventHandler.c ****             break;
 1411              		.loc 1 1994 0
 1412 030e 54E0     		b	.L77
ARM GAS  C:\Users\ADMINI~1\AppData\Local\Temp\ccs1OUCB.s 			page 61


 1413              	.L69:
1995:.\Generated_Source\PSoC4/BLE_eventHandler.c **** 
1996:.\Generated_Source\PSoC4/BLE_eventHandler.c ****         case CYBLE_EVT_GATTC_HANDLE_VALUE_IND:
1997:.\Generated_Source\PSoC4/BLE_eventHandler.c ****             CyBle_GattcIndicationEventHandler((CYBLE_GATTC_HANDLE_VALUE_IND_PARAM_T *)eventParam);
 1414              		.loc 1 1997 0
 1415 0310 3B68     		ldr	r3, [r7]
 1416 0312 181C     		mov	r0, r3
 1417 0314 FFF7FEFF 		bl	CyBle_GattcIndicationEventHandler
1998:.\Generated_Source\PSoC4/BLE_eventHandler.c ****             CyBle_IndicationEventHandler((CYBLE_GATTC_HANDLE_VALUE_IND_PARAM_T *)eventParam);
 1418              		.loc 1 1998 0
 1419 0318 3B68     		ldr	r3, [r7]
 1420 031a 181C     		mov	r0, r3
 1421 031c FFF7FEFF 		bl	CyBle_IndicationEventHandler
1999:.\Generated_Source\PSoC4/BLE_eventHandler.c ****         
2000:.\Generated_Source\PSoC4/BLE_eventHandler.c ****             /* Respond with a Handle Value Confirmation when request handled */
2001:.\Generated_Source\PSoC4/BLE_eventHandler.c ****             if((cyBle_eventHandlerFlag & CYBLE_CALLBACK) == 0u)
 1422              		.loc 1 2001 0
 1423 0320 114B     		ldr	r3, .L91
 1424 0322 1B78     		ldrb	r3, [r3]
 1425 0324 DBB2     		uxtb	r3, r3
 1426 0326 1A1C     		mov	r2, r3
 1427 0328 0123     		mov	r3, #1
 1428 032a 1340     		and	r3, r2
 1429 032c 04D1     		bne	.L88
2002:.\Generated_Source\PSoC4/BLE_eventHandler.c ****             {
2003:.\Generated_Source\PSoC4/BLE_eventHandler.c ****                 (void)CyBle_GattcConfirmation(((CYBLE_GATTC_HANDLE_VALUE_IND_PARAM_T *)eventParam)-
 1430              		.loc 1 2003 0
 1431 032e 3B68     		ldr	r3, [r7]
 1432 0330 1868     		ldr	r0, [r3]
 1433 0332 FFF7FEFF 		bl	CyBle_GattcConfirmation
2004:.\Generated_Source\PSoC4/BLE_eventHandler.c ****             }
2005:.\Generated_Source\PSoC4/BLE_eventHandler.c ****             break;
 1434              		.loc 1 2005 0
 1435 0336 40E0     		b	.L77
 1436              	.L88:
 1437 0338 3FE0     		b	.L77
 1438              	.L59:
2006:.\Generated_Source\PSoC4/BLE_eventHandler.c ****         
2007:.\Generated_Source\PSoC4/BLE_eventHandler.c ****         case CYBLE_EVT_GATTC_READ_RSP:
2008:.\Generated_Source\PSoC4/BLE_eventHandler.c ****             CyBle_ReadResponseEventHandler((CYBLE_GATTC_READ_RSP_PARAM_T *)eventParam);
 1439              		.loc 1 2008 0
 1440 033a 3B68     		ldr	r3, [r7]
 1441 033c 181C     		mov	r0, r3
 1442 033e FFF7FEFF 		bl	CyBle_ReadResponseEventHandler
2009:.\Generated_Source\PSoC4/BLE_eventHandler.c ****             break;
 1443              		.loc 1 2009 0
 1444 0342 3AE0     		b	.L77
 1445              	.L61:
2010:.\Generated_Source\PSoC4/BLE_eventHandler.c ****         
2011:.\Generated_Source\PSoC4/BLE_eventHandler.c ****         case CYBLE_EVT_GATTC_READ_MULTI_RSP:
2012:.\Generated_Source\PSoC4/BLE_eventHandler.c ****             CyBle_ReadMultipleResponseEventHandler((CYBLE_GATTC_READ_RSP_PARAM_T *)eventParam);
 1446              		.loc 1 2012 0
 1447 0344 3B68     		ldr	r3, [r7]
 1448 0346 181C     		mov	r0, r3
 1449 0348 FFF7FEFF 		bl	CyBle_ReadMultipleResponseEventHandler
2013:.\Generated_Source\PSoC4/BLE_eventHandler.c ****             break;
 1450              		.loc 1 2013 0
ARM GAS  C:\Users\ADMINI~1\AppData\Local\Temp\ccs1OUCB.s 			page 62


 1451 034c 35E0     		b	.L77
 1452              	.L63:
2014:.\Generated_Source\PSoC4/BLE_eventHandler.c ****             
2015:.\Generated_Source\PSoC4/BLE_eventHandler.c ****         case CYBLE_EVT_GATTC_WRITE_RSP:
2016:.\Generated_Source\PSoC4/BLE_eventHandler.c ****             CyBle_GattcWriteResponseEventHandler((CYBLE_CONN_HANDLE_T *)eventParam);
 1453              		.loc 1 2016 0
 1454 034e 3B68     		ldr	r3, [r7]
 1455 0350 181C     		mov	r0, r3
 1456 0352 FFF7FEFF 		bl	CyBle_GattcWriteResponseEventHandler
2017:.\Generated_Source\PSoC4/BLE_eventHandler.c ****             break;
 1457              		.loc 1 2017 0
 1458 0356 30E0     		b	.L77
 1459              	.L74:
2018:.\Generated_Source\PSoC4/BLE_eventHandler.c ****             
2019:.\Generated_Source\PSoC4/BLE_eventHandler.c ****         case CYBLE_EVT_GATTC_EXEC_WRITE_RSP:
2020:.\Generated_Source\PSoC4/BLE_eventHandler.c ****         #ifdef CYBLE_BMS_CLIENT
2021:.\Generated_Source\PSoC4/BLE_eventHandler.c ****             CyBle_BmscExecuteWriteResponseEventHandler((CYBLE_GATTC_EXEC_WRITE_RSP_T *)eventParam);
2022:.\Generated_Source\PSoC4/BLE_eventHandler.c ****         #endif /* CYBLE_BMS_CLIENT */
2023:.\Generated_Source\PSoC4/BLE_eventHandler.c ****         #ifdef CYBLE_ESS_CLIENT
2024:.\Generated_Source\PSoC4/BLE_eventHandler.c ****             if((cyBle_eventHandlerFlag & CYBLE_CALLBACK) != 0u)
2025:.\Generated_Source\PSoC4/BLE_eventHandler.c ****             {
2026:.\Generated_Source\PSoC4/BLE_eventHandler.c ****                 CyBle_EsscExecuteWriteResponseEventHandler((CYBLE_GATTC_EXEC_WRITE_RSP_T *)eventPar
2027:.\Generated_Source\PSoC4/BLE_eventHandler.c ****             }
2028:.\Generated_Source\PSoC4/BLE_eventHandler.c ****         #endif /* CYBLE_ESS_CLIENT */
2029:.\Generated_Source\PSoC4/BLE_eventHandler.c ****         #ifdef CYBLE_HPS_CLIENT
2030:.\Generated_Source\PSoC4/BLE_eventHandler.c ****             if((cyBle_eventHandlerFlag & CYBLE_CALLBACK) != 0u)
2031:.\Generated_Source\PSoC4/BLE_eventHandler.c ****             {
2032:.\Generated_Source\PSoC4/BLE_eventHandler.c ****                 CyBle_HpscExecuteWriteResponseEventHandler((CYBLE_GATTC_EXEC_WRITE_RSP_T *)eventPar
2033:.\Generated_Source\PSoC4/BLE_eventHandler.c ****             }
2034:.\Generated_Source\PSoC4/BLE_eventHandler.c ****         #endif /* CYBLE_HPS_CLIENT */
2035:.\Generated_Source\PSoC4/BLE_eventHandler.c ****         #ifdef CYBLE_IPS_CLIENT
2036:.\Generated_Source\PSoC4/BLE_eventHandler.c ****             if((cyBle_eventHandlerFlag & CYBLE_CALLBACK) != 0u)
2037:.\Generated_Source\PSoC4/BLE_eventHandler.c ****             {
2038:.\Generated_Source\PSoC4/BLE_eventHandler.c ****                 CyBle_IpscExecuteWriteResponseEventHandler((CYBLE_GATTC_EXEC_WRITE_RSP_T *)eventPar
2039:.\Generated_Source\PSoC4/BLE_eventHandler.c ****             }
2040:.\Generated_Source\PSoC4/BLE_eventHandler.c ****         #endif /* CYBLE_IPS_CLIENT */
2041:.\Generated_Source\PSoC4/BLE_eventHandler.c ****         #ifdef CYBLE_UDS_CLIENT
2042:.\Generated_Source\PSoC4/BLE_eventHandler.c ****             if((cyBle_eventHandlerFlag & CYBLE_CALLBACK) != 0u)
2043:.\Generated_Source\PSoC4/BLE_eventHandler.c ****             {
2044:.\Generated_Source\PSoC4/BLE_eventHandler.c ****                 CyBle_UdscExecuteWriteResponseEventHandler((CYBLE_GATTC_EXEC_WRITE_RSP_T *)eventPar
2045:.\Generated_Source\PSoC4/BLE_eventHandler.c ****             }
2046:.\Generated_Source\PSoC4/BLE_eventHandler.c ****         #endif /* CYBLE_UDS_CLIENT */
2047:.\Generated_Source\PSoC4/BLE_eventHandler.c ****             break;
2048:.\Generated_Source\PSoC4/BLE_eventHandler.c ****             
2049:.\Generated_Source\PSoC4/BLE_eventHandler.c ****     #endif /* CYBLE_GATT_ROLE_CLIENT */
2050:.\Generated_Source\PSoC4/BLE_eventHandler.c **** 
2051:.\Generated_Source\PSoC4/BLE_eventHandler.c ****     #if((CYBLE_GAP_ROLE_PERIPHERAL || CYBLE_GAP_ROLE_CENTRAL) && (CYBLE_BONDING_REQUIREMENT == CYBL
2052:.\Generated_Source\PSoC4/BLE_eventHandler.c **** 
2053:.\Generated_Source\PSoC4/BLE_eventHandler.c ****         case CYBLE_EVT_PENDING_FLASH_WRITE:
2054:.\Generated_Source\PSoC4/BLE_eventHandler.c ****             cyBle_pendingFlashWrite |= CYBLE_PENDING_STACK_FLASH_WRITE_BIT;
 1460              		.loc 1 2054 0
 1461 0358 164B     		ldr	r3, .L91+76
 1462 035a 1B78     		ldrb	r3, [r3]
 1463 035c 0122     		mov	r2, #1
 1464 035e 1343     		orr	r3, r2
 1465 0360 DAB2     		uxtb	r2, r3
 1466 0362 144B     		ldr	r3, .L91+76
ARM GAS  C:\Users\ADMINI~1\AppData\Local\Temp\ccs1OUCB.s 			page 63


 1467 0364 1A70     		strb	r2, [r3]
2055:.\Generated_Source\PSoC4/BLE_eventHandler.c ****             break;
 1468              		.loc 1 2055 0
 1469 0366 28E0     		b	.L77
 1470              	.L92:
 1471              		.align	2
 1472              	.L91:
 1473 0368 00000000 		.word	cyBle_eventHandlerFlag
 1474 036c 00000000 		.word	.L41
 1475 0370 00000000 		.word	cyBle_sflashDeviceAddress
 1476 0374 7CF1FF0F 		.word	268431740
 1477 0378 7DF1FF0F 		.word	268431741
 1478 037c 7BF1FF0F 		.word	268431739
 1479 0380 78F1FF0F 		.word	268431736
 1480 0384 00000000 		.word	cyBle_deviceAddress
 1481 0388 00000000 		.word	cyBle_state
 1482 038c 00000000 		.word	cyBle_busyStatus
 1483 0390 00000000 		.word	gPrepWriteReqMem.6401
 1484 0394 E00A0000 		.word	cyBle_stackMemoryRam+2784
 1485 0398 00000000 		.word	cyBle_authInfo
 1486 039c 00000000 		.word	cyBle_connHandle
 1487 03a0 00000000 		.word	cyBle_peerBonding
 1488 03a4 00000000 		.word	cyBle_connectingTimeout
 1489 03a8 00000000 		.word	cyBle_flashStorage
 1490 03ac 00000000 		.word	cyBle_attValuesCCCD
 1491 03b0 00000000 		.word	cyBle_clientState
 1492 03b4 00000000 		.word	cyBle_pendingFlashWrite
 1493              	.L90:
2056:.\Generated_Source\PSoC4/BLE_eventHandler.c ****         
2057:.\Generated_Source\PSoC4/BLE_eventHandler.c ****     #endif  /* (CYBLE_BONDING_REQUIREMENT == CYBLE_BONDING_YES) */
2058:.\Generated_Source\PSoC4/BLE_eventHandler.c ****     
2059:.\Generated_Source\PSoC4/BLE_eventHandler.c ****         default:
2060:.\Generated_Source\PSoC4/BLE_eventHandler.c ****             break;
 1494              		.loc 1 2060 0
 1495 03b8 C046     		mov	r8, r8
 1496              	.L77:
2061:.\Generated_Source\PSoC4/BLE_eventHandler.c ****     }
2062:.\Generated_Source\PSoC4/BLE_eventHandler.c **** 
2063:.\Generated_Source\PSoC4/BLE_eventHandler.c ****     if(0u != (cyBle_eventHandlerFlag & (CYBLE_CALLBACK | CYBLE_ENABLE_ALL_EVENTS))) 
 1497              		.loc 1 2063 0
 1498 03ba 0D4B     		ldr	r3, .L93
 1499 03bc 1B78     		ldrb	r3, [r3]
 1500 03be DBB2     		uxtb	r3, r3
 1501 03c0 1A1C     		mov	r2, r3
 1502 03c2 1123     		mov	r3, #17
 1503 03c4 1340     		and	r3, r2
 1504 03c6 0FD0     		beq	.L38
2064:.\Generated_Source\PSoC4/BLE_eventHandler.c ****     {
2065:.\Generated_Source\PSoC4/BLE_eventHandler.c ****         cyBle_eventHandlerFlag &= (uint8)~CYBLE_CALLBACK;
 1505              		.loc 1 2065 0
 1506 03c8 094B     		ldr	r3, .L93
 1507 03ca 1B78     		ldrb	r3, [r3]
 1508 03cc DBB2     		uxtb	r3, r3
 1509 03ce 0122     		mov	r2, #1
 1510 03d0 9343     		bic	r3, r2
 1511 03d2 DAB2     		uxtb	r2, r3
 1512 03d4 064B     		ldr	r3, .L93
ARM GAS  C:\Users\ADMINI~1\AppData\Local\Temp\ccs1OUCB.s 			page 64


 1513 03d6 1A70     		strb	r2, [r3]
2066:.\Generated_Source\PSoC4/BLE_eventHandler.c ****         CyBle_ApplCallback((uint32)eventCode, eventParam);
 1514              		.loc 1 2066 0
 1515 03d8 064B     		ldr	r3, .L93+4
 1516 03da 1B68     		ldr	r3, [r3]
 1517 03dc FA1D     		add	r2, r7, #7
 1518 03de 1178     		ldrb	r1, [r2]
 1519 03e0 3A68     		ldr	r2, [r7]
 1520 03e2 081C     		mov	r0, r1
 1521 03e4 111C     		mov	r1, r2
 1522 03e6 9847     		blx	r3
 1523              	.L38:
2067:.\Generated_Source\PSoC4/BLE_eventHandler.c ****     }
2068:.\Generated_Source\PSoC4/BLE_eventHandler.c **** }
 1524              		.loc 1 2068 0
 1525 03e8 BD46     		mov	sp, r7
 1526 03ea 08B0     		add	sp, sp, #32
 1527              		@ sp needed
 1528 03ec 80BD     		pop	{r7, pc}
 1529              	.L94:
 1530 03ee C046     		.align	2
 1531              	.L93:
 1532 03f0 00000000 		.word	cyBle_eventHandlerFlag
 1533 03f4 00000000 		.word	CyBle_ApplCallback
 1534              		.cfi_endproc
 1535              	.LFE15:
 1536              		.size	CyBle_EventHandler, .-CyBle_EventHandler
 1537              		.section	.text.CyBle_ReadByGroupEventHandler,"ax",%progbits
 1538              		.align	2
 1539              		.global	CyBle_ReadByGroupEventHandler
 1540              		.code	16
 1541              		.thumb_func
 1542              		.type	CyBle_ReadByGroupEventHandler, %function
 1543              	CyBle_ReadByGroupEventHandler:
 1544              	.LFB16:
2069:.\Generated_Source\PSoC4/BLE_eventHandler.c **** 
2070:.\Generated_Source\PSoC4/BLE_eventHandler.c **** 
2071:.\Generated_Source\PSoC4/BLE_eventHandler.c **** #if (CYBLE_GATT_ROLE_CLIENT)
2072:.\Generated_Source\PSoC4/BLE_eventHandler.c **** 
2073:.\Generated_Source\PSoC4/BLE_eventHandler.c **** 
2074:.\Generated_Source\PSoC4/BLE_eventHandler.c **** /****************************************************************************** 
2075:.\Generated_Source\PSoC4/BLE_eventHandler.c **** * Function Name: CyBle_ReadByGroupEventHandler
2076:.\Generated_Source\PSoC4/BLE_eventHandler.c **** ***************************************************************************//**
2077:.\Generated_Source\PSoC4/BLE_eventHandler.c **** * 
2078:.\Generated_Source\PSoC4/BLE_eventHandler.c **** *  Handles the Read By Group Response Event during an automatic server discovery
2079:.\Generated_Source\PSoC4/BLE_eventHandler.c **** *  process.
2080:.\Generated_Source\PSoC4/BLE_eventHandler.c **** * 
2081:.\Generated_Source\PSoC4/BLE_eventHandler.c **** *  \param eventParam:  the event parameters for a Read By Group Response
2082:.\Generated_Source\PSoC4/BLE_eventHandler.c **** * 
2083:.\Generated_Source\PSoC4/BLE_eventHandler.c **** * \return
2084:.\Generated_Source\PSoC4/BLE_eventHandler.c **** *  None
2085:.\Generated_Source\PSoC4/BLE_eventHandler.c **** * 
2086:.\Generated_Source\PSoC4/BLE_eventHandler.c **** ******************************************************************************/
