ARM GAS  C:\Users\ADMINI~1\AppData\Local\Temp\ccA5imtI.s 			page 1


   1              		.cpu cortex-m0
   2              		.fpu softvfp
   3              		.eabi_attribute 20, 1
   4              		.eabi_attribute 21, 1
   5              		.eabi_attribute 23, 3
   6              		.eabi_attribute 24, 1
   7              		.eabi_attribute 25, 1
   8              		.eabi_attribute 26, 1
   9              		.eabi_attribute 30, 6
  10              		.eabi_attribute 34, 0
  11              		.eabi_attribute 18, 4
  12              		.code	16
  13              		.file	"Button.c"
  14              		.text
  15              	.Ltext0:
  16              		.cfi_sections	.debug_frame
  17              		.section	.text.Button_SetDriveMode,"ax",%progbits
  18              		.align	2
  19              		.global	Button_SetDriveMode
  20              		.code	16
  21              		.thumb_func
  22              		.type	Button_SetDriveMode, %function
  23              	Button_SetDriveMode:
  24              	.LFB0:
  25              		.file 1 ".\\Generated_Source\\PSoC4\\Button.c"
   1:.\Generated_Source\PSoC4/Button.c **** /*******************************************************************************
   2:.\Generated_Source\PSoC4/Button.c **** * File Name: Button.c  
   3:.\Generated_Source\PSoC4/Button.c **** * Version 2.20
   4:.\Generated_Source\PSoC4/Button.c **** *
   5:.\Generated_Source\PSoC4/Button.c **** * Description:
   6:.\Generated_Source\PSoC4/Button.c **** *  This file contains API to enable firmware control of a Pins component.
   7:.\Generated_Source\PSoC4/Button.c **** *
   8:.\Generated_Source\PSoC4/Button.c **** ********************************************************************************
   9:.\Generated_Source\PSoC4/Button.c **** * Copyright 2008-2015, Cypress Semiconductor Corporation.  All rights reserved.
  10:.\Generated_Source\PSoC4/Button.c **** * You may use this file only in accordance with the license, terms, conditions, 
  11:.\Generated_Source\PSoC4/Button.c **** * disclaimers, and limitations in the end user license agreement accompanying 
  12:.\Generated_Source\PSoC4/Button.c **** * the software package with which this file was provided.
  13:.\Generated_Source\PSoC4/Button.c **** *******************************************************************************/
  14:.\Generated_Source\PSoC4/Button.c **** 
  15:.\Generated_Source\PSoC4/Button.c **** #include "cytypes.h"
  16:.\Generated_Source\PSoC4/Button.c **** #include "Button.h"
  17:.\Generated_Source\PSoC4/Button.c **** 
  18:.\Generated_Source\PSoC4/Button.c **** 
  19:.\Generated_Source\PSoC4/Button.c **** #if defined(Button__PC)
  20:.\Generated_Source\PSoC4/Button.c ****     #define Button_SetP4PinDriveMode(shift, mode)  \
  21:.\Generated_Source\PSoC4/Button.c ****     do { \
  22:.\Generated_Source\PSoC4/Button.c ****         Button_PC =   (Button_PC & \
  23:.\Generated_Source\PSoC4/Button.c ****                                 (uint32)(~(uint32)(Button_DRIVE_MODE_IND_MASK << \
  24:.\Generated_Source\PSoC4/Button.c ****                                 (Button_DRIVE_MODE_BITS * (shift))))) | \
  25:.\Generated_Source\PSoC4/Button.c ****                                 (uint32)((uint32)(mode) << \
  26:.\Generated_Source\PSoC4/Button.c ****                                 (Button_DRIVE_MODE_BITS * (shift))); \
  27:.\Generated_Source\PSoC4/Button.c ****     } while (0)
  28:.\Generated_Source\PSoC4/Button.c **** #else
  29:.\Generated_Source\PSoC4/Button.c ****     #if (CY_PSOC4_4200L)
  30:.\Generated_Source\PSoC4/Button.c ****         #define Button_SetP4PinDriveMode(shift, mode)  \
  31:.\Generated_Source\PSoC4/Button.c ****         do { \
  32:.\Generated_Source\PSoC4/Button.c ****             Button_USBIO_CTRL_REG = (Button_USBIO_CTRL_REG & \
ARM GAS  C:\Users\ADMINI~1\AppData\Local\Temp\ccA5imtI.s 			page 2


  33:.\Generated_Source\PSoC4/Button.c ****                                     (uint32)(~(uint32)(Button_DRIVE_MODE_IND_MASK << \
  34:.\Generated_Source\PSoC4/Button.c ****                                     (Button_DRIVE_MODE_BITS * (shift))))) | \
  35:.\Generated_Source\PSoC4/Button.c ****                                     (uint32)((uint32)(mode) << \
  36:.\Generated_Source\PSoC4/Button.c ****                                     (Button_DRIVE_MODE_BITS * (shift))); \
  37:.\Generated_Source\PSoC4/Button.c ****         } while (0)
  38:.\Generated_Source\PSoC4/Button.c ****     #endif
  39:.\Generated_Source\PSoC4/Button.c **** #endif
  40:.\Generated_Source\PSoC4/Button.c ****   
  41:.\Generated_Source\PSoC4/Button.c **** 
  42:.\Generated_Source\PSoC4/Button.c **** #if defined(Button__PC) || (CY_PSOC4_4200L) 
  43:.\Generated_Source\PSoC4/Button.c ****     /*******************************************************************************
  44:.\Generated_Source\PSoC4/Button.c ****     * Function Name: Button_SetDriveMode
  45:.\Generated_Source\PSoC4/Button.c ****     ****************************************************************************//**
  46:.\Generated_Source\PSoC4/Button.c ****     *
  47:.\Generated_Source\PSoC4/Button.c ****     * \brief Sets the drive mode for each of the Pins component's pins.
  48:.\Generated_Source\PSoC4/Button.c ****     * 
  49:.\Generated_Source\PSoC4/Button.c ****     * <b>Note</b> This affects all pins in the Pins component instance. Use the
  50:.\Generated_Source\PSoC4/Button.c ****     * Per-Pin APIs if you wish to control individual pin's drive modes.
  51:.\Generated_Source\PSoC4/Button.c ****     *
  52:.\Generated_Source\PSoC4/Button.c ****     * <b>Note</b> USBIOs have limited drive functionality. Refer to the Drive Mode
  53:.\Generated_Source\PSoC4/Button.c ****     * parameter for more information.
  54:.\Generated_Source\PSoC4/Button.c ****     *
  55:.\Generated_Source\PSoC4/Button.c ****     * \param mode
  56:.\Generated_Source\PSoC4/Button.c ****     *  Mode for the selected signals. Valid options are documented in 
  57:.\Generated_Source\PSoC4/Button.c ****     *  \ref driveMode.
  58:.\Generated_Source\PSoC4/Button.c ****     *
  59:.\Generated_Source\PSoC4/Button.c ****     * \return
  60:.\Generated_Source\PSoC4/Button.c ****     *  None
  61:.\Generated_Source\PSoC4/Button.c ****     *
  62:.\Generated_Source\PSoC4/Button.c ****     * \sideeffect
  63:.\Generated_Source\PSoC4/Button.c ****     *  If you use read-modify-write operations that are not atomic, the ISR can
  64:.\Generated_Source\PSoC4/Button.c ****     *  cause corruption of this function. An ISR that interrupts this function 
  65:.\Generated_Source\PSoC4/Button.c ****     *  and performs writes to the Pins component Drive Mode registers can cause 
  66:.\Generated_Source\PSoC4/Button.c ****     *  corrupted port data. To avoid this issue, you should either use the Per-Pin
  67:.\Generated_Source\PSoC4/Button.c ****     *  APIs (primary method) or disable interrupts around this function.
  68:.\Generated_Source\PSoC4/Button.c ****     *
  69:.\Generated_Source\PSoC4/Button.c ****     * \funcusage
  70:.\Generated_Source\PSoC4/Button.c ****     *  \snippet Button_SUT.c usage_Button_SetDriveMode
  71:.\Generated_Source\PSoC4/Button.c ****     *******************************************************************************/
  72:.\Generated_Source\PSoC4/Button.c ****     void Button_SetDriveMode(uint8 mode)
  73:.\Generated_Source\PSoC4/Button.c ****     {
  26              		.loc 1 73 0
  27              		.cfi_startproc
  28 0000 80B5     		push	{r7, lr}
  29              		.cfi_def_cfa_offset 8
  30              		.cfi_offset 7, -8
  31              		.cfi_offset 14, -4
  32 0002 82B0     		sub	sp, sp, #8
  33              		.cfi_def_cfa_offset 16
  34 0004 00AF     		add	r7, sp, #0
  35              		.cfi_def_cfa_register 7
  36 0006 021C     		mov	r2, r0
  37 0008 FB1D     		add	r3, r7, #7
  38 000a 1A70     		strb	r2, [r3]
  74:.\Generated_Source\PSoC4/Button.c **** 		Button_SetP4PinDriveMode(Button__0__SHIFT, mode);
  39              		.loc 1 74 0
  40 000c 1F4B     		ldr	r3, .L2
ARM GAS  C:\Users\ADMINI~1\AppData\Local\Temp\ccA5imtI.s 			page 3


  41 000e 1F4A     		ldr	r2, .L2
  42 0010 1268     		ldr	r2, [r2]
  43 0012 0721     		mov	r1, #7
  44 0014 8A43     		bic	r2, r1
  45 0016 111C     		mov	r1, r2
  46 0018 FA1D     		add	r2, r7, #7
  47 001a 1278     		ldrb	r2, [r2]
  48 001c 0A43     		orr	r2, r1
  49 001e 1A60     		str	r2, [r3]
  75:.\Generated_Source\PSoC4/Button.c **** 		Button_SetP4PinDriveMode(Button__1__SHIFT, mode);
  50              		.loc 1 75 0
  51 0020 1A4B     		ldr	r3, .L2
  52 0022 1A4A     		ldr	r2, .L2
  53 0024 1268     		ldr	r2, [r2]
  54 0026 3821     		mov	r1, #56
  55 0028 8A43     		bic	r2, r1
  56 002a 111C     		mov	r1, r2
  57 002c FA1D     		add	r2, r7, #7
  58 002e 1278     		ldrb	r2, [r2]
  59 0030 D200     		lsl	r2, r2, #3
  60 0032 0A43     		orr	r2, r1
  61 0034 1A60     		str	r2, [r3]
  76:.\Generated_Source\PSoC4/Button.c **** 		Button_SetP4PinDriveMode(Button__2__SHIFT, mode);
  62              		.loc 1 76 0
  63 0036 154B     		ldr	r3, .L2
  64 0038 144A     		ldr	r2, .L2
  65 003a 1268     		ldr	r2, [r2]
  66 003c 1449     		ldr	r1, .L2+4
  67 003e 1140     		and	r1, r2
  68 0040 FA1D     		add	r2, r7, #7
  69 0042 1278     		ldrb	r2, [r2]
  70 0044 9201     		lsl	r2, r2, #6
  71 0046 0A43     		orr	r2, r1
  72 0048 1A60     		str	r2, [r3]
  77:.\Generated_Source\PSoC4/Button.c **** 		Button_SetP4PinDriveMode(Button__3__SHIFT, mode);
  73              		.loc 1 77 0
  74 004a 104B     		ldr	r3, .L2
  75 004c 0F4A     		ldr	r2, .L2
  76 004e 1268     		ldr	r2, [r2]
  77 0050 1049     		ldr	r1, .L2+8
  78 0052 1140     		and	r1, r2
  79 0054 FA1D     		add	r2, r7, #7
  80 0056 1278     		ldrb	r2, [r2]
  81 0058 5202     		lsl	r2, r2, #9
  82 005a 0A43     		orr	r2, r1
  83 005c 1A60     		str	r2, [r3]
  78:.\Generated_Source\PSoC4/Button.c **** 		Button_SetP4PinDriveMode(Button__4__SHIFT, mode);
  84              		.loc 1 78 0
  85 005e 0B4B     		ldr	r3, .L2
  86 0060 0A4A     		ldr	r2, .L2
  87 0062 1268     		ldr	r2, [r2]
  88 0064 0C49     		ldr	r1, .L2+12
  89 0066 1140     		and	r1, r2
  90 0068 FA1D     		add	r2, r7, #7
  91 006a 1278     		ldrb	r2, [r2]
  92 006c 1203     		lsl	r2, r2, #12
  93 006e 0A43     		orr	r2, r1
ARM GAS  C:\Users\ADMINI~1\AppData\Local\Temp\ccA5imtI.s 			page 4


  94 0070 1A60     		str	r2, [r3]
  79:.\Generated_Source\PSoC4/Button.c **** 		Button_SetP4PinDriveMode(Button__5__SHIFT, mode);
  95              		.loc 1 79 0
  96 0072 064B     		ldr	r3, .L2
  97 0074 054A     		ldr	r2, .L2
  98 0076 1268     		ldr	r2, [r2]
  99 0078 0849     		ldr	r1, .L2+16
 100 007a 1140     		and	r1, r2
 101 007c FA1D     		add	r2, r7, #7
 102 007e 1278     		ldrb	r2, [r2]
 103 0080 D203     		lsl	r2, r2, #15
 104 0082 0A43     		orr	r2, r1
 105 0084 1A60     		str	r2, [r3]
  80:.\Generated_Source\PSoC4/Button.c ****     }
 106              		.loc 1 80 0
 107 0086 BD46     		mov	sp, r7
 108 0088 02B0     		add	sp, sp, #8
 109              		@ sp needed
 110 008a 80BD     		pop	{r7, pc}
 111              	.L3:
 112              		.align	2
 113              	.L2:
 114 008c 08000440 		.word	1074003976
 115 0090 3FFEFFFF 		.word	-449
 116 0094 FFF1FFFF 		.word	-3585
 117 0098 FF8FFFFF 		.word	-28673
 118 009c FF7FFCFF 		.word	-229377
 119              		.cfi_endproc
 120              	.LFE0:
 121              		.size	Button_SetDriveMode, .-Button_SetDriveMode
 122              		.section	.text.Button_Write,"ax",%progbits
 123              		.align	2
 124              		.global	Button_Write
 125              		.code	16
 126              		.thumb_func
 127              		.type	Button_Write, %function
 128              	Button_Write:
 129              	.LFB1:
  81:.\Generated_Source\PSoC4/Button.c **** #endif
  82:.\Generated_Source\PSoC4/Button.c **** 
  83:.\Generated_Source\PSoC4/Button.c **** 
  84:.\Generated_Source\PSoC4/Button.c **** /*******************************************************************************
  85:.\Generated_Source\PSoC4/Button.c **** * Function Name: Button_Write
  86:.\Generated_Source\PSoC4/Button.c **** ****************************************************************************//**
  87:.\Generated_Source\PSoC4/Button.c **** *
  88:.\Generated_Source\PSoC4/Button.c **** * \brief Writes the value to the physical port (data output register), masking
  89:.\Generated_Source\PSoC4/Button.c **** *  and shifting the bits appropriately. 
  90:.\Generated_Source\PSoC4/Button.c **** *
  91:.\Generated_Source\PSoC4/Button.c **** * The data output register controls the signal applied to the physical pin in 
  92:.\Generated_Source\PSoC4/Button.c **** * conjunction with the drive mode parameter. This function avoids changing 
  93:.\Generated_Source\PSoC4/Button.c **** * other bits in the port by using the appropriate method (read-modify-write or
  94:.\Generated_Source\PSoC4/Button.c **** * bit banding).
  95:.\Generated_Source\PSoC4/Button.c **** *
  96:.\Generated_Source\PSoC4/Button.c **** * <b>Note</b> This function should not be used on a hardware digital output pin 
  97:.\Generated_Source\PSoC4/Button.c **** * as it is driven by the hardware signal attached to it.
  98:.\Generated_Source\PSoC4/Button.c **** *
  99:.\Generated_Source\PSoC4/Button.c **** * \param value
ARM GAS  C:\Users\ADMINI~1\AppData\Local\Temp\ccA5imtI.s 			page 5


 100:.\Generated_Source\PSoC4/Button.c **** *  Value to write to the component instance.
 101:.\Generated_Source\PSoC4/Button.c **** *
 102:.\Generated_Source\PSoC4/Button.c **** * \return 
 103:.\Generated_Source\PSoC4/Button.c **** *  None 
 104:.\Generated_Source\PSoC4/Button.c **** *
 105:.\Generated_Source\PSoC4/Button.c **** * \sideeffect
 106:.\Generated_Source\PSoC4/Button.c **** *  If you use read-modify-write operations that are not atomic; the Interrupt 
 107:.\Generated_Source\PSoC4/Button.c **** *  Service Routines (ISR) can cause corruption of this function. An ISR that 
 108:.\Generated_Source\PSoC4/Button.c **** *  interrupts this function and performs writes to the Pins component data 
 109:.\Generated_Source\PSoC4/Button.c **** *  register can cause corrupted port data. To avoid this issue, you should 
 110:.\Generated_Source\PSoC4/Button.c **** *  either use the Per-Pin APIs (primary method) or disable interrupts around 
 111:.\Generated_Source\PSoC4/Button.c **** *  this function.
 112:.\Generated_Source\PSoC4/Button.c **** *
 113:.\Generated_Source\PSoC4/Button.c **** * \funcusage
 114:.\Generated_Source\PSoC4/Button.c **** *  \snippet Button_SUT.c usage_Button_Write
 115:.\Generated_Source\PSoC4/Button.c **** *******************************************************************************/
 116:.\Generated_Source\PSoC4/Button.c **** void Button_Write(uint8 value)
 117:.\Generated_Source\PSoC4/Button.c **** {
 130              		.loc 1 117 0
 131              		.cfi_startproc
 132 0000 80B5     		push	{r7, lr}
 133              		.cfi_def_cfa_offset 8
 134              		.cfi_offset 7, -8
 135              		.cfi_offset 14, -4
 136 0002 84B0     		sub	sp, sp, #16
 137              		.cfi_def_cfa_offset 24
 138 0004 00AF     		add	r7, sp, #0
 139              		.cfi_def_cfa_register 7
 140 0006 021C     		mov	r2, r0
 141 0008 FB1D     		add	r3, r7, #7
 142 000a 1A70     		strb	r2, [r3]
 118:.\Generated_Source\PSoC4/Button.c ****     uint8 drVal = (uint8)(Button_DR & (uint8)(~Button_MASK));
 143              		.loc 1 118 0
 144 000c 0D4B     		ldr	r3, .L5
 145 000e 1B68     		ldr	r3, [r3]
 146 0010 DAB2     		uxtb	r2, r3
 147 0012 0F23     		mov	r3, #15
 148 0014 FB18     		add	r3, r7, r3
 149 0016 3F21     		mov	r1, #63
 150 0018 8A43     		bic	r2, r1
 151 001a 1A70     		strb	r2, [r3]
 119:.\Generated_Source\PSoC4/Button.c ****     drVal = (drVal | ((uint8)(value << Button_SHIFT) & Button_MASK));
 152              		.loc 1 119 0
 153 001c FB1D     		add	r3, r7, #7
 154 001e 1B78     		ldrb	r3, [r3]
 155 0020 3F22     		mov	r2, #63
 156 0022 1340     		and	r3, r2
 157 0024 D9B2     		uxtb	r1, r3
 158 0026 0F23     		mov	r3, #15
 159 0028 FB18     		add	r3, r7, r3
 160 002a 0F22     		mov	r2, #15
 161 002c BA18     		add	r2, r7, r2
 162 002e 1278     		ldrb	r2, [r2]
 163 0030 0A43     		orr	r2, r1
 164 0032 1A70     		strb	r2, [r3]
 120:.\Generated_Source\PSoC4/Button.c ****     Button_DR = (uint32)drVal;
 165              		.loc 1 120 0
ARM GAS  C:\Users\ADMINI~1\AppData\Local\Temp\ccA5imtI.s 			page 6


 166 0034 034B     		ldr	r3, .L5
 167 0036 0F22     		mov	r2, #15
 168 0038 BA18     		add	r2, r7, r2
 169 003a 1278     		ldrb	r2, [r2]
 170 003c 1A60     		str	r2, [r3]
 121:.\Generated_Source\PSoC4/Button.c **** }
 171              		.loc 1 121 0
 172 003e BD46     		mov	sp, r7
 173 0040 04B0     		add	sp, sp, #16
 174              		@ sp needed
 175 0042 80BD     		pop	{r7, pc}
 176              	.L6:
 177              		.align	2
 178              	.L5:
 179 0044 00000440 		.word	1074003968
 180              		.cfi_endproc
 181              	.LFE1:
 182              		.size	Button_Write, .-Button_Write
 183              		.section	.text.Button_Read,"ax",%progbits
 184              		.align	2
 185              		.global	Button_Read
 186              		.code	16
 187              		.thumb_func
 188              		.type	Button_Read, %function
 189              	Button_Read:
 190              	.LFB2:
 122:.\Generated_Source\PSoC4/Button.c **** 
 123:.\Generated_Source\PSoC4/Button.c **** 
 124:.\Generated_Source\PSoC4/Button.c **** /*******************************************************************************
 125:.\Generated_Source\PSoC4/Button.c **** * Function Name: Button_Read
 126:.\Generated_Source\PSoC4/Button.c **** ****************************************************************************//**
 127:.\Generated_Source\PSoC4/Button.c **** *
 128:.\Generated_Source\PSoC4/Button.c **** * \brief Reads the associated physical port (pin status register) and masks 
 129:.\Generated_Source\PSoC4/Button.c **** *  the required bits according to the width and bit position of the component
 130:.\Generated_Source\PSoC4/Button.c **** *  instance. 
 131:.\Generated_Source\PSoC4/Button.c **** *
 132:.\Generated_Source\PSoC4/Button.c **** * The pin's status register returns the current logic level present on the 
 133:.\Generated_Source\PSoC4/Button.c **** * physical pin.
 134:.\Generated_Source\PSoC4/Button.c **** *
 135:.\Generated_Source\PSoC4/Button.c **** * \return 
 136:.\Generated_Source\PSoC4/Button.c **** *  The current value for the pins in the component as a right justified number.
 137:.\Generated_Source\PSoC4/Button.c **** *
 138:.\Generated_Source\PSoC4/Button.c **** * \funcusage
 139:.\Generated_Source\PSoC4/Button.c **** *  \snippet Button_SUT.c usage_Button_Read  
 140:.\Generated_Source\PSoC4/Button.c **** *******************************************************************************/
 141:.\Generated_Source\PSoC4/Button.c **** uint8 Button_Read(void)
 142:.\Generated_Source\PSoC4/Button.c **** {
 191              		.loc 1 142 0
 192              		.cfi_startproc
 193 0000 80B5     		push	{r7, lr}
 194              		.cfi_def_cfa_offset 8
 195              		.cfi_offset 7, -8
 196              		.cfi_offset 14, -4
 197 0002 00AF     		add	r7, sp, #0
 198              		.cfi_def_cfa_register 7
 143:.\Generated_Source\PSoC4/Button.c ****     return (uint8)((Button_PS & Button_MASK) >> Button_SHIFT);
 199              		.loc 1 143 0
ARM GAS  C:\Users\ADMINI~1\AppData\Local\Temp\ccA5imtI.s 			page 7


 200 0004 044B     		ldr	r3, .L9
 201 0006 1B68     		ldr	r3, [r3]
 202 0008 DBB2     		uxtb	r3, r3
 203 000a 3F22     		mov	r2, #63
 204 000c 1340     		and	r3, r2
 205 000e DBB2     		uxtb	r3, r3
 144:.\Generated_Source\PSoC4/Button.c **** }
 206              		.loc 1 144 0
 207 0010 181C     		mov	r0, r3
 208 0012 BD46     		mov	sp, r7
 209              		@ sp needed
 210 0014 80BD     		pop	{r7, pc}
 211              	.L10:
 212 0016 C046     		.align	2
 213              	.L9:
 214 0018 04000440 		.word	1074003972
 215              		.cfi_endproc
 216              	.LFE2:
 217              		.size	Button_Read, .-Button_Read
 218              		.section	.text.Button_ReadDataReg,"ax",%progbits
 219              		.align	2
 220              		.global	Button_ReadDataReg
 221              		.code	16
 222              		.thumb_func
 223              		.type	Button_ReadDataReg, %function
 224              	Button_ReadDataReg:
 225              	.LFB3:
 145:.\Generated_Source\PSoC4/Button.c **** 
 146:.\Generated_Source\PSoC4/Button.c **** 
 147:.\Generated_Source\PSoC4/Button.c **** /*******************************************************************************
 148:.\Generated_Source\PSoC4/Button.c **** * Function Name: Button_ReadDataReg
 149:.\Generated_Source\PSoC4/Button.c **** ****************************************************************************//**
 150:.\Generated_Source\PSoC4/Button.c **** *
 151:.\Generated_Source\PSoC4/Button.c **** * \brief Reads the associated physical port's data output register and masks 
 152:.\Generated_Source\PSoC4/Button.c **** *  the correct bits according to the width and bit position of the component 
 153:.\Generated_Source\PSoC4/Button.c **** *  instance. 
 154:.\Generated_Source\PSoC4/Button.c **** *
 155:.\Generated_Source\PSoC4/Button.c **** * The data output register controls the signal applied to the physical pin in 
 156:.\Generated_Source\PSoC4/Button.c **** * conjunction with the drive mode parameter. This is not the same as the 
 157:.\Generated_Source\PSoC4/Button.c **** * preferred Button_Read() API because the 
 158:.\Generated_Source\PSoC4/Button.c **** * Button_ReadDataReg() reads the data register instead of the status 
 159:.\Generated_Source\PSoC4/Button.c **** * register. For output pins this is a useful function to determine the value 
 160:.\Generated_Source\PSoC4/Button.c **** * just written to the pin.
 161:.\Generated_Source\PSoC4/Button.c **** *
 162:.\Generated_Source\PSoC4/Button.c **** * \return 
 163:.\Generated_Source\PSoC4/Button.c **** *  The current value of the data register masked and shifted into a right 
 164:.\Generated_Source\PSoC4/Button.c **** *  justified number for the component instance.
 165:.\Generated_Source\PSoC4/Button.c **** *
 166:.\Generated_Source\PSoC4/Button.c **** * \funcusage
 167:.\Generated_Source\PSoC4/Button.c **** *  \snippet Button_SUT.c usage_Button_ReadDataReg 
 168:.\Generated_Source\PSoC4/Button.c **** *******************************************************************************/
 169:.\Generated_Source\PSoC4/Button.c **** uint8 Button_ReadDataReg(void)
 170:.\Generated_Source\PSoC4/Button.c **** {
 226              		.loc 1 170 0
 227              		.cfi_startproc
 228 0000 80B5     		push	{r7, lr}
 229              		.cfi_def_cfa_offset 8
ARM GAS  C:\Users\ADMINI~1\AppData\Local\Temp\ccA5imtI.s 			page 8


 230              		.cfi_offset 7, -8
 231              		.cfi_offset 14, -4
 232 0002 00AF     		add	r7, sp, #0
 233              		.cfi_def_cfa_register 7
 171:.\Generated_Source\PSoC4/Button.c ****     return (uint8)((Button_DR & Button_MASK) >> Button_SHIFT);
 234              		.loc 1 171 0
 235 0004 044B     		ldr	r3, .L13
 236 0006 1B68     		ldr	r3, [r3]
 237 0008 DBB2     		uxtb	r3, r3
 238 000a 3F22     		mov	r2, #63
 239 000c 1340     		and	r3, r2
 240 000e DBB2     		uxtb	r3, r3
 172:.\Generated_Source\PSoC4/Button.c **** }
 241              		.loc 1 172 0
 242 0010 181C     		mov	r0, r3
 243 0012 BD46     		mov	sp, r7
 244              		@ sp needed
 245 0014 80BD     		pop	{r7, pc}
 246              	.L14:
 247 0016 C046     		.align	2
 248              	.L13:
 249 0018 00000440 		.word	1074003968
 250              		.cfi_endproc
 251              	.LFE3:
 252              		.size	Button_ReadDataReg, .-Button_ReadDataReg
 253              		.section	.text.Button_SetInterruptMode,"ax",%progbits
 254              		.align	2
 255              		.global	Button_SetInterruptMode
 256              		.code	16
 257              		.thumb_func
 258              		.type	Button_SetInterruptMode, %function
 259              	Button_SetInterruptMode:
 260              	.LFB4:
 173:.\Generated_Source\PSoC4/Button.c **** 
 174:.\Generated_Source\PSoC4/Button.c **** 
 175:.\Generated_Source\PSoC4/Button.c **** /*******************************************************************************
 176:.\Generated_Source\PSoC4/Button.c **** * Function Name: Button_SetInterruptMode
 177:.\Generated_Source\PSoC4/Button.c **** ****************************************************************************//**
 178:.\Generated_Source\PSoC4/Button.c **** *
 179:.\Generated_Source\PSoC4/Button.c **** * \brief Configures the interrupt mode for each of the Pins component's
 180:.\Generated_Source\PSoC4/Button.c **** *  pins. Alternatively you may set the interrupt mode for all the pins
 181:.\Generated_Source\PSoC4/Button.c **** *  specified in the Pins component.
 182:.\Generated_Source\PSoC4/Button.c **** *
 183:.\Generated_Source\PSoC4/Button.c **** *  <b>Note</b> The interrupt is port-wide and therefore any enabled pin
 184:.\Generated_Source\PSoC4/Button.c **** *  interrupt may trigger it.
 185:.\Generated_Source\PSoC4/Button.c **** *
 186:.\Generated_Source\PSoC4/Button.c **** * \param position
 187:.\Generated_Source\PSoC4/Button.c **** *  The pin position as listed in the Pins component. You may OR these to be 
 188:.\Generated_Source\PSoC4/Button.c **** *  able to configure the interrupt mode of multiple pins within a Pins 
 189:.\Generated_Source\PSoC4/Button.c **** *  component. Or you may use Button_INTR_ALL to configure the
 190:.\Generated_Source\PSoC4/Button.c **** *  interrupt mode of all the pins in the Pins component.       
 191:.\Generated_Source\PSoC4/Button.c **** *  - Button_0_INTR       (First pin in the list)
 192:.\Generated_Source\PSoC4/Button.c **** *  - Button_1_INTR       (Second pin in the list)
 193:.\Generated_Source\PSoC4/Button.c **** *  - ...
 194:.\Generated_Source\PSoC4/Button.c **** *  - Button_INTR_ALL     (All pins in Pins component)
 195:.\Generated_Source\PSoC4/Button.c **** *
 196:.\Generated_Source\PSoC4/Button.c **** * \param mode
ARM GAS  C:\Users\ADMINI~1\AppData\Local\Temp\ccA5imtI.s 			page 9


 197:.\Generated_Source\PSoC4/Button.c **** *  Interrupt mode for the selected pins. Valid options are documented in
 198:.\Generated_Source\PSoC4/Button.c **** *  \ref intrMode.
 199:.\Generated_Source\PSoC4/Button.c **** *
 200:.\Generated_Source\PSoC4/Button.c **** * \return 
 201:.\Generated_Source\PSoC4/Button.c **** *  None
 202:.\Generated_Source\PSoC4/Button.c **** *  
 203:.\Generated_Source\PSoC4/Button.c **** * \sideeffect
 204:.\Generated_Source\PSoC4/Button.c **** *  It is recommended that the interrupt be disabled before calling this 
 205:.\Generated_Source\PSoC4/Button.c **** *  function to avoid unintended interrupt requests. Note that the interrupt
 206:.\Generated_Source\PSoC4/Button.c **** *  type is port wide, and therefore will trigger for any enabled pin on the 
 207:.\Generated_Source\PSoC4/Button.c **** *  port.
 208:.\Generated_Source\PSoC4/Button.c **** *
 209:.\Generated_Source\PSoC4/Button.c **** * \funcusage
 210:.\Generated_Source\PSoC4/Button.c **** *  \snippet Button_SUT.c usage_Button_SetInterruptMode
 211:.\Generated_Source\PSoC4/Button.c **** *******************************************************************************/
 212:.\Generated_Source\PSoC4/Button.c **** void Button_SetInterruptMode(uint16 position, uint16 mode)
 213:.\Generated_Source\PSoC4/Button.c **** {
 261              		.loc 1 213 0
 262              		.cfi_startproc
 263 0000 80B5     		push	{r7, lr}
 264              		.cfi_def_cfa_offset 8
 265              		.cfi_offset 7, -8
 266              		.cfi_offset 14, -4
 267 0002 84B0     		sub	sp, sp, #16
 268              		.cfi_def_cfa_offset 24
 269 0004 00AF     		add	r7, sp, #0
 270              		.cfi_def_cfa_register 7
 271 0006 021C     		mov	r2, r0
 272 0008 BB1D     		add	r3, r7, #6
 273 000a 1A80     		strh	r2, [r3]
 274 000c 3B1D     		add	r3, r7, #4
 275 000e 0A1C     		add	r2, r1, #0
 276 0010 1A80     		strh	r2, [r3]
 214:.\Generated_Source\PSoC4/Button.c ****     uint32 intrCfg;
 215:.\Generated_Source\PSoC4/Button.c ****     
 216:.\Generated_Source\PSoC4/Button.c ****     intrCfg =  Button_INTCFG & (uint32)(~(uint32)position);
 277              		.loc 1 216 0
 278 0012 0A4B     		ldr	r3, .L16
 279 0014 1B68     		ldr	r3, [r3]
 280 0016 BA1D     		add	r2, r7, #6
 281 0018 1288     		ldrh	r2, [r2]
 282 001a D243     		mvn	r2, r2
 283 001c 1340     		and	r3, r2
 284 001e FB60     		str	r3, [r7, #12]
 217:.\Generated_Source\PSoC4/Button.c ****     Button_INTCFG = intrCfg | ((uint32)position & (uint32)mode);
 285              		.loc 1 217 0
 286 0020 064B     		ldr	r3, .L16
 287 0022 BA1D     		add	r2, r7, #6
 288 0024 391D     		add	r1, r7, #4
 289 0026 1288     		ldrh	r2, [r2]
 290 0028 0988     		ldrh	r1, [r1]
 291 002a 0A40     		and	r2, r1
 292 002c 92B2     		uxth	r2, r2
 293 002e 111C     		mov	r1, r2
 294 0030 FA68     		ldr	r2, [r7, #12]
 295 0032 0A43     		orr	r2, r1
 296 0034 1A60     		str	r2, [r3]
ARM GAS  C:\Users\ADMINI~1\AppData\Local\Temp\ccA5imtI.s 			page 10


 218:.\Generated_Source\PSoC4/Button.c **** }
 297              		.loc 1 218 0
 298 0036 BD46     		mov	sp, r7
 299 0038 04B0     		add	sp, sp, #16
 300              		@ sp needed
 301 003a 80BD     		pop	{r7, pc}
 302              	.L17:
 303              		.align	2
 304              	.L16:
 305 003c 0C000440 		.word	1074003980
 306              		.cfi_endproc
 307              	.LFE4:
 308              		.size	Button_SetInterruptMode, .-Button_SetInterruptMode
 309              		.section	.text.Button_ClearInterrupt,"ax",%progbits
 310              		.align	2
 311              		.global	Button_ClearInterrupt
 312              		.code	16
 313              		.thumb_func
 314              		.type	Button_ClearInterrupt, %function
 315              	Button_ClearInterrupt:
 316              	.LFB5:
 219:.\Generated_Source\PSoC4/Button.c **** 
 220:.\Generated_Source\PSoC4/Button.c **** 
 221:.\Generated_Source\PSoC4/Button.c **** /*******************************************************************************
 222:.\Generated_Source\PSoC4/Button.c **** * Function Name: Button_ClearInterrupt
 223:.\Generated_Source\PSoC4/Button.c **** ****************************************************************************//**
 224:.\Generated_Source\PSoC4/Button.c **** *
 225:.\Generated_Source\PSoC4/Button.c **** * \brief Clears any active interrupts attached with the component and returns 
 226:.\Generated_Source\PSoC4/Button.c **** *  the value of the interrupt status register allowing determination of which
 227:.\Generated_Source\PSoC4/Button.c **** *  pins generated an interrupt event.
 228:.\Generated_Source\PSoC4/Button.c **** *
 229:.\Generated_Source\PSoC4/Button.c **** * \return 
 230:.\Generated_Source\PSoC4/Button.c **** *  The right-shifted current value of the interrupt status register. Each pin 
 231:.\Generated_Source\PSoC4/Button.c **** *  has one bit set if it generated an interrupt event. For example, bit 0 is 
 232:.\Generated_Source\PSoC4/Button.c **** *  for pin 0 and bit 1 is for pin 1 of the Pins component.
 233:.\Generated_Source\PSoC4/Button.c **** *  
 234:.\Generated_Source\PSoC4/Button.c **** * \sideeffect
 235:.\Generated_Source\PSoC4/Button.c **** *  Clears all bits of the physical port's interrupt status register, not just
 236:.\Generated_Source\PSoC4/Button.c **** *  those associated with the Pins component.
 237:.\Generated_Source\PSoC4/Button.c **** *
 238:.\Generated_Source\PSoC4/Button.c **** * \funcusage
 239:.\Generated_Source\PSoC4/Button.c **** *  \snippet Button_SUT.c usage_Button_ClearInterrupt
 240:.\Generated_Source\PSoC4/Button.c **** *******************************************************************************/
 241:.\Generated_Source\PSoC4/Button.c **** uint8 Button_ClearInterrupt(void)
 242:.\Generated_Source\PSoC4/Button.c **** {
 317              		.loc 1 242 0
 318              		.cfi_startproc
 319 0000 80B5     		push	{r7, lr}
 320              		.cfi_def_cfa_offset 8
 321              		.cfi_offset 7, -8
 322              		.cfi_offset 14, -4
 323 0002 82B0     		sub	sp, sp, #8
 324              		.cfi_def_cfa_offset 16
 325 0004 00AF     		add	r7, sp, #0
 326              		.cfi_def_cfa_register 7
 243:.\Generated_Source\PSoC4/Button.c **** 	uint8 maskedStatus = (uint8)(Button_INTSTAT & Button_MASK);
 327              		.loc 1 243 0
ARM GAS  C:\Users\ADMINI~1\AppData\Local\Temp\ccA5imtI.s 			page 11


 328 0006 084B     		ldr	r3, .L20
 329 0008 1B68     		ldr	r3, [r3]
 330 000a DAB2     		uxtb	r2, r3
 331 000c FB1D     		add	r3, r7, #7
 332 000e 3F21     		mov	r1, #63
 333 0010 0A40     		and	r2, r1
 334 0012 1A70     		strb	r2, [r3]
 244:.\Generated_Source\PSoC4/Button.c **** 	Button_INTSTAT = maskedStatus;
 335              		.loc 1 244 0
 336 0014 044B     		ldr	r3, .L20
 337 0016 FA1D     		add	r2, r7, #7
 338 0018 1278     		ldrb	r2, [r2]
 339 001a 1A60     		str	r2, [r3]
 245:.\Generated_Source\PSoC4/Button.c ****     return maskedStatus >> Button_SHIFT;
 340              		.loc 1 245 0
 341 001c FB1D     		add	r3, r7, #7
 342 001e 1B78     		ldrb	r3, [r3]
 246:.\Generated_Source\PSoC4/Button.c **** }
 343              		.loc 1 246 0
 344 0020 181C     		mov	r0, r3
 345 0022 BD46     		mov	sp, r7
 346 0024 02B0     		add	sp, sp, #8
 347              		@ sp needed
 348 0026 80BD     		pop	{r7, pc}
 349              	.L21:
 350              		.align	2
 351              	.L20:
 352 0028 10000440 		.word	1074003984
 353              		.cfi_endproc
 354              	.LFE5:
 355              		.size	Button_ClearInterrupt, .-Button_ClearInterrupt
 356              		.text
 357              	.Letext0:
 358              		.file 2 ".\\Generated_Source\\PSoC4\\cytypes.h"