ARM GAS  C:\Users\Helon\AppData\Local\Temp\ccNCT5bJ.s 			page 1


   1              		.cpu cortex-m0
   2              		.fpu softvfp
   3              		.eabi_attribute 20, 1
   4              		.eabi_attribute 21, 1
   5              		.eabi_attribute 23, 3
   6              		.eabi_attribute 24, 1
   7              		.eabi_attribute 25, 1
   8              		.eabi_attribute 26, 1
   9              		.eabi_attribute 30, 6
  10              		.eabi_attribute 34, 0
  11              		.eabi_attribute 18, 4
  12              		.code	16
  13              		.file	"print.c"
  14              		.text
  15              	.Ltext0:
  16              		.cfi_sections	.debug_frame
  17              		.section	.text._write,"ax",%progbits
  18              		.align	2
  19              		.global	_write
  20              		.code	16
  21              		.thumb_func
  22              		.type	_write, %function
  23              	_write:
  24              	.LFB37:
  25              		.file 1 ".\\print.c"
   1:.\print.c     **** /* ========================================
   2:.\print.c     ****  * 文件：print.c
   3:.\print.c     ****  * 作者：Helon
   4:.\print.c     ****  * 日期：2016-05-14
   5:.\print.c     ****  * 版本：Ver1.0
   6:.\print.c     ****  * 描述：这个文件是相关Print函数重映射到串口的函数定义
   7:.\print.c     ****  * ========================================
   8:.\print.c     **** */
   9:.\print.c     **** /* ****************************************
  10:.\print.c     ****  * 头文件包含
  11:.\print.c     ****  * ****************************************
  12:.\print.c     **** */
  13:.\print.c     **** #include "print.h"
  14:.\print.c     **** 
  15:.\print.c     **** /* ****************************************
  16:.\print.c     ****  * 各功能函数地具体实现
  17:.\print.c     ****  * ****************************************
  18:.\print.c     **** */
  19:.\print.c     **** 
  20:.\print.c     **** /******************************************************************************
  21:.\print.c     **** * Function Name: Printf函数重映射
  22:.\print.c     **** ***************************************************************************//**
  23:.\print.c     **** * 
  24:.\print.c     **** *  重写_write()函数，为了使能Printf函数打印串口信息
  25:.\print.c     **** * 
  26:.\print.c     **** * \return
  27:.\print.c     **** *  None
  28:.\print.c     **** * 
  29:.\print.c     **** ******************************************************************************/
  30:.\print.c     **** #if defined(__ARMCC_VERSION)
  31:.\print.c     **** /* For MDK/RVDS compiler revise fputc function for printf functionality */
  32:.\print.c     **** struct __FILE
ARM GAS  C:\Users\Helon\AppData\Local\Temp\ccNCT5bJ.s 			page 2


  33:.\print.c     **** {
  34:.\print.c     ****     int handle;
  35:.\print.c     **** };
  36:.\print.c     **** enum
  37:.\print.c     **** {
  38:.\print.c     ****     STDIN_HANDLE,
  39:.\print.c     ****     STDOUT_HANDLE,
  40:.\print.c     ****     STDERR_HANDLE
  41:.\print.c     **** };
  42:.\print.c     **** FILE __stdin = {STDIN_HANDLE};
  43:.\print.c     **** FILE __stdout = {STDOUT_HANDLE};
  44:.\print.c     **** FILE __stderr = {STDERR_HANDLE};
  45:.\print.c     **** int fputc(int ch, FILE *file)
  46:.\print.c     **** {
  47:.\print.c     ****     int ret = EOF;
  48:.\print.c     ****     switch( file->handle )
  49:.\print.c     ****     {
  50:.\print.c     ****         case STDOUT_HANDLE:
  51:.\print.c     ****             UART_DEB_UartPutChar(ch);
  52:.\print.c     ****             ret = ch ;
  53:.\print.c     ****             break ;
  54:.\print.c     ****         case STDERR_HANDLE:
  55:.\print.c     ****             ret = ch ;
  56:.\print.c     ****             break ;
  57:.\print.c     ****         default:
  58:.\print.c     ****             file = file;
  59:.\print.c     ****             break ;
  60:.\print.c     ****     }
  61:.\print.c     ****     return ret ;
  62:.\print.c     **** }
  63:.\print.c     **** #elif defined (__ICCARM__)      /* IAR */
  64:.\print.c     **** /* For IAR compiler revise __write() function for printf functionality */
  65:.\print.c     **** size_t __write(int handle, const unsigned char * buffer, size_t size)
  66:.\print.c     **** {
  67:.\print.c     ****     size_t nChars = 0;
  68:.\print.c     ****     if (buffer == 0)
  69:.\print.c     ****     {
  70:.\print.c     ****         /*
  71:.\print.c     ****          * This means that we should flush internal buffers.  Since we
  72:.\print.c     ****          * don't we just return.  (Remember, "handle" == -1 means that all
  73:.\print.c     ****          * handles should be flushed.)
  74:.\print.c     ****          */
  75:.\print.c     ****         return (0);
  76:.\print.c     ****     }
  77:.\print.c     ****     for (/* Empty */; size != 0; --size)
  78:.\print.c     ****     {
  79:.\print.c     ****         UART_DEB_UartPutChar(*buffer++);
  80:.\print.c     ****         ++nChars;
  81:.\print.c     ****     }
  82:.\print.c     ****     return (nChars);
  83:.\print.c     **** }
  84:.\print.c     **** #else  /* (__GNUC__)  GCC */
  85:.\print.c     **** /* For GCC compiler revise _write() function for printf functionality */
  86:.\print.c     **** int _write(int file, char *ptr, int len)
  87:.\print.c     **** {
  26              		.loc 1 87 0
  27              		.cfi_startproc
ARM GAS  C:\Users\Helon\AppData\Local\Temp\ccNCT5bJ.s 			page 3


  28 0000 80B5     		push	{r7, lr}
  29              		.cfi_def_cfa_offset 8
  30              		.cfi_offset 7, -8
  31              		.cfi_offset 14, -4
  32 0002 86B0     		sub	sp, sp, #24
  33              		.cfi_def_cfa_offset 32
  34 0004 00AF     		add	r7, sp, #0
  35              		.cfi_def_cfa_register 7
  36 0006 F860     		str	r0, [r7, #12]
  37 0008 B960     		str	r1, [r7, #8]
  38 000a 7A60     		str	r2, [r7, #4]
  88:.\print.c     ****     int i;
  89:.\print.c     ****     file = file;
  90:.\print.c     ****     for (i = 0; i < len; i++)
  39              		.loc 1 90 0
  40 000c 0023     		mov	r3, #0
  41 000e 7B61     		str	r3, [r7, #20]
  42 0010 09E0     		b	.L2
  43              	.L3:
  91:.\print.c     ****     {
  92:.\print.c     ****         UART_UartPutChar(*ptr++);//这里替代成UART的发送单字节的函数即可
  44              		.loc 1 92 0 discriminator 3
  45 0012 BB68     		ldr	r3, [r7, #8]
  46 0014 5A1C     		add	r2, r3, #1
  47 0016 BA60     		str	r2, [r7, #8]
  48 0018 1B78     		ldrb	r3, [r3]
  49 001a 181C     		mov	r0, r3
  50 001c FFF7FEFF 		bl	UART_SpiUartWriteTxData
  90:.\print.c     ****     {
  51              		.loc 1 90 0 discriminator 3
  52 0020 7B69     		ldr	r3, [r7, #20]
  53 0022 0133     		add	r3, r3, #1
  54 0024 7B61     		str	r3, [r7, #20]
  55              	.L2:
  90:.\print.c     ****     {
  56              		.loc 1 90 0 is_stmt 0 discriminator 1
  57 0026 7A69     		ldr	r2, [r7, #20]
  58 0028 7B68     		ldr	r3, [r7, #4]
  59 002a 9A42     		cmp	r2, r3
  60 002c F1DB     		blt	.L3
  93:.\print.c     ****     }
  94:.\print.c     ****     return len;
  61              		.loc 1 94 0 is_stmt 1
  62 002e 7B68     		ldr	r3, [r7, #4]
  95:.\print.c     **** }
  63              		.loc 1 95 0
  64 0030 181C     		mov	r0, r3
  65 0032 BD46     		mov	sp, r7
  66 0034 06B0     		add	sp, sp, #24
  67              		@ sp needed
  68 0036 80BD     		pop	{r7, pc}
  69              		.cfi_endproc
  70              	.LFE37:
  71              		.size	_write, .-_write
  72              		.text
  73              	.Letext0:
  74              		.file 2 "Generated_Source\\PSoC4/cytypes.h"
ARM GAS  C:\Users\Helon\AppData\Local\Temp\ccNCT5bJ.s 			page 4

